ARM GAS  C:\Users\jthem\AppData\Local\Temp\ccGc6iCf.s 			page 1


   1              		.syntax unified
   2              		.cpu cortex-m3
   3              		.fpu softvfp
   4              		.eabi_attribute 20, 1
   5              		.eabi_attribute 21, 1
   6              		.eabi_attribute 23, 3
   7              		.eabi_attribute 24, 1
   8              		.eabi_attribute 25, 1
   9              		.eabi_attribute 26, 1
  10              		.eabi_attribute 30, 6
  11              		.eabi_attribute 34, 1
  12              		.eabi_attribute 18, 4
  13              		.thumb
  14              		.file	"main.c"
  15              		.text
  16              	.Ltext0:
  17              		.cfi_sections	.debug_frame
  18              		.global	trigger
  19              		.bss
  20              		.type	trigger, %object
  21              		.size	trigger, 1
  22              	trigger:
  23 0000 00       		.space	1
  24              		.section	.text.main,"ax",%progbits
  25              		.align	2
  26              		.global	main
  27              		.thumb
  28              		.thumb_func
  29              		.type	main, %function
  30              	main:
  31              	.LFB63:
  32              		.file 1 ".\\main.c"
   1:.\main.c      **** /*******************************************************************************
   2:.\main.c      **** * File Name: main.c
   3:.\main.c      **** *
   4:.\main.c      **** * Version: 2.1
   5:.\main.c      **** *
   6:.\main.c      **** * Description:
   7:.\main.c      **** *  This project demonstrates the UART transmission mechanism. 
   8:.\main.c      **** *  Data is sent through serial port that is visible in the Hyperterminal and on 
   9:.\main.c      **** *  the LCD. ASCII characters from 0x20 to 0x7F(Space to ~ )  that can be 
  10:.\main.c      **** *  displayed through Hyperterminal/LCD at the same time Interrupt is triggered
  11:.\main.c      **** *  and incremented while sending.
  12:.\main.c      **** *
  13:.\main.c      **** ********************************************************************************
  14:.\main.c      **** * Copyright 2012, Cypress Semiconductor Corporation. All rights reserved.
  15:.\main.c      **** * This software is owned by Cypress Semiconductor Corporation and is protected
  16:.\main.c      **** * by and subject to worldwide patent and copyright laws and treaties.
  17:.\main.c      **** * Therefore, you may use this software only as provided in the license agreement
  18:.\main.c      **** * accompanying the software package from which you obtained this software.
  19:.\main.c      **** * CYPRESS AND ITS SUPPLIERS MAKE NO WARRANTY OF ANY KIND, EXPRESS OR IMPLIED,
  20:.\main.c      **** * WITH REGARD TO THIS SOFTWARE, INCLUDING, BUT NOT LIMITED TO, NONINFRINGEMENT,
  21:.\main.c      **** * IMPLIED WARRANTIES OF MERCHANTABILITY AND FITNESS FOR A PARTICULAR PURPOSE.
  22:.\main.c      **** *******************************************************************************/
  23:.\main.c      **** 
  24:.\main.c      **** #include <device.h>
  25:.\main.c      **** 
ARM GAS  C:\Users\jthem\AppData\Local\Temp\ccGc6iCf.s 			page 2


  26:.\main.c      **** #define LCD_NUM_COLUMNS     (16u)
  27:.\main.c      **** #define START_CHAR_VALUE    (0x20u)
  28:.\main.c      **** #define END_CHAR_VALUE      (0x7Eu)
  29:.\main.c      **** 
  30:.\main.c      **** uint8 trigger = 0u;
  31:.\main.c      **** 
  32:.\main.c      **** 
  33:.\main.c      **** int main()
  34:.\main.c      **** {    
  33              		.loc 1 34 0
  34              		.cfi_startproc
  35              		@ args = 0, pretend = 0, frame = 8
  36              		@ frame_needed = 1, uses_anonymous_args = 0
  37 0000 80B5     		push	{r7, lr}
  38              		.cfi_def_cfa_offset 8
  39              		.cfi_offset 7, -8
  40              		.cfi_offset 14, -4
  41 0002 82B0     		sub	sp, sp, #8
  42              		.cfi_def_cfa_offset 16
  43 0004 00AF     		add	r7, sp, #0
  44              		.cfi_def_cfa_register 7
  35:.\main.c      ****     uint8 ch;           /* Data sent on the serial port */
  36:.\main.c      ****     uint8 count = 0u;    /* Initializing the count value */
  45              		.loc 1 36 0
  46 0006 0023     		movs	r3, #0
  47 0008 BB71     		strb	r3, [r7, #6]
  37:.\main.c      ****     uint8 pos = 0u;
  48              		.loc 1 37 0
  49 000a 0023     		movs	r3, #0
  50 000c 7B71     		strb	r3, [r7, #5]
  38:.\main.c      **** 
  39:.\main.c      ****     CyGlobalIntEnable; 
  51              		.loc 1 39 0
  52              	@ 39 ".\main.c" 1
  53 000e 62B6     		CPSIE   i
  54              	@ 0 "" 2
  40:.\main.c      **** 
  41:.\main.c      ****     isr_1_Start();      /* Initializing the ISR */
  55              		.loc 1 41 0
  56              		.thumb
  57 0010 FFF7FEFF 		bl	isr_1_Start
  42:.\main.c      ****     UART_1_Start();     /* Enabling the UART */
  58              		.loc 1 42 0
  59 0014 FFF7FEFF 		bl	UART_1_Start
  43:.\main.c      ****     LCD_Char_1_Start(); /* Enabling the LCD */
  60              		.loc 1 43 0
  61 0018 FFF7FEFF 		bl	LCD_Char_1_Start
  44:.\main.c      **** 
  45:.\main.c      ****         
  46:.\main.c      ****     for(ch = START_CHAR_VALUE; ch <= END_CHAR_VALUE; ch++)
  62              		.loc 1 46 0
  63 001c 2023     		movs	r3, #32
  64 001e FB71     		strb	r3, [r7, #7]
  65 0020 2AE0     		b	.L2
  66              	.L4:
  47:.\main.c      ****     {
  48:.\main.c      ****         UART_1_WriteTxData(ch); /* Sending the data */
ARM GAS  C:\Users\jthem\AppData\Local\Temp\ccGc6iCf.s 			page 3


  67              		.loc 1 48 0
  68 0022 FB79     		ldrb	r3, [r7, #7]	@ zero_extendqisi2
  69 0024 1846     		mov	r0, r3
  70 0026 FFF7FEFF 		bl	UART_1_WriteTxData
  49:.\main.c      **** 
  50:.\main.c      ****         count++;        
  71              		.loc 1 50 0
  72 002a BB79     		ldrb	r3, [r7, #6]	@ zero_extendqisi2
  73 002c 0133     		adds	r3, r3, #1
  74 002e BB71     		strb	r3, [r7, #6]
  51:.\main.c      ****         if(count % LCD_NUM_COLUMNS == 0u) /* If the count value reaches the count 16 start from fir
  75              		.loc 1 51 0
  76 0030 BB79     		ldrb	r3, [r7, #6]
  77 0032 03F00F03 		and	r3, r3, #15
  78 0036 DBB2     		uxtb	r3, r3
  79 0038 002B     		cmp	r3, #0
  80 003a 04D1     		bne	.L3
  52:.\main.c      ****         {
  53:.\main.c      ****             pos = 0u;  /* resets the count value */
  81              		.loc 1 53 0
  82 003c 0023     		movs	r3, #0
  83 003e 7B71     		strb	r3, [r7, #5]
  54:.\main.c      ****             LCD_Char_1_WriteControl(LCD_Char_1_CLEAR_DISPLAY); /* Display will be cleared when reac
  84              		.loc 1 54 0
  85 0040 0120     		movs	r0, #1
  86 0042 FFF7FEFF 		bl	LCD_Char_1_WriteControl
  87              	.L3:
  55:.\main.c      ****         }    
  56:.\main.c      **** 
  57:.\main.c      ****         LCD_Char_1_Position(0u, pos++);   /* LCD position to the count++ */
  88              		.loc 1 57 0 discriminator 2
  89 0046 7B79     		ldrb	r3, [r7, #5]	@ zero_extendqisi2
  90 0048 5A1C     		adds	r2, r3, #1
  91 004a 7A71     		strb	r2, [r7, #5]
  92 004c 0020     		movs	r0, #0
  93 004e 1946     		mov	r1, r3
  94 0050 FFF7FEFF 		bl	LCD_Char_1_Position
  58:.\main.c      ****         LCD_Char_1_PutChar(ch);         /* print the value in the LCD */
  95              		.loc 1 58 0 discriminator 2
  96 0054 FB79     		ldrb	r3, [r7, #7]	@ zero_extendqisi2
  97 0056 1846     		mov	r0, r3
  98 0058 FFF7FEFF 		bl	LCD_Char_1_PutChar
  59:.\main.c      ****                 
  60:.\main.c      ****         LCD_Char_1_Position(1u, 0u);
  99              		.loc 1 60 0 discriminator 2
 100 005c 0120     		movs	r0, #1
 101 005e 0021     		movs	r1, #0
 102 0060 FFF7FEFF 		bl	LCD_Char_1_Position
  61:.\main.c      ****         LCD_Char_1_PrintInt8(count);    /* prints the count in the LCD */
 103              		.loc 1 61 0 discriminator 2
 104 0064 BB79     		ldrb	r3, [r7, #6]	@ zero_extendqisi2
 105 0066 1846     		mov	r0, r3
 106 0068 FFF7FEFF 		bl	LCD_Char_1_PrintInt8
  62:.\main.c      ****         CyDelay(200u);
 107              		.loc 1 62 0 discriminator 2
 108 006c C820     		movs	r0, #200
 109 006e FFF7FEFF 		bl	CyDelay
ARM GAS  C:\Users\jthem\AppData\Local\Temp\ccGc6iCf.s 			page 4


  46:.\main.c      ****     {
 110              		.loc 1 46 0 discriminator 2
 111 0072 FB79     		ldrb	r3, [r7, #7]	@ zero_extendqisi2
 112 0074 0133     		adds	r3, r3, #1
 113 0076 FB71     		strb	r3, [r7, #7]
 114              	.L2:
  46:.\main.c      ****     {
 115              		.loc 1 46 0 is_stmt 0 discriminator 1
 116 0078 FB79     		ldrb	r3, [r7, #7]	@ zero_extendqisi2
 117 007a 7E2B     		cmp	r3, #126
 118 007c D1D9     		bls	.L4
 119              	.L5:
  63:.\main.c      ****     }
  64:.\main.c      **** 
  65:.\main.c      ****     for(;;) {}
 120              		.loc 1 65 0 is_stmt 1 discriminator 1
 121 007e FEE7     		b	.L5
 122              		.cfi_endproc
 123              	.LFE63:
 124              		.size	main, .-main
 125              		.text
 126              	.Letext0:
 127              		.file 2 "c:\\program files (x86)\\cypress\\psoc creator\\3.3\\psoc creator\\import\\gnu\\arm\\4.9.
 128              		.file 3 "c:\\program files (x86)\\cypress\\psoc creator\\3.3\\psoc creator\\import\\gnu\\arm\\4.9.
 129              		.file 4 "Generated_Source\\PSoC5/cytypes.h"
 130              		.file 5 "Generated_Source\\PSoC5/core_cm3.h"