ARM GAS  C:\Users\jthem\AppData\Local\Temp\ccilLXgB.s 			page 1


   1              		.syntax unified
   2              		.cpu cortex-m3
   3              		.fpu softvfp
   4              		.eabi_attribute 20, 1
   5              		.eabi_attribute 21, 1
   6              		.eabi_attribute 23, 3
   7              		.eabi_attribute 24, 1
   8              		.eabi_attribute 25, 1
   9              		.eabi_attribute 26, 1
  10              		.eabi_attribute 30, 4
  11              		.eabi_attribute 34, 1
  12              		.eabi_attribute 18, 4
  13              		.thumb
  14              		.file	"cyfitter_cfg.c"
  15              		.text
  16              	.Ltext0:
  17              		.cfi_sections	.debug_frame
  18              		.section	.text.SetAnalogRoutingPumps,"ax",%progbits
  19              		.align	1
  20              		.global	SetAnalogRoutingPumps
  21              		.thumb
  22              		.thumb_func
  23              		.type	SetAnalogRoutingPumps, %function
  24              	SetAnalogRoutingPumps:
  25              	.LFB7:
  26              		.file 1 ".\\Generated_Source\\PSoC5\\cyfitter_cfg.c"
   1:.\Generated_Source\PSoC5/cyfitter_cfg.c **** /*******************************************************************************
   2:.\Generated_Source\PSoC5/cyfitter_cfg.c **** * File Name: cyfitter_cfg.c
   3:.\Generated_Source\PSoC5/cyfitter_cfg.c **** * 
   4:.\Generated_Source\PSoC5/cyfitter_cfg.c **** * PSoC Creator  3.3 CP2
   5:.\Generated_Source\PSoC5/cyfitter_cfg.c **** *
   6:.\Generated_Source\PSoC5/cyfitter_cfg.c **** * Description:
   7:.\Generated_Source\PSoC5/cyfitter_cfg.c **** * This file contains device initialization code.
   8:.\Generated_Source\PSoC5/cyfitter_cfg.c **** * Except for the user defined sections in CyClockStartupError(), this file should not be modified.
   9:.\Generated_Source\PSoC5/cyfitter_cfg.c **** * This file is automatically generated by PSoC Creator.
  10:.\Generated_Source\PSoC5/cyfitter_cfg.c **** *
  11:.\Generated_Source\PSoC5/cyfitter_cfg.c **** ********************************************************************************
  12:.\Generated_Source\PSoC5/cyfitter_cfg.c **** * Copyright (c) 2007-2015 Cypress Semiconductor.  All rights reserved.
  13:.\Generated_Source\PSoC5/cyfitter_cfg.c **** * You may use this file only in accordance with the license, terms, conditions, 
  14:.\Generated_Source\PSoC5/cyfitter_cfg.c **** * disclaimers, and limitations in the end user license agreement accompanying 
  15:.\Generated_Source\PSoC5/cyfitter_cfg.c **** * the software package with which this file was provided.
  16:.\Generated_Source\PSoC5/cyfitter_cfg.c **** ********************************************************************************/
  17:.\Generated_Source\PSoC5/cyfitter_cfg.c **** 
  18:.\Generated_Source\PSoC5/cyfitter_cfg.c **** #include <string.h>
  19:.\Generated_Source\PSoC5/cyfitter_cfg.c **** #include "cytypes.h"
  20:.\Generated_Source\PSoC5/cyfitter_cfg.c **** #include "cydevice_trm.h"
  21:.\Generated_Source\PSoC5/cyfitter_cfg.c **** #include "cyfitter.h"
  22:.\Generated_Source\PSoC5/cyfitter_cfg.c **** #include "CyLib.h"
  23:.\Generated_Source\PSoC5/cyfitter_cfg.c **** #include "cyfitter_cfg.h"
  24:.\Generated_Source\PSoC5/cyfitter_cfg.c **** 
  25:.\Generated_Source\PSoC5/cyfitter_cfg.c **** #define CY_NEED_CYCLOCKSTARTUPERROR 1
  26:.\Generated_Source\PSoC5/cyfitter_cfg.c **** 
  27:.\Generated_Source\PSoC5/cyfitter_cfg.c **** 
  28:.\Generated_Source\PSoC5/cyfitter_cfg.c **** #if defined(__GNUC__) || defined(__ARMCC_VERSION)
  29:.\Generated_Source\PSoC5/cyfitter_cfg.c ****     #define CYPACKED 
  30:.\Generated_Source\PSoC5/cyfitter_cfg.c ****     #define CYPACKED_ATTR __attribute__ ((packed))
  31:.\Generated_Source\PSoC5/cyfitter_cfg.c ****     #define CYALIGNED __attribute__ ((aligned))
ARM GAS  C:\Users\jthem\AppData\Local\Temp\ccilLXgB.s 			page 2


  32:.\Generated_Source\PSoC5/cyfitter_cfg.c ****     #define CY_CFG_UNUSED __attribute__ ((unused))
  33:.\Generated_Source\PSoC5/cyfitter_cfg.c ****     #ifndef CY_CFG_SECTION
  34:.\Generated_Source\PSoC5/cyfitter_cfg.c ****         #define CY_CFG_SECTION __attribute__ ((section(".psocinit")))
  35:.\Generated_Source\PSoC5/cyfitter_cfg.c ****     #endif
  36:.\Generated_Source\PSoC5/cyfitter_cfg.c ****     
  37:.\Generated_Source\PSoC5/cyfitter_cfg.c ****     #if CYDEV_CONFIGURATION_DMA
  38:.\Generated_Source\PSoC5/cyfitter_cfg.c ****         #if (defined(__ARMCC_VERSION) || defined(__GNUC__))
  39:.\Generated_Source\PSoC5/cyfitter_cfg.c ****             #ifndef DMAINITSEC
  40:.\Generated_Source\PSoC5/cyfitter_cfg.c ****                 #define DMAINITSEC __attribute__ ((section(".dma_init")))
  41:.\Generated_Source\PSoC5/cyfitter_cfg.c ****             #endif
  42:.\Generated_Source\PSoC5/cyfitter_cfg.c ****         #elif defined(__ICCARM__)
  43:.\Generated_Source\PSoC5/cyfitter_cfg.c ****             #define DMAINITSEC _Pragma("location=\".dma_init\"")
  44:.\Generated_Source\PSoC5/cyfitter_cfg.c ****         #endif
  45:.\Generated_Source\PSoC5/cyfitter_cfg.c ****     #else
  46:.\Generated_Source\PSoC5/cyfitter_cfg.c ****         #define DMAINITSEC
  47:.\Generated_Source\PSoC5/cyfitter_cfg.c ****     #endif
  48:.\Generated_Source\PSoC5/cyfitter_cfg.c **** 
  49:.\Generated_Source\PSoC5/cyfitter_cfg.c ****     #if defined(__ARMCC_VERSION)
  50:.\Generated_Source\PSoC5/cyfitter_cfg.c ****         #define CY_CFG_MEMORY_BARRIER() __memory_changed()
  51:.\Generated_Source\PSoC5/cyfitter_cfg.c ****     #else
  52:.\Generated_Source\PSoC5/cyfitter_cfg.c ****         #define CY_CFG_MEMORY_BARRIER() __sync_synchronize()
  53:.\Generated_Source\PSoC5/cyfitter_cfg.c ****     #endif
  54:.\Generated_Source\PSoC5/cyfitter_cfg.c ****     
  55:.\Generated_Source\PSoC5/cyfitter_cfg.c **** #elif defined(__ICCARM__)
  56:.\Generated_Source\PSoC5/cyfitter_cfg.c ****     #include <intrinsics.h>
  57:.\Generated_Source\PSoC5/cyfitter_cfg.c **** 
  58:.\Generated_Source\PSoC5/cyfitter_cfg.c ****     #define CYPACKED __packed
  59:.\Generated_Source\PSoC5/cyfitter_cfg.c ****     #define CYPACKED_ATTR 
  60:.\Generated_Source\PSoC5/cyfitter_cfg.c ****     #define CYALIGNED _Pragma("data_alignment=4")
  61:.\Generated_Source\PSoC5/cyfitter_cfg.c ****     #define CY_CFG_UNUSED _Pragma("diag_suppress=Pe177")
  62:.\Generated_Source\PSoC5/cyfitter_cfg.c ****     #define CY_CFG_SECTION _Pragma("location=\".psocinit\"")
  63:.\Generated_Source\PSoC5/cyfitter_cfg.c ****     
  64:.\Generated_Source\PSoC5/cyfitter_cfg.c ****     #if CYDEV_CONFIGURATION_DMA
  65:.\Generated_Source\PSoC5/cyfitter_cfg.c ****         #if (defined(__ARMCC_VERSION) || defined(__GNUC__))
  66:.\Generated_Source\PSoC5/cyfitter_cfg.c ****             #ifndef DMAINITSEC
  67:.\Generated_Source\PSoC5/cyfitter_cfg.c ****                 #define DMAINITSEC __attribute__ ((section(".dma_init")))
  68:.\Generated_Source\PSoC5/cyfitter_cfg.c ****             #endif
  69:.\Generated_Source\PSoC5/cyfitter_cfg.c ****         #elif defined(__ICCARM__)
  70:.\Generated_Source\PSoC5/cyfitter_cfg.c ****             #define DMAINITSEC _Pragma("location=\".dma_init\"")
  71:.\Generated_Source\PSoC5/cyfitter_cfg.c ****         #endif
  72:.\Generated_Source\PSoC5/cyfitter_cfg.c ****     #else
  73:.\Generated_Source\PSoC5/cyfitter_cfg.c ****         #define DMAINITSEC
  74:.\Generated_Source\PSoC5/cyfitter_cfg.c ****     #endif
  75:.\Generated_Source\PSoC5/cyfitter_cfg.c **** 
  76:.\Generated_Source\PSoC5/cyfitter_cfg.c ****     #define CY_CFG_MEMORY_BARRIER() __DMB()
  77:.\Generated_Source\PSoC5/cyfitter_cfg.c ****     
  78:.\Generated_Source\PSoC5/cyfitter_cfg.c **** #else
  79:.\Generated_Source\PSoC5/cyfitter_cfg.c ****     #error Unsupported toolchain
  80:.\Generated_Source\PSoC5/cyfitter_cfg.c **** #endif
  81:.\Generated_Source\PSoC5/cyfitter_cfg.c **** 
  82:.\Generated_Source\PSoC5/cyfitter_cfg.c **** 
  83:.\Generated_Source\PSoC5/cyfitter_cfg.c **** CY_CFG_UNUSED
  84:.\Generated_Source\PSoC5/cyfitter_cfg.c **** static void CYMEMZERO(void *s, size_t n);
  85:.\Generated_Source\PSoC5/cyfitter_cfg.c **** CY_CFG_UNUSED
  86:.\Generated_Source\PSoC5/cyfitter_cfg.c **** static void CYMEMZERO(void *s, size_t n)
  87:.\Generated_Source\PSoC5/cyfitter_cfg.c **** {
  88:.\Generated_Source\PSoC5/cyfitter_cfg.c **** 	(void)memset(s, 0, n);
ARM GAS  C:\Users\jthem\AppData\Local\Temp\ccilLXgB.s 			page 3


  89:.\Generated_Source\PSoC5/cyfitter_cfg.c **** }
  90:.\Generated_Source\PSoC5/cyfitter_cfg.c **** CY_CFG_UNUSED
  91:.\Generated_Source\PSoC5/cyfitter_cfg.c **** static void CYCONFIGCPY(void *dest, const void *src, size_t n);
  92:.\Generated_Source\PSoC5/cyfitter_cfg.c **** CY_CFG_UNUSED
  93:.\Generated_Source\PSoC5/cyfitter_cfg.c **** static void CYCONFIGCPY(void *dest, const void *src, size_t n)
  94:.\Generated_Source\PSoC5/cyfitter_cfg.c **** {
  95:.\Generated_Source\PSoC5/cyfitter_cfg.c **** 	(void)memcpy(dest, src, n);
  96:.\Generated_Source\PSoC5/cyfitter_cfg.c **** }
  97:.\Generated_Source\PSoC5/cyfitter_cfg.c **** CY_CFG_UNUSED
  98:.\Generated_Source\PSoC5/cyfitter_cfg.c **** static void CYCONFIGCPYCODE(void *dest, const void *src, size_t n);
  99:.\Generated_Source\PSoC5/cyfitter_cfg.c **** CY_CFG_UNUSED
 100:.\Generated_Source\PSoC5/cyfitter_cfg.c **** static void CYCONFIGCPYCODE(void *dest, const void *src, size_t n)
 101:.\Generated_Source\PSoC5/cyfitter_cfg.c **** {
 102:.\Generated_Source\PSoC5/cyfitter_cfg.c **** 	(void)memcpy(dest, src, n);
 103:.\Generated_Source\PSoC5/cyfitter_cfg.c **** }
 104:.\Generated_Source\PSoC5/cyfitter_cfg.c **** 
 105:.\Generated_Source\PSoC5/cyfitter_cfg.c **** 
 106:.\Generated_Source\PSoC5/cyfitter_cfg.c **** 
 107:.\Generated_Source\PSoC5/cyfitter_cfg.c **** /* Clock startup error codes                                                   */
 108:.\Generated_Source\PSoC5/cyfitter_cfg.c **** #define CYCLOCKSTART_NO_ERROR    0u
 109:.\Generated_Source\PSoC5/cyfitter_cfg.c **** #define CYCLOCKSTART_XTAL_ERROR  1u
 110:.\Generated_Source\PSoC5/cyfitter_cfg.c **** #define CYCLOCKSTART_32KHZ_ERROR 2u
 111:.\Generated_Source\PSoC5/cyfitter_cfg.c **** #define CYCLOCKSTART_PLL_ERROR   3u
 112:.\Generated_Source\PSoC5/cyfitter_cfg.c **** 
 113:.\Generated_Source\PSoC5/cyfitter_cfg.c **** #ifdef CY_NEED_CYCLOCKSTARTUPERROR
 114:.\Generated_Source\PSoC5/cyfitter_cfg.c **** /*******************************************************************************
 115:.\Generated_Source\PSoC5/cyfitter_cfg.c **** * Function Name: CyClockStartupError
 116:.\Generated_Source\PSoC5/cyfitter_cfg.c **** ********************************************************************************
 117:.\Generated_Source\PSoC5/cyfitter_cfg.c **** * Summary:
 118:.\Generated_Source\PSoC5/cyfitter_cfg.c **** *  If an error is encountered during clock configuration (crystal startup error,
 119:.\Generated_Source\PSoC5/cyfitter_cfg.c **** *  PLL lock error, etc.), the system will end up here.  Unless reimplemented by
 120:.\Generated_Source\PSoC5/cyfitter_cfg.c **** *  the customer, this function will stop in an infinite loop.
 121:.\Generated_Source\PSoC5/cyfitter_cfg.c **** *
 122:.\Generated_Source\PSoC5/cyfitter_cfg.c **** * Parameters:
 123:.\Generated_Source\PSoC5/cyfitter_cfg.c **** *   void
 124:.\Generated_Source\PSoC5/cyfitter_cfg.c **** *
 125:.\Generated_Source\PSoC5/cyfitter_cfg.c **** * Return:
 126:.\Generated_Source\PSoC5/cyfitter_cfg.c **** *   void
 127:.\Generated_Source\PSoC5/cyfitter_cfg.c **** *
 128:.\Generated_Source\PSoC5/cyfitter_cfg.c **** *******************************************************************************/
 129:.\Generated_Source\PSoC5/cyfitter_cfg.c **** CY_CFG_UNUSED
 130:.\Generated_Source\PSoC5/cyfitter_cfg.c **** static void CyClockStartupError(uint8 errorCode);
 131:.\Generated_Source\PSoC5/cyfitter_cfg.c **** CY_CFG_UNUSED
 132:.\Generated_Source\PSoC5/cyfitter_cfg.c **** static void CyClockStartupError(uint8 errorCode)
 133:.\Generated_Source\PSoC5/cyfitter_cfg.c **** {
 134:.\Generated_Source\PSoC5/cyfitter_cfg.c ****     /* To remove the compiler warning if errorCode not used.                */
 135:.\Generated_Source\PSoC5/cyfitter_cfg.c ****     errorCode = errorCode;
 136:.\Generated_Source\PSoC5/cyfitter_cfg.c **** 
 137:.\Generated_Source\PSoC5/cyfitter_cfg.c ****     /* `#START CyClockStartupError` */
 138:.\Generated_Source\PSoC5/cyfitter_cfg.c **** 
 139:.\Generated_Source\PSoC5/cyfitter_cfg.c ****     /* If we have a clock startup error (bad MHz crystal, PLL lock, etc.),  */
 140:.\Generated_Source\PSoC5/cyfitter_cfg.c ****     /* we will end up here to allow the customer to implement something to  */
 141:.\Generated_Source\PSoC5/cyfitter_cfg.c ****     /* deal with the clock condition.                                       */
 142:.\Generated_Source\PSoC5/cyfitter_cfg.c **** 
 143:.\Generated_Source\PSoC5/cyfitter_cfg.c ****     /* `#END` */
 144:.\Generated_Source\PSoC5/cyfitter_cfg.c **** 
 145:.\Generated_Source\PSoC5/cyfitter_cfg.c ****     /* If nothing else, stop here since the clocks have not started         */
ARM GAS  C:\Users\jthem\AppData\Local\Temp\ccilLXgB.s 			page 4


 146:.\Generated_Source\PSoC5/cyfitter_cfg.c ****     /* correctly.                                                           */
 147:.\Generated_Source\PSoC5/cyfitter_cfg.c ****     while(1) {}
 148:.\Generated_Source\PSoC5/cyfitter_cfg.c **** }
 149:.\Generated_Source\PSoC5/cyfitter_cfg.c **** #endif
 150:.\Generated_Source\PSoC5/cyfitter_cfg.c **** 
 151:.\Generated_Source\PSoC5/cyfitter_cfg.c **** /* IOPORT_0 Address: CYDEV_PRTDSI_PRT0_BASE Size (bytes): 7 */
 152:.\Generated_Source\PSoC5/cyfitter_cfg.c **** #define BS_IOPORT_0_VAL ((const uint8 CYFAR *)0x48000000u)
 153:.\Generated_Source\PSoC5/cyfitter_cfg.c **** 
 154:.\Generated_Source\PSoC5/cyfitter_cfg.c **** /* IDMUX_IRQ Address: CYREG_IDMUX_IRQ_CTL0 Size (bytes): 8 */
 155:.\Generated_Source\PSoC5/cyfitter_cfg.c **** #define BS_IDMUX_IRQ_VAL ((const uint8 CYFAR *)0x48000008u)
 156:.\Generated_Source\PSoC5/cyfitter_cfg.c **** 
 157:.\Generated_Source\PSoC5/cyfitter_cfg.c **** /* UDB_1_3_0_CONFIG Address: CYDEV_UCFG_B0_P2_U0_BASE Size (bytes): 128 */
 158:.\Generated_Source\PSoC5/cyfitter_cfg.c **** #define BS_UDB_1_3_0_CONFIG_VAL ((const uint8 CYFAR *)0x48000010u)
 159:.\Generated_Source\PSoC5/cyfitter_cfg.c **** 
 160:.\Generated_Source\PSoC5/cyfitter_cfg.c **** /* UDB_1_3_1_CONFIG Address: CYDEV_UCFG_B0_P2_U1_BASE Size (bytes): 128 */
 161:.\Generated_Source\PSoC5/cyfitter_cfg.c **** #define BS_UDB_1_3_1_CONFIG_VAL ((const uint8 CYFAR *)0x48000090u)
 162:.\Generated_Source\PSoC5/cyfitter_cfg.c **** 
 163:.\Generated_Source\PSoC5/cyfitter_cfg.c **** /* UDB_1_2_1_CONFIG Address: CYDEV_UCFG_B0_P3_U0_BASE Size (bytes): 128 */
 164:.\Generated_Source\PSoC5/cyfitter_cfg.c **** #define BS_UDB_1_2_1_CONFIG_VAL ((const uint8 CYFAR *)0x48000110u)
 165:.\Generated_Source\PSoC5/cyfitter_cfg.c **** 
 166:.\Generated_Source\PSoC5/cyfitter_cfg.c **** /* UDB_1_2_0_CONFIG Address: CYDEV_UCFG_B0_P3_U1_BASE Size (bytes): 128 */
 167:.\Generated_Source\PSoC5/cyfitter_cfg.c **** #define BS_UDB_1_2_0_CONFIG_VAL ((const uint8 CYFAR *)0x48000190u)
 168:.\Generated_Source\PSoC5/cyfitter_cfg.c **** 
 169:.\Generated_Source\PSoC5/cyfitter_cfg.c **** /* UDB_1_0_0_CONFIG Address: CYDEV_UCFG_B1_P2_U0_BASE Size (bytes): 128 */
 170:.\Generated_Source\PSoC5/cyfitter_cfg.c **** #define BS_UDB_1_0_0_CONFIG_VAL ((const uint8 CYFAR *)0x48000210u)
 171:.\Generated_Source\PSoC5/cyfitter_cfg.c **** 
 172:.\Generated_Source\PSoC5/cyfitter_cfg.c **** /* UDB_1_0_1_CONFIG Address: CYDEV_UCFG_B1_P2_U1_BASE Size (bytes): 128 */
 173:.\Generated_Source\PSoC5/cyfitter_cfg.c **** #define BS_UDB_1_0_1_CONFIG_VAL ((const uint8 CYFAR *)0x48000290u)
 174:.\Generated_Source\PSoC5/cyfitter_cfg.c **** 
 175:.\Generated_Source\PSoC5/cyfitter_cfg.c **** /* UDB_1_1_1_CONFIG Address: CYDEV_UCFG_B1_P3_U0_BASE Size (bytes): 128 */
 176:.\Generated_Source\PSoC5/cyfitter_cfg.c **** #define BS_UDB_1_1_1_CONFIG_VAL ((const uint8 CYFAR *)0x48000310u)
 177:.\Generated_Source\PSoC5/cyfitter_cfg.c **** 
 178:.\Generated_Source\PSoC5/cyfitter_cfg.c **** /* UDB_1_1_0_CONFIG Address: CYDEV_UCFG_B1_P3_U1_BASE Size (bytes): 128 */
 179:.\Generated_Source\PSoC5/cyfitter_cfg.c **** #define BS_UDB_1_1_0_CONFIG_VAL ((const uint8 CYFAR *)0x48000390u)
 180:.\Generated_Source\PSoC5/cyfitter_cfg.c **** 
 181:.\Generated_Source\PSoC5/cyfitter_cfg.c **** /* UWRK_B0_WRK_STATCTL_BITS Address: CYDEV_UWRK_UWRK8_B0_BASE + 0x00000070u Size (bytes): 32 */
 182:.\Generated_Source\PSoC5/cyfitter_cfg.c **** #define BS_UWRK_B0_WRK_STATCTL_BITS_VAL ((const uint8 CYFAR *)0x48000410u)
 183:.\Generated_Source\PSoC5/cyfitter_cfg.c **** 
 184:.\Generated_Source\PSoC5/cyfitter_cfg.c **** /* UWRK_B1_WRK_STATCTL_BITS Address: CYDEV_UWRK_UWRK8_B1_BASE + 0x00000070u Size (bytes): 32 */
 185:.\Generated_Source\PSoC5/cyfitter_cfg.c **** #define BS_UWRK_B1_WRK_STATCTL_BITS_VAL ((const uint8 CYFAR *)0x48000430u)
 186:.\Generated_Source\PSoC5/cyfitter_cfg.c **** 
 187:.\Generated_Source\PSoC5/cyfitter_cfg.c **** /* UCFG_BCTL1 Address: CYREG_BCTL1_MDCLK_EN Size (bytes): 16 */
 188:.\Generated_Source\PSoC5/cyfitter_cfg.c **** #define BS_UCFG_BCTL1_VAL ((const uint8 CYFAR *)0x48000450u)
 189:.\Generated_Source\PSoC5/cyfitter_cfg.c **** 
 190:.\Generated_Source\PSoC5/cyfitter_cfg.c **** /* UCFG_BCTL0 Address: CYREG_BCTL0_MDCLK_EN Size (bytes): 16 */
 191:.\Generated_Source\PSoC5/cyfitter_cfg.c **** #define BS_UCFG_BCTL0_VAL ((const uint8 CYFAR *)0x48000460u)
 192:.\Generated_Source\PSoC5/cyfitter_cfg.c **** 
 193:.\Generated_Source\PSoC5/cyfitter_cfg.c **** /* UDBSWITCH_1_0 Address: CYDEV_UCFG_B1_P2_ROUTE_BASE Size (bytes): 128 */
 194:.\Generated_Source\PSoC5/cyfitter_cfg.c **** #define BS_UDBSWITCH_1_0_VAL ((const uint8 CYFAR *)0x48000470u)
 195:.\Generated_Source\PSoC5/cyfitter_cfg.c **** 
 196:.\Generated_Source\PSoC5/cyfitter_cfg.c **** /* UDB_2_0_HV_ROUTING Address: CYDEV_UCFG_B1_P2_ROUTE_BASE + 0x00000080u Size (bytes): 128 */
 197:.\Generated_Source\PSoC5/cyfitter_cfg.c **** #define BS_UDB_2_0_HV_ROUTING_VAL ((const uint8 CYFAR *)0x480004F0u)
 198:.\Generated_Source\PSoC5/cyfitter_cfg.c **** 
 199:.\Generated_Source\PSoC5/cyfitter_cfg.c **** /* UDBSWITCH_1_1 Address: CYDEV_UCFG_B1_P3_ROUTE_BASE Size (bytes): 128 */
 200:.\Generated_Source\PSoC5/cyfitter_cfg.c **** #define BS_UDBSWITCH_1_1_VAL ((const uint8 CYFAR *)0x48000570u)
 201:.\Generated_Source\PSoC5/cyfitter_cfg.c **** 
 202:.\Generated_Source\PSoC5/cyfitter_cfg.c **** /* UDB_2_1_HV_ROUTING Address: CYDEV_UCFG_B1_P3_ROUTE_BASE + 0x00000080u Size (bytes): 128 */
ARM GAS  C:\Users\jthem\AppData\Local\Temp\ccilLXgB.s 			page 5


 203:.\Generated_Source\PSoC5/cyfitter_cfg.c **** #define BS_UDB_2_1_HV_ROUTING_VAL ((const uint8 CYFAR *)0x480005F0u)
 204:.\Generated_Source\PSoC5/cyfitter_cfg.c **** 
 205:.\Generated_Source\PSoC5/cyfitter_cfg.c **** /* UDBSWITCH_1_2 Address: CYDEV_UCFG_B0_P3_ROUTE_BASE Size (bytes): 128 */
 206:.\Generated_Source\PSoC5/cyfitter_cfg.c **** #define BS_UDBSWITCH_1_2_VAL ((const uint8 CYFAR *)0x48000670u)
 207:.\Generated_Source\PSoC5/cyfitter_cfg.c **** 
 208:.\Generated_Source\PSoC5/cyfitter_cfg.c **** /* UDB_2_2_HV_ROUTING Address: CYDEV_UCFG_B0_P3_ROUTE_BASE + 0x00000080u Size (bytes): 128 */
 209:.\Generated_Source\PSoC5/cyfitter_cfg.c **** #define BS_UDB_2_2_HV_ROUTING_VAL ((const uint8 CYFAR *)0x480006F0u)
 210:.\Generated_Source\PSoC5/cyfitter_cfg.c **** 
 211:.\Generated_Source\PSoC5/cyfitter_cfg.c **** /* UDBSWITCH_1_3 Address: CYDEV_UCFG_B0_P2_ROUTE_BASE Size (bytes): 128 */
 212:.\Generated_Source\PSoC5/cyfitter_cfg.c **** #define BS_UDBSWITCH_1_3_VAL ((const uint8 CYFAR *)0x48000770u)
 213:.\Generated_Source\PSoC5/cyfitter_cfg.c **** 
 214:.\Generated_Source\PSoC5/cyfitter_cfg.c **** /* UDB_2_3_HV_ROUTING Address: CYDEV_UCFG_B0_P2_ROUTE_BASE + 0x00000080u Size (bytes): 128 */
 215:.\Generated_Source\PSoC5/cyfitter_cfg.c **** #define BS_UDB_2_3_HV_ROUTING_VAL ((const uint8 CYFAR *)0x480007F0u)
 216:.\Generated_Source\PSoC5/cyfitter_cfg.c **** 
 217:.\Generated_Source\PSoC5/cyfitter_cfg.c **** /* UDB_2_4_HV_ROUTING Address: CYDEV_UCFG_B0_P1_ROUTE_BASE + 0x00000080u Size (bytes): 128 */
 218:.\Generated_Source\PSoC5/cyfitter_cfg.c **** #define BS_UDB_2_4_HV_ROUTING_VAL ((const uint8 CYFAR *)0x48000870u)
 219:.\Generated_Source\PSoC5/cyfitter_cfg.c **** 
 220:.\Generated_Source\PSoC5/cyfitter_cfg.c **** /* DSI3_0_HV_ROUTING Address: CYDEV_UCFG_DSI9_BASE + 0x00000080u Size (bytes): 128 */
 221:.\Generated_Source\PSoC5/cyfitter_cfg.c **** #define BS_DSI3_0_HV_ROUTING_VAL ((const uint8 CYFAR *)0x480008F0u)
 222:.\Generated_Source\PSoC5/cyfitter_cfg.c **** 
 223:.\Generated_Source\PSoC5/cyfitter_cfg.c **** /* DSI3_1_HV_ROUTING Address: CYDEV_UCFG_DSI8_BASE + 0x00000080u Size (bytes): 128 */
 224:.\Generated_Source\PSoC5/cyfitter_cfg.c **** #define BS_DSI3_1_HV_ROUTING_VAL ((const uint8 CYFAR *)0x48000970u)
 225:.\Generated_Source\PSoC5/cyfitter_cfg.c **** 
 226:.\Generated_Source\PSoC5/cyfitter_cfg.c **** /* DSI3_2_HV_ROUTING Address: CYDEV_UCFG_DSI3_BASE + 0x00000080u Size (bytes): 128 */
 227:.\Generated_Source\PSoC5/cyfitter_cfg.c **** #define BS_DSI3_2_HV_ROUTING_VAL ((const uint8 CYFAR *)0x480009F0u)
 228:.\Generated_Source\PSoC5/cyfitter_cfg.c **** 
 229:.\Generated_Source\PSoC5/cyfitter_cfg.c **** /* DSI3_3_HV_ROUTING Address: CYDEV_UCFG_DSI2_BASE + 0x00000080u Size (bytes): 128 */
 230:.\Generated_Source\PSoC5/cyfitter_cfg.c **** #define BS_DSI3_3_HV_ROUTING_VAL ((const uint8 CYFAR *)0x48000A70u)
 231:.\Generated_Source\PSoC5/cyfitter_cfg.c **** 
 232:.\Generated_Source\PSoC5/cyfitter_cfg.c **** /* DSISWITCH_1_4 Address: CYDEV_UCFG_DSI1_BASE Size (bytes): 128 */
 233:.\Generated_Source\PSoC5/cyfitter_cfg.c **** #define BS_DSISWITCH_1_4_VAL ((const uint8 CYFAR *)0x48000AF0u)
 234:.\Generated_Source\PSoC5/cyfitter_cfg.c **** 
 235:.\Generated_Source\PSoC5/cyfitter_cfg.c **** /* DSI3_4_HV_ROUTING Address: CYDEV_UCFG_DSI1_BASE + 0x00000080u Size (bytes): 128 */
 236:.\Generated_Source\PSoC5/cyfitter_cfg.c **** #define BS_DSI3_4_HV_ROUTING_VAL ((const uint8 CYFAR *)0x48000B70u)
 237:.\Generated_Source\PSoC5/cyfitter_cfg.c **** 
 238:.\Generated_Source\PSoC5/cyfitter_cfg.c **** /* DSISWITCH_1_5 Address: CYDEV_UCFG_DSI0_BASE Size (bytes): 128 */
 239:.\Generated_Source\PSoC5/cyfitter_cfg.c **** #define BS_DSISWITCH_1_5_VAL ((const uint8 CYFAR *)0x48000BF0u)
 240:.\Generated_Source\PSoC5/cyfitter_cfg.c **** 
 241:.\Generated_Source\PSoC5/cyfitter_cfg.c **** /* DSI3_5_HV_ROUTING Address: CYDEV_UCFG_DSI0_BASE + 0x00000080u Size (bytes): 128 */
 242:.\Generated_Source\PSoC5/cyfitter_cfg.c **** #define BS_DSI3_5_HV_ROUTING_VAL ((const uint8 CYFAR *)0x48000C70u)
 243:.\Generated_Source\PSoC5/cyfitter_cfg.c **** 
 244:.\Generated_Source\PSoC5/cyfitter_cfg.c **** /* IOPINS0_0 Address: CYREG_PRT0_DM0 Size (bytes): 8 */
 245:.\Generated_Source\PSoC5/cyfitter_cfg.c **** #define BS_IOPINS0_0_VAL ((const uint8 CYFAR *)0x48000CF0u)
 246:.\Generated_Source\PSoC5/cyfitter_cfg.c **** 
 247:.\Generated_Source\PSoC5/cyfitter_cfg.c **** /* IOPINS0_2 Address: CYREG_PRT2_DM0 Size (bytes): 8 */
 248:.\Generated_Source\PSoC5/cyfitter_cfg.c **** #define BS_IOPINS0_2_VAL ((const uint8 CYFAR *)0x48000CF8u)
 249:.\Generated_Source\PSoC5/cyfitter_cfg.c **** 
 250:.\Generated_Source\PSoC5/cyfitter_cfg.c **** 
 251:.\Generated_Source\PSoC5/cyfitter_cfg.c **** /*******************************************************************************
 252:.\Generated_Source\PSoC5/cyfitter_cfg.c **** * Function Name: cfg_dma_init
 253:.\Generated_Source\PSoC5/cyfitter_cfg.c **** ********************************************************************************
 254:.\Generated_Source\PSoC5/cyfitter_cfg.c **** * Summary:
 255:.\Generated_Source\PSoC5/cyfitter_cfg.c **** *  This function is used to copy device configuration data from constant values
 256:.\Generated_Source\PSoC5/cyfitter_cfg.c **** *  stored in memory into the proper chip configuration registers using DMA.  It
 257:.\Generated_Source\PSoC5/cyfitter_cfg.c **** *  pulls data out of the CFG_TD_LISTs to know exactly how/what to configure.
 258:.\Generated_Source\PSoC5/cyfitter_cfg.c **** *
 259:.\Generated_Source\PSoC5/cyfitter_cfg.c **** * Parameters:  
ARM GAS  C:\Users\jthem\AppData\Local\Temp\ccilLXgB.s 			page 6


 260:.\Generated_Source\PSoC5/cyfitter_cfg.c **** *   void
 261:.\Generated_Source\PSoC5/cyfitter_cfg.c **** *
 262:.\Generated_Source\PSoC5/cyfitter_cfg.c **** * Return:
 263:.\Generated_Source\PSoC5/cyfitter_cfg.c **** *   void
 264:.\Generated_Source\PSoC5/cyfitter_cfg.c **** *
 265:.\Generated_Source\PSoC5/cyfitter_cfg.c **** *******************************************************************************/
 266:.\Generated_Source\PSoC5/cyfitter_cfg.c **** static void cfg_dma_init(void);
 267:.\Generated_Source\PSoC5/cyfitter_cfg.c **** static void cfg_dma_init(void)
 268:.\Generated_Source\PSoC5/cyfitter_cfg.c **** {
 269:.\Generated_Source\PSoC5/cyfitter_cfg.c **** 	/* TD structure for little-endian systems. Does not require endian swap */
 270:.\Generated_Source\PSoC5/cyfitter_cfg.c **** 	CYPACKED struct td_t {
 271:.\Generated_Source\PSoC5/cyfitter_cfg.c **** 		uint16 size;
 272:.\Generated_Source\PSoC5/cyfitter_cfg.c **** 		uint8 next_td_ptr;
 273:.\Generated_Source\PSoC5/cyfitter_cfg.c **** 		uint8 flags;
 274:.\Generated_Source\PSoC5/cyfitter_cfg.c **** 		uint16 src;
 275:.\Generated_Source\PSoC5/cyfitter_cfg.c **** 		uint16 dest;
 276:.\Generated_Source\PSoC5/cyfitter_cfg.c **** 	} CYPACKED_ATTR;
 277:.\Generated_Source\PSoC5/cyfitter_cfg.c **** 
 278:.\Generated_Source\PSoC5/cyfitter_cfg.c **** 	/* PHUB_CH1_CFGMEM_CFG0/1 initialization data */
 279:.\Generated_Source\PSoC5/cyfitter_cfg.c **** 	DMAINITSEC static const uint8 CYCODE CH1_ADDR_DATA0[] = { 0x01u, 0x00u, 0x00u, 0x00u, 0x00u, 0x20u
 280:.\Generated_Source\PSoC5/cyfitter_cfg.c **** 
 281:.\Generated_Source\PSoC5/cyfitter_cfg.c **** 	/* PHUB_CH2_CFGMEM_CFG0/1 initialization data */
 282:.\Generated_Source\PSoC5/cyfitter_cfg.c **** 	DMAINITSEC static const uint8 CYCODE CH2_ADDR_DATA0[] = { 0x01u, 0x00u, 0x00u, 0x00u, 0x00u, 0x20u
 283:.\Generated_Source\PSoC5/cyfitter_cfg.c **** 
 284:.\Generated_Source\PSoC5/cyfitter_cfg.c **** 	/* PHUB_CH5_CFGMEM_CFG0/1 initialization data */
 285:.\Generated_Source\PSoC5/cyfitter_cfg.c **** 	DMAINITSEC static const uint8 CYCODE CH5_ADDR_DATA0[] = { 0x01u, 0x00u, 0x00u, 0x00u, 0x00u, 0x48u
 286:.\Generated_Source\PSoC5/cyfitter_cfg.c **** 
 287:.\Generated_Source\PSoC5/cyfitter_cfg.c **** 	/* PHUB_CH6_CFGMEM_CFG0/1 initialization data */
 288:.\Generated_Source\PSoC5/cyfitter_cfg.c **** 	DMAINITSEC static const uint8 CYCODE CH6_ADDR_DATA0[] = { 0x01u, 0x00u, 0x00u, 0x00u, 0x00u, 0x48u
 289:.\Generated_Source\PSoC5/cyfitter_cfg.c **** 
 290:.\Generated_Source\PSoC5/cyfitter_cfg.c **** 	/* Initialization data for each DMA channel's TD registers */
 291:.\Generated_Source\PSoC5/cyfitter_cfg.c **** 	DMAINITSEC static const uint8 CYCODE DMA_TD_START_CMD[] = { 0x01u, 0x00u, 0x00u, 0x00u, 0x01u };
 292:.\Generated_Source\PSoC5/cyfitter_cfg.c **** 
 293:.\Generated_Source\PSoC5/cyfitter_cfg.c **** 	CYALIGNED static uint32 CYXDATA DMA_ZERO_VAL;
 294:.\Generated_Source\PSoC5/cyfitter_cfg.c **** 
 295:.\Generated_Source\PSoC5/cyfitter_cfg.c **** 	/* This table holds all of the initialization data necessary for the DMA
 296:.\Generated_Source\PSoC5/cyfitter_cfg.c **** 	   process to transfer data from the source location to the destination. */
 297:.\Generated_Source\PSoC5/cyfitter_cfg.c **** 	/* Source addresses can be relocated, but only when in 32bit addresses.
 298:.\Generated_Source\PSoC5/cyfitter_cfg.c **** 	   Because the standard TD table only has 16bit addresses, we generate a
 299:.\Generated_Source\PSoC5/cyfitter_cfg.c **** 	   separate CFG_TD_ADDR table for the source addresses that supports 32bit
 300:.\Generated_Source\PSoC5/cyfitter_cfg.c **** 	   addresses. */
 301:.\Generated_Source\PSoC5/cyfitter_cfg.c **** 	DMAINITSEC static const struct td_t CYCODE CFG_TD_LIST0[] = {
 302:.\Generated_Source\PSoC5/cyfitter_cfg.c **** 		/* Size, Next, Flags, Source, Destination */
 303:.\Generated_Source\PSoC5/cyfitter_cfg.c **** 		{ 8u, 0x02u, 0x23u, (uint16)(uint32)(0u), (uint16)(CYREG_PHUB_CFGMEM1_CFG0) },	/* TD 1 */
 304:.\Generated_Source\PSoC5/cyfitter_cfg.c **** 		{ 8u, 0x03u, 0x23u, (uint16)(uint32)(0u), (uint16)(CYREG_PHUB_CFGMEM2_CFG0) },	/* TD 2 */
 305:.\Generated_Source\PSoC5/cyfitter_cfg.c **** 		{ 8u, 0x04u, 0x23u, (uint16)(uint32)(0u), (uint16)(CYREG_PHUB_CFGMEM5_CFG0) },	/* TD 3 */
 306:.\Generated_Source\PSoC5/cyfitter_cfg.c **** 		{ 8u, 0x05u, 0x23u, (uint16)(uint32)(0u), (uint16)(CYREG_PHUB_CFGMEM6_CFG0) },	/* TD 4 */
 307:.\Generated_Source\PSoC5/cyfitter_cfg.c **** 		{ 5u, 0x06u, 0x23u, (uint16)(uint32)(0u), (uint16)(CYREG_PHUB_CH1_BASIC_CFG) },	/* TD 5 */
 308:.\Generated_Source\PSoC5/cyfitter_cfg.c **** 		{ 5u, 0x07u, 0x23u, (uint16)(uint32)(0u), (uint16)(CYREG_PHUB_CH2_BASIC_CFG) },	/* TD 6 */
 309:.\Generated_Source\PSoC5/cyfitter_cfg.c **** 		{ 5u, 0x08u, 0x23u, (uint16)(uint32)(0u), (uint16)(CYREG_PHUB_CH5_BASIC_CFG) },	/* TD 7 */
 310:.\Generated_Source\PSoC5/cyfitter_cfg.c **** 		{ 5u, 0xFEu, 0x23u, (uint16)(uint32)(0u), (uint16)(CYREG_PHUB_CH6_BASIC_CFG) },	/* TD 8 */
 311:.\Generated_Source\PSoC5/cyfitter_cfg.c **** 		{ 16u, 0x0Au, 0x22u, (uint16)(uint32)(0u), (uint16)(CYREG_PRT1_DR) },	/* TD 9 */
 312:.\Generated_Source\PSoC5/cyfitter_cfg.c **** 		{ 64u, 0x0Bu, 0x22u, (uint16)(uint32)(0u), (uint16)(CYREG_PRT3_DR) },	/* TD 10 */
 313:.\Generated_Source\PSoC5/cyfitter_cfg.c **** 		{ 16u, 0x0Cu, 0x22u, (uint16)(uint32)(0u), (uint16)(CYREG_PRT12_DR) },	/* TD 11 */
 314:.\Generated_Source\PSoC5/cyfitter_cfg.c **** 		{ 16u, 0xFEu, 0x22u, (uint16)(uint32)(0u), (uint16)(CYREG_PRT15_DR) },	/* TD 12 */
 315:.\Generated_Source\PSoC5/cyfitter_cfg.c **** 		{ 896u, 0x0Eu, 0x22u, (uint16)(uint32)(0u), (uint16)(CYDEV_UCFG_B0_P0_U0_BASE) },	/* TD 13 */
 316:.\Generated_Source\PSoC5/cyfitter_cfg.c **** 		{ 2048u, 0x0Fu, 0x22u, (uint16)(uint32)(0u), (uint16)(CYDEV_UCFG_B0_P4_U0_BASE) },	/* TD 14 */
ARM GAS  C:\Users\jthem\AppData\Local\Temp\ccilLXgB.s 			page 7


 317:.\Generated_Source\PSoC5/cyfitter_cfg.c **** 		{ 1024u, 0x10u, 0x22u, (uint16)(uint32)(0u), (uint16)(CYDEV_UCFG_B1_P4_U0_BASE) },	/* TD 15 */
 318:.\Generated_Source\PSoC5/cyfitter_cfg.c **** 		{ 128u, 0x11u, 0x22u, (uint16)(uint32)(0u), (uint16)(CYDEV_UCFG_DSI2_BASE) },	/* TD 16 */
 319:.\Generated_Source\PSoC5/cyfitter_cfg.c **** 		{ 128u, 0x12u, 0x22u, (uint16)(uint32)(0u), (uint16)(CYDEV_UCFG_DSI3_BASE) },	/* TD 17 */
 320:.\Generated_Source\PSoC5/cyfitter_cfg.c **** 		{ 1152u, 0x13u, 0x22u, (uint16)(uint32)(0u), (uint16)(CYDEV_UCFG_DSI4_BASE) },	/* TD 18 */
 321:.\Generated_Source\PSoC5/cyfitter_cfg.c **** 		{ 128u, 0x14u, 0x22u, (uint16)(uint32)(0u), (uint16)(CYDEV_UCFG_DSI9_BASE) },	/* TD 19 */
 322:.\Generated_Source\PSoC5/cyfitter_cfg.c **** 		{ 512u, 0xFEu, 0x22u, (uint16)(uint32)(0u), (uint16)(CYDEV_UCFG_DSI12_BASE) },	/* TD 20 */
 323:.\Generated_Source\PSoC5/cyfitter_cfg.c **** 		{ 7u, 0x16u, 0x23u, (uint16)(uint32)(0u), (uint16)(CYDEV_PRTDSI_PRT0_BASE) },	/* TD 21 */
 324:.\Generated_Source\PSoC5/cyfitter_cfg.c **** 		{ 32u, 0x17u, 0x23u, (uint16)(uint32)(0u), (uint16)(CYDEV_UWRK_UWRK8_B0_BASE + 0x00000070u) },	/*
 325:.\Generated_Source\PSoC5/cyfitter_cfg.c **** 		{ 32u, 0xFEu, 0x23u, (uint16)(uint32)(0u), (uint16)(CYDEV_UWRK_UWRK8_B1_BASE + 0x00000070u) },	/*
 326:.\Generated_Source\PSoC5/cyfitter_cfg.c **** 		{ 8u, 0x19u, 0x23u, (uint16)(uint32)(0u), (uint16)(CYREG_IDMUX_IRQ_CTL0) },	/* TD 24 */
 327:.\Generated_Source\PSoC5/cyfitter_cfg.c **** 		{ 128u, 0x1Au, 0x23u, (uint16)(uint32)(0u), (uint16)(CYDEV_UCFG_B0_P2_U0_BASE) },	/* TD 25 */
 328:.\Generated_Source\PSoC5/cyfitter_cfg.c **** 		{ 128u, 0x1Bu, 0x23u, (uint16)(uint32)(0u), (uint16)(CYDEV_UCFG_B0_P2_U1_BASE) },	/* TD 26 */
 329:.\Generated_Source\PSoC5/cyfitter_cfg.c **** 		{ 128u, 0x1Cu, 0x23u, (uint16)(uint32)(0u), (uint16)(CYDEV_UCFG_B0_P3_U0_BASE) },	/* TD 27 */
 330:.\Generated_Source\PSoC5/cyfitter_cfg.c **** 		{ 128u, 0x1Du, 0x23u, (uint16)(uint32)(0u), (uint16)(CYDEV_UCFG_B0_P3_U1_BASE) },	/* TD 28 */
 331:.\Generated_Source\PSoC5/cyfitter_cfg.c **** 		{ 128u, 0x1Eu, 0x23u, (uint16)(uint32)(0u), (uint16)(CYDEV_UCFG_B1_P2_U0_BASE) },	/* TD 29 */
 332:.\Generated_Source\PSoC5/cyfitter_cfg.c **** 		{ 128u, 0x1Fu, 0x23u, (uint16)(uint32)(0u), (uint16)(CYDEV_UCFG_B1_P2_U1_BASE) },	/* TD 30 */
 333:.\Generated_Source\PSoC5/cyfitter_cfg.c **** 		{ 128u, 0x20u, 0x23u, (uint16)(uint32)(0u), (uint16)(CYDEV_UCFG_B1_P3_U0_BASE) },	/* TD 31 */
 334:.\Generated_Source\PSoC5/cyfitter_cfg.c **** 		{ 128u, 0x21u, 0x23u, (uint16)(uint32)(0u), (uint16)(CYDEV_UCFG_B1_P3_U1_BASE) },	/* TD 32 */
 335:.\Generated_Source\PSoC5/cyfitter_cfg.c **** 		{ 16u, 0x22u, 0x23u, (uint16)(uint32)(0u), (uint16)(CYREG_BCTL1_MDCLK_EN) },	/* TD 33 */
 336:.\Generated_Source\PSoC5/cyfitter_cfg.c **** 		{ 16u, 0x23u, 0x23u, (uint16)(uint32)(0u), (uint16)(CYREG_BCTL0_MDCLK_EN) },	/* TD 34 */
 337:.\Generated_Source\PSoC5/cyfitter_cfg.c **** 		{ 128u, 0x24u, 0x23u, (uint16)(uint32)(0u), (uint16)(CYDEV_UCFG_B1_P2_ROUTE_BASE) },	/* TD 35 */
 338:.\Generated_Source\PSoC5/cyfitter_cfg.c **** 		{ 128u, 0x25u, 0x23u, (uint16)(uint32)(0u), (uint16)(CYDEV_UCFG_B1_P2_ROUTE_BASE + 0x00000080u) }
 339:.\Generated_Source\PSoC5/cyfitter_cfg.c **** 		{ 128u, 0x26u, 0x23u, (uint16)(uint32)(0u), (uint16)(CYDEV_UCFG_B1_P3_ROUTE_BASE) },	/* TD 37 */
 340:.\Generated_Source\PSoC5/cyfitter_cfg.c **** 		{ 128u, 0x27u, 0x23u, (uint16)(uint32)(0u), (uint16)(CYDEV_UCFG_B1_P3_ROUTE_BASE + 0x00000080u) }
 341:.\Generated_Source\PSoC5/cyfitter_cfg.c **** 		{ 128u, 0x28u, 0x23u, (uint16)(uint32)(0u), (uint16)(CYDEV_UCFG_B0_P3_ROUTE_BASE) },	/* TD 39 */
 342:.\Generated_Source\PSoC5/cyfitter_cfg.c **** 		{ 128u, 0x29u, 0x23u, (uint16)(uint32)(0u), (uint16)(CYDEV_UCFG_B0_P3_ROUTE_BASE + 0x00000080u) }
 343:.\Generated_Source\PSoC5/cyfitter_cfg.c **** 		{ 128u, 0x2Au, 0x23u, (uint16)(uint32)(0u), (uint16)(CYDEV_UCFG_B0_P2_ROUTE_BASE) },	/* TD 41 */
 344:.\Generated_Source\PSoC5/cyfitter_cfg.c **** 		{ 128u, 0x2Bu, 0x23u, (uint16)(uint32)(0u), (uint16)(CYDEV_UCFG_B0_P2_ROUTE_BASE + 0x00000080u) }
 345:.\Generated_Source\PSoC5/cyfitter_cfg.c **** 		{ 128u, 0x2Cu, 0x23u, (uint16)(uint32)(0u), (uint16)(CYDEV_UCFG_B0_P1_ROUTE_BASE + 0x00000080u) }
 346:.\Generated_Source\PSoC5/cyfitter_cfg.c **** 		{ 128u, 0x2Du, 0x23u, (uint16)(uint32)(0u), (uint16)(CYDEV_UCFG_DSI9_BASE + 0x00000080u) },	/* TD
 347:.\Generated_Source\PSoC5/cyfitter_cfg.c **** 		{ 128u, 0x2Eu, 0x23u, (uint16)(uint32)(0u), (uint16)(CYDEV_UCFG_DSI8_BASE + 0x00000080u) },	/* TD
 348:.\Generated_Source\PSoC5/cyfitter_cfg.c **** 		{ 128u, 0x2Fu, 0x23u, (uint16)(uint32)(0u), (uint16)(CYDEV_UCFG_DSI3_BASE + 0x00000080u) },	/* TD
 349:.\Generated_Source\PSoC5/cyfitter_cfg.c **** 		{ 128u, 0x30u, 0x23u, (uint16)(uint32)(0u), (uint16)(CYDEV_UCFG_DSI2_BASE + 0x00000080u) },	/* TD
 350:.\Generated_Source\PSoC5/cyfitter_cfg.c **** 		{ 128u, 0x31u, 0x23u, (uint16)(uint32)(0u), (uint16)(CYDEV_UCFG_DSI1_BASE) },	/* TD 48 */
 351:.\Generated_Source\PSoC5/cyfitter_cfg.c **** 		{ 128u, 0x32u, 0x23u, (uint16)(uint32)(0u), (uint16)(CYDEV_UCFG_DSI1_BASE + 0x00000080u) },	/* TD
 352:.\Generated_Source\PSoC5/cyfitter_cfg.c **** 		{ 128u, 0x33u, 0x23u, (uint16)(uint32)(0u), (uint16)(CYDEV_UCFG_DSI0_BASE) },	/* TD 50 */
 353:.\Generated_Source\PSoC5/cyfitter_cfg.c **** 		{ 128u, 0xFEu, 0x23u, (uint16)(uint32)(0u), (uint16)(CYDEV_UCFG_DSI0_BASE + 0x00000080u) },	/* TD
 354:.\Generated_Source\PSoC5/cyfitter_cfg.c **** 	};
 355:.\Generated_Source\PSoC5/cyfitter_cfg.c **** 
 356:.\Generated_Source\PSoC5/cyfitter_cfg.c **** 	/* Source addresses can be relocated, but only when in 32bit addresses.
 357:.\Generated_Source\PSoC5/cyfitter_cfg.c **** 	   Because the standard TD table only has 16bit addresses, we generate a
 358:.\Generated_Source\PSoC5/cyfitter_cfg.c **** 	   separate table for the source addresses that does use 32bit addresses. This
 359:.\Generated_Source\PSoC5/cyfitter_cfg.c **** 	   table will be re-merged with the corresponding CFG_TD_LIST table during
 360:.\Generated_Source\PSoC5/cyfitter_cfg.c **** 	   initialization. */
 361:.\Generated_Source\PSoC5/cyfitter_cfg.c **** 	static const void * const CFG_TD_ADDR0[] = {
 362:.\Generated_Source\PSoC5/cyfitter_cfg.c **** 		(const void *)(CH1_ADDR_DATA0),	/* TD 1 */
 363:.\Generated_Source\PSoC5/cyfitter_cfg.c **** 		(const void *)(CH2_ADDR_DATA0),	/* TD 2 */
 364:.\Generated_Source\PSoC5/cyfitter_cfg.c **** 		(const void *)(CH5_ADDR_DATA0),	/* TD 3 */
 365:.\Generated_Source\PSoC5/cyfitter_cfg.c **** 		(const void *)(CH6_ADDR_DATA0),	/* TD 4 */
 366:.\Generated_Source\PSoC5/cyfitter_cfg.c **** 		(const void *)(DMA_TD_START_CMD),	/* TD 5 */
 367:.\Generated_Source\PSoC5/cyfitter_cfg.c **** 		(const void *)(DMA_TD_START_CMD),	/* TD 6 */
 368:.\Generated_Source\PSoC5/cyfitter_cfg.c **** 		(const void *)(DMA_TD_START_CMD),	/* TD 7 */
 369:.\Generated_Source\PSoC5/cyfitter_cfg.c **** 		(const void *)(DMA_TD_START_CMD),	/* TD 8 */
 370:.\Generated_Source\PSoC5/cyfitter_cfg.c **** 		(const void *)(&DMA_ZERO_VAL),	/* TD 9 */
 371:.\Generated_Source\PSoC5/cyfitter_cfg.c **** 		(const void *)(&DMA_ZERO_VAL),	/* TD 10 */
 372:.\Generated_Source\PSoC5/cyfitter_cfg.c **** 		(const void *)(&DMA_ZERO_VAL),	/* TD 11 */
 373:.\Generated_Source\PSoC5/cyfitter_cfg.c **** 		(const void *)(&DMA_ZERO_VAL),	/* TD 12 */
ARM GAS  C:\Users\jthem\AppData\Local\Temp\ccilLXgB.s 			page 8


 374:.\Generated_Source\PSoC5/cyfitter_cfg.c **** 		(const void *)(&DMA_ZERO_VAL),	/* TD 13 */
 375:.\Generated_Source\PSoC5/cyfitter_cfg.c **** 		(const void *)(&DMA_ZERO_VAL),	/* TD 14 */
 376:.\Generated_Source\PSoC5/cyfitter_cfg.c **** 		(const void *)(&DMA_ZERO_VAL),	/* TD 15 */
 377:.\Generated_Source\PSoC5/cyfitter_cfg.c **** 		(const void *)(&DMA_ZERO_VAL),	/* TD 16 */
 378:.\Generated_Source\PSoC5/cyfitter_cfg.c **** 		(const void *)(&DMA_ZERO_VAL),	/* TD 17 */
 379:.\Generated_Source\PSoC5/cyfitter_cfg.c **** 		(const void *)(&DMA_ZERO_VAL),	/* TD 18 */
 380:.\Generated_Source\PSoC5/cyfitter_cfg.c **** 		(const void *)(&DMA_ZERO_VAL),	/* TD 19 */
 381:.\Generated_Source\PSoC5/cyfitter_cfg.c **** 		(const void *)(&DMA_ZERO_VAL),	/* TD 20 */
 382:.\Generated_Source\PSoC5/cyfitter_cfg.c **** 		(const void *)(BS_IOPORT_0_VAL),	/* TD 21 */
 383:.\Generated_Source\PSoC5/cyfitter_cfg.c **** 		(const void *)(BS_UWRK_B0_WRK_STATCTL_BITS_VAL),	/* TD 22 */
 384:.\Generated_Source\PSoC5/cyfitter_cfg.c **** 		(const void *)(BS_UWRK_B1_WRK_STATCTL_BITS_VAL),	/* TD 23 */
 385:.\Generated_Source\PSoC5/cyfitter_cfg.c **** 		(const void *)(BS_IDMUX_IRQ_VAL),	/* TD 24 */
 386:.\Generated_Source\PSoC5/cyfitter_cfg.c **** 		(const void *)(BS_UDB_1_3_0_CONFIG_VAL),	/* TD 25 */
 387:.\Generated_Source\PSoC5/cyfitter_cfg.c **** 		(const void *)(BS_UDB_1_3_1_CONFIG_VAL),	/* TD 26 */
 388:.\Generated_Source\PSoC5/cyfitter_cfg.c **** 		(const void *)(BS_UDB_1_2_1_CONFIG_VAL),	/* TD 27 */
 389:.\Generated_Source\PSoC5/cyfitter_cfg.c **** 		(const void *)(BS_UDB_1_2_0_CONFIG_VAL),	/* TD 28 */
 390:.\Generated_Source\PSoC5/cyfitter_cfg.c **** 		(const void *)(BS_UDB_1_0_0_CONFIG_VAL),	/* TD 29 */
 391:.\Generated_Source\PSoC5/cyfitter_cfg.c **** 		(const void *)(BS_UDB_1_0_1_CONFIG_VAL),	/* TD 30 */
 392:.\Generated_Source\PSoC5/cyfitter_cfg.c **** 		(const void *)(BS_UDB_1_1_1_CONFIG_VAL),	/* TD 31 */
 393:.\Generated_Source\PSoC5/cyfitter_cfg.c **** 		(const void *)(BS_UDB_1_1_0_CONFIG_VAL),	/* TD 32 */
 394:.\Generated_Source\PSoC5/cyfitter_cfg.c **** 		(const void *)(BS_UCFG_BCTL1_VAL),	/* TD 33 */
 395:.\Generated_Source\PSoC5/cyfitter_cfg.c **** 		(const void *)(BS_UCFG_BCTL0_VAL),	/* TD 34 */
 396:.\Generated_Source\PSoC5/cyfitter_cfg.c **** 		(const void *)(BS_UDBSWITCH_1_0_VAL),	/* TD 35 */
 397:.\Generated_Source\PSoC5/cyfitter_cfg.c **** 		(const void *)(BS_UDB_2_0_HV_ROUTING_VAL),	/* TD 36 */
 398:.\Generated_Source\PSoC5/cyfitter_cfg.c **** 		(const void *)(BS_UDBSWITCH_1_1_VAL),	/* TD 37 */
 399:.\Generated_Source\PSoC5/cyfitter_cfg.c **** 		(const void *)(BS_UDB_2_1_HV_ROUTING_VAL),	/* TD 38 */
 400:.\Generated_Source\PSoC5/cyfitter_cfg.c **** 		(const void *)(BS_UDBSWITCH_1_2_VAL),	/* TD 39 */
 401:.\Generated_Source\PSoC5/cyfitter_cfg.c **** 		(const void *)(BS_UDB_2_2_HV_ROUTING_VAL),	/* TD 40 */
 402:.\Generated_Source\PSoC5/cyfitter_cfg.c **** 		(const void *)(BS_UDBSWITCH_1_3_VAL),	/* TD 41 */
 403:.\Generated_Source\PSoC5/cyfitter_cfg.c **** 		(const void *)(BS_UDB_2_3_HV_ROUTING_VAL),	/* TD 42 */
 404:.\Generated_Source\PSoC5/cyfitter_cfg.c **** 		(const void *)(BS_UDB_2_4_HV_ROUTING_VAL),	/* TD 43 */
 405:.\Generated_Source\PSoC5/cyfitter_cfg.c **** 		(const void *)(BS_DSI3_0_HV_ROUTING_VAL),	/* TD 44 */
 406:.\Generated_Source\PSoC5/cyfitter_cfg.c **** 		(const void *)(BS_DSI3_1_HV_ROUTING_VAL),	/* TD 45 */
 407:.\Generated_Source\PSoC5/cyfitter_cfg.c **** 		(const void *)(BS_DSI3_2_HV_ROUTING_VAL),	/* TD 46 */
 408:.\Generated_Source\PSoC5/cyfitter_cfg.c **** 		(const void *)(BS_DSI3_3_HV_ROUTING_VAL),	/* TD 47 */
 409:.\Generated_Source\PSoC5/cyfitter_cfg.c **** 		(const void *)(BS_DSISWITCH_1_4_VAL),	/* TD 48 */
 410:.\Generated_Source\PSoC5/cyfitter_cfg.c **** 		(const void *)(BS_DSI3_4_HV_ROUTING_VAL),	/* TD 49 */
 411:.\Generated_Source\PSoC5/cyfitter_cfg.c **** 		(const void *)(BS_DSISWITCH_1_5_VAL),	/* TD 50 */
 412:.\Generated_Source\PSoC5/cyfitter_cfg.c **** 		(const void *)(BS_DSI3_5_HV_ROUTING_VAL),	/* TD 51 */
 413:.\Generated_Source\PSoC5/cyfitter_cfg.c **** 	};
 414:.\Generated_Source\PSoC5/cyfitter_cfg.c **** 
 415:.\Generated_Source\PSoC5/cyfitter_cfg.c **** 
 416:.\Generated_Source\PSoC5/cyfitter_cfg.c **** 	uint32 i;
 417:.\Generated_Source\PSoC5/cyfitter_cfg.c **** 
 418:.\Generated_Source\PSoC5/cyfitter_cfg.c **** 	DMA_ZERO_VAL = 0u;
 419:.\Generated_Source\PSoC5/cyfitter_cfg.c **** 	CY_SET_REG8((void CYXDATA *)CYREG_PHUB_CFGMEM0_CFG0, 0x10u);	/* set burstcnt */
 420:.\Generated_Source\PSoC5/cyfitter_cfg.c **** 	CY_SET_REG8((void CYXDATA *)CYREG_PHUB_CH0_BASIC_CFG, 0x01u);	/* enable ch0 */
 421:.\Generated_Source\PSoC5/cyfitter_cfg.c **** 	CY_SET_REG8((void CYXDATA *)(CYREG_PHUB_CH0_BASIC_STATUS+1u), 0x00u);	/* set first TD to 0 */
 422:.\Generated_Source\PSoC5/cyfitter_cfg.c **** 	CY_SET_REG16((void CYXDATA *)CYREG_PHUB_TDMEM0_ORIG_TD0, 51u*8u);	/* transfer size */
 423:.\Generated_Source\PSoC5/cyfitter_cfg.c **** 	CY_SET_REG8((void CYXDATA *)(CYREG_PHUB_TDMEM0_ORIG_TD0+2u), 0x01u);	/* set next TD to 1 */
 424:.\Generated_Source\PSoC5/cyfitter_cfg.c **** 	CY_SET_REG8((void CYXDATA *)(CYREG_PHUB_TDMEM0_ORIG_TD0+3u), 0x03u);	/* set TD flags */
 425:.\Generated_Source\PSoC5/cyfitter_cfg.c **** 	CY_SET_REG16((void CYXDATA *)CYREG_PHUB_TDMEM0_ORIG_TD1, (uint16)((uint32)CFG_TD_LIST0 & 0x0000FFF
 426:.\Generated_Source\PSoC5/cyfitter_cfg.c **** 	CY_SET_REG16((void CYXDATA *)(CYREG_PHUB_TDMEM0_ORIG_TD1+2u), CYDEV_PHUB_TDMEM1_BASE);	/* set td0'
 427:.\Generated_Source\PSoC5/cyfitter_cfg.c **** 	CY_SET_REG16((void CYXDATA *)CYREG_PHUB_CFGMEM0_CFG1, (uint16)(CYDEV_FLASH_BASE >> 16));	/* set ch
 428:.\Generated_Source\PSoC5/cyfitter_cfg.c **** 	CY_SET_REG16((void CYXDATA *)(CYREG_PHUB_CFGMEM0_CFG1+2u), (uint16)(CYDEV_PHUB_TDMEM1_BASE >> 16))
 429:.\Generated_Source\PSoC5/cyfitter_cfg.c **** 	CY_SET_REG8((void CYXDATA *)(CYREG_PHUB_CH1_BASIC_STATUS+1u), 0x09u);	/* ch1 first TD: 9 */
 430:.\Generated_Source\PSoC5/cyfitter_cfg.c **** 	CY_SET_REG8((void CYXDATA *)(CYREG_PHUB_CH2_BASIC_STATUS+1u), 0x0Du);	/* ch2 first TD: 13 */
ARM GAS  C:\Users\jthem\AppData\Local\Temp\ccilLXgB.s 			page 9


 431:.\Generated_Source\PSoC5/cyfitter_cfg.c **** 	CY_SET_REG8((void CYXDATA *)(CYREG_PHUB_CH5_BASIC_STATUS+1u), 0x15u);	/* ch5 first TD: 21 */
 432:.\Generated_Source\PSoC5/cyfitter_cfg.c **** 	CY_SET_REG8((void CYXDATA *)(CYREG_PHUB_CH6_BASIC_STATUS+1u), 0x18u);	/* ch6 first TD: 24 */
 433:.\Generated_Source\PSoC5/cyfitter_cfg.c **** 
 434:.\Generated_Source\PSoC5/cyfitter_cfg.c **** 	CY_CFG_MEMORY_BARRIER();
 435:.\Generated_Source\PSoC5/cyfitter_cfg.c **** 	CY_SET_REG8((void CYXDATA *)CYREG_PHUB_CH0_ACTION, 0x01u); /* cpu_req */
 436:.\Generated_Source\PSoC5/cyfitter_cfg.c **** 	CY_CFG_MEMORY_BARRIER();
 437:.\Generated_Source\PSoC5/cyfitter_cfg.c **** 
 438:.\Generated_Source\PSoC5/cyfitter_cfg.c **** 	/* Wait for TDs to be copied into TDMEM */
 439:.\Generated_Source\PSoC5/cyfitter_cfg.c **** 	while (CY_GET_REG16((void CYXDATA *)CYREG_PHUB_TDMEM0_ORIG_TD0) != 0u) { }
 440:.\Generated_Source\PSoC5/cyfitter_cfg.c **** 
 441:.\Generated_Source\PSoC5/cyfitter_cfg.c **** 	/* Recombine TD source table (CFG_TD_ADDR0) with full TD table (CFG_TD_LIST0) */
 442:.\Generated_Source\PSoC5/cyfitter_cfg.c **** 	for (i = 0u; i < 51u; i++)
 443:.\Generated_Source\PSoC5/cyfitter_cfg.c **** 	{
 444:.\Generated_Source\PSoC5/cyfitter_cfg.c **** 		CY_SET_REG16((void CYXDATA *)(CYREG_PHUB_TDMEM1_ORIG_TD1 + (sizeof(struct td_t)*i)), (uint16)(uin
 445:.\Generated_Source\PSoC5/cyfitter_cfg.c **** 	}
 446:.\Generated_Source\PSoC5/cyfitter_cfg.c **** 
 447:.\Generated_Source\PSoC5/cyfitter_cfg.c **** 	CY_CFG_MEMORY_BARRIER();
 448:.\Generated_Source\PSoC5/cyfitter_cfg.c **** 	CY_SET_REG8((void CYXDATA *)CYREG_PHUB_CH0_ACTION, 0x01u); /* cpu_req */
 449:.\Generated_Source\PSoC5/cyfitter_cfg.c **** 	CY_CFG_MEMORY_BARRIER();
 450:.\Generated_Source\PSoC5/cyfitter_cfg.c **** 
 451:.\Generated_Source\PSoC5/cyfitter_cfg.c **** 	/* Wait for all DMA transfers to complete */
 452:.\Generated_Source\PSoC5/cyfitter_cfg.c **** 	while(0u != (CY_GET_REG8((void CYXDATA *)CYREG_PHUB_CH0_BASIC_STATUS) & 0x01u)){}
 453:.\Generated_Source\PSoC5/cyfitter_cfg.c **** 	while(0u != (CY_GET_REG8((void CYXDATA *)CYREG_PHUB_CH1_BASIC_STATUS) & 0x01u)){}
 454:.\Generated_Source\PSoC5/cyfitter_cfg.c **** 	while(0u != (CY_GET_REG8((void CYXDATA *)CYREG_PHUB_CH2_BASIC_STATUS) & 0x01u)){}
 455:.\Generated_Source\PSoC5/cyfitter_cfg.c **** 	while(0u != (CY_GET_REG8((void CYXDATA *)CYREG_PHUB_CH5_BASIC_STATUS) & 0x01u)){}
 456:.\Generated_Source\PSoC5/cyfitter_cfg.c **** 	while(0u != (CY_GET_REG8((void CYXDATA *)CYREG_PHUB_CH6_BASIC_STATUS) & 0x01u)){}
 457:.\Generated_Source\PSoC5/cyfitter_cfg.c **** 
 458:.\Generated_Source\PSoC5/cyfitter_cfg.c **** 
 459:.\Generated_Source\PSoC5/cyfitter_cfg.c **** }
 460:.\Generated_Source\PSoC5/cyfitter_cfg.c **** /*******************************************************************************
 461:.\Generated_Source\PSoC5/cyfitter_cfg.c **** * Function Name: ClockSetup
 462:.\Generated_Source\PSoC5/cyfitter_cfg.c **** ********************************************************************************
 463:.\Generated_Source\PSoC5/cyfitter_cfg.c **** *
 464:.\Generated_Source\PSoC5/cyfitter_cfg.c **** * Summary:
 465:.\Generated_Source\PSoC5/cyfitter_cfg.c **** *  Performs the initialization of all of the clocks in the device based on the
 466:.\Generated_Source\PSoC5/cyfitter_cfg.c **** *  settings in the Clock tab of the DWR.  This includes enabling the requested
 467:.\Generated_Source\PSoC5/cyfitter_cfg.c **** *  clocks and setting the necessary dividers to produce the desired frequency. 
 468:.\Generated_Source\PSoC5/cyfitter_cfg.c **** *
 469:.\Generated_Source\PSoC5/cyfitter_cfg.c **** * Parameters:
 470:.\Generated_Source\PSoC5/cyfitter_cfg.c **** *  void
 471:.\Generated_Source\PSoC5/cyfitter_cfg.c **** *
 472:.\Generated_Source\PSoC5/cyfitter_cfg.c **** * Return:
 473:.\Generated_Source\PSoC5/cyfitter_cfg.c **** *  void
 474:.\Generated_Source\PSoC5/cyfitter_cfg.c **** *
 475:.\Generated_Source\PSoC5/cyfitter_cfg.c **** *******************************************************************************/
 476:.\Generated_Source\PSoC5/cyfitter_cfg.c **** static void ClockSetup(void);
 477:.\Generated_Source\PSoC5/cyfitter_cfg.c **** static void ClockSetup(void)
 478:.\Generated_Source\PSoC5/cyfitter_cfg.c **** {
 479:.\Generated_Source\PSoC5/cyfitter_cfg.c **** 	uint32 timeout;
 480:.\Generated_Source\PSoC5/cyfitter_cfg.c **** 	uint8 pllLock;
 481:.\Generated_Source\PSoC5/cyfitter_cfg.c **** 
 482:.\Generated_Source\PSoC5/cyfitter_cfg.c **** 
 483:.\Generated_Source\PSoC5/cyfitter_cfg.c **** 	/* Configure Digital Clocks based on settings from Clock DWR */
 484:.\Generated_Source\PSoC5/cyfitter_cfg.c **** 	CY_SET_XTND_REG16((void CYFAR *)(CYREG_CLKDIST_DCFG0_CFG0), 0x000Bu);
 485:.\Generated_Source\PSoC5/cyfitter_cfg.c **** 	CY_SET_XTND_REG8((void CYFAR *)(CYREG_CLKDIST_DCFG0_CFG0 + 0x2u), 0x18u);
 486:.\Generated_Source\PSoC5/cyfitter_cfg.c **** 
 487:.\Generated_Source\PSoC5/cyfitter_cfg.c **** 	/* Configure ILO based on settings from Clock DWR */
ARM GAS  C:\Users\jthem\AppData\Local\Temp\ccilLXgB.s 			page 10


 488:.\Generated_Source\PSoC5/cyfitter_cfg.c **** 	CY_SET_XTND_REG8((void CYFAR *)(CYREG_SLOWCLK_ILO_CR0), 0x02u);
 489:.\Generated_Source\PSoC5/cyfitter_cfg.c **** 	CY_SET_XTND_REG8((void CYFAR *)(CYREG_CLKDIST_CR), 0x08u);
 490:.\Generated_Source\PSoC5/cyfitter_cfg.c **** 
 491:.\Generated_Source\PSoC5/cyfitter_cfg.c **** 	/* Configure IMO based on settings from Clock DWR */
 492:.\Generated_Source\PSoC5/cyfitter_cfg.c **** 	CY_SET_XTND_REG8((void CYFAR *)(CYREG_FASTCLK_IMO_CR), 0x03u);
 493:.\Generated_Source\PSoC5/cyfitter_cfg.c **** 	CY_SET_XTND_REG8((void CYFAR *)(CYREG_IMO_TR1), (CY_GET_XTND_REG8((void CYFAR *)CYREG_FLSHID_CUST_
 494:.\Generated_Source\PSoC5/cyfitter_cfg.c **** 
 495:.\Generated_Source\PSoC5/cyfitter_cfg.c **** 	/* Configure PLL based on settings from Clock DWR */
 496:.\Generated_Source\PSoC5/cyfitter_cfg.c **** 	CY_SET_XTND_REG16((void CYFAR *)(CYREG_FASTCLK_PLL_P), 0x0008u);
 497:.\Generated_Source\PSoC5/cyfitter_cfg.c **** 	CY_SET_XTND_REG16((void CYFAR *)(CYREG_FASTCLK_PLL_CFG0), 0x1251u);
 498:.\Generated_Source\PSoC5/cyfitter_cfg.c **** 	/* Wait up to 250us for the PLL to lock */
 499:.\Generated_Source\PSoC5/cyfitter_cfg.c **** 	pllLock = 0u;
 500:.\Generated_Source\PSoC5/cyfitter_cfg.c **** 	for (timeout = 250u / 10u; (timeout > 0u) && (pllLock != 0x03u); timeout--)
 501:.\Generated_Source\PSoC5/cyfitter_cfg.c **** 	{ 
 502:.\Generated_Source\PSoC5/cyfitter_cfg.c **** 		pllLock = 0x03u & ((uint8)((uint8)pllLock << 1) | ((CY_GET_XTND_REG8((void CYFAR *)CYREG_FASTCLK_
 503:.\Generated_Source\PSoC5/cyfitter_cfg.c **** 		CyDelayCycles(10u * 48u); /* Delay 10us based on 48MHz clock */
 504:.\Generated_Source\PSoC5/cyfitter_cfg.c **** 	}
 505:.\Generated_Source\PSoC5/cyfitter_cfg.c **** 	/* If we ran out of time the PLL didn't lock so go to the error function */
 506:.\Generated_Source\PSoC5/cyfitter_cfg.c **** 	if (timeout == 0u)
 507:.\Generated_Source\PSoC5/cyfitter_cfg.c **** 	{
 508:.\Generated_Source\PSoC5/cyfitter_cfg.c **** 		CyClockStartupError(CYCLOCKSTART_PLL_ERROR);
 509:.\Generated_Source\PSoC5/cyfitter_cfg.c **** 	}
 510:.\Generated_Source\PSoC5/cyfitter_cfg.c **** 
 511:.\Generated_Source\PSoC5/cyfitter_cfg.c **** 	/* Configure Bus/Master Clock based on settings from Clock DWR */
 512:.\Generated_Source\PSoC5/cyfitter_cfg.c **** 	CY_SET_XTND_REG16((void CYFAR *)(CYREG_CLKDIST_MSTR0), 0x0100u);
 513:.\Generated_Source\PSoC5/cyfitter_cfg.c **** 	CY_SET_XTND_REG8((void CYFAR *)(CYREG_CLKDIST_MSTR0), 0x07u);
 514:.\Generated_Source\PSoC5/cyfitter_cfg.c **** 	CY_SET_XTND_REG8((void CYFAR *)(CYREG_CLKDIST_BCFG0), 0x00u);
 515:.\Generated_Source\PSoC5/cyfitter_cfg.c **** 	CY_SET_XTND_REG8((void CYFAR *)(CYREG_CLKDIST_BCFG2), 0x48u);
 516:.\Generated_Source\PSoC5/cyfitter_cfg.c **** 	CY_SET_XTND_REG8((void CYFAR *)(CYREG_CLKDIST_MSTR0), 0x00u);
 517:.\Generated_Source\PSoC5/cyfitter_cfg.c **** 	CY_SET_XTND_REG8((void CYFAR *)(CYREG_CLKDIST_LD), 0x02u);
 518:.\Generated_Source\PSoC5/cyfitter_cfg.c **** 
 519:.\Generated_Source\PSoC5/cyfitter_cfg.c **** 	CY_SET_XTND_REG8((void CYFAR *)(CYREG_PM_ACT_CFG2), ((CY_GET_XTND_REG8((void CYFAR *)CYREG_PM_ACT_
 520:.\Generated_Source\PSoC5/cyfitter_cfg.c **** }
 521:.\Generated_Source\PSoC5/cyfitter_cfg.c **** 
 522:.\Generated_Source\PSoC5/cyfitter_cfg.c **** 
 523:.\Generated_Source\PSoC5/cyfitter_cfg.c **** /* Analog API Functions */
 524:.\Generated_Source\PSoC5/cyfitter_cfg.c **** 
 525:.\Generated_Source\PSoC5/cyfitter_cfg.c **** 
 526:.\Generated_Source\PSoC5/cyfitter_cfg.c **** /*******************************************************************************
 527:.\Generated_Source\PSoC5/cyfitter_cfg.c **** * Function Name: AnalogSetDefault
 528:.\Generated_Source\PSoC5/cyfitter_cfg.c **** ********************************************************************************
 529:.\Generated_Source\PSoC5/cyfitter_cfg.c **** *
 530:.\Generated_Source\PSoC5/cyfitter_cfg.c **** * Summary:
 531:.\Generated_Source\PSoC5/cyfitter_cfg.c **** *  Sets up the analog portions of the chip to default values based on chip
 532:.\Generated_Source\PSoC5/cyfitter_cfg.c **** *  configuration options from the project.
 533:.\Generated_Source\PSoC5/cyfitter_cfg.c **** *
 534:.\Generated_Source\PSoC5/cyfitter_cfg.c **** * Parameters:
 535:.\Generated_Source\PSoC5/cyfitter_cfg.c **** *  void
 536:.\Generated_Source\PSoC5/cyfitter_cfg.c **** *
 537:.\Generated_Source\PSoC5/cyfitter_cfg.c **** * Return:
 538:.\Generated_Source\PSoC5/cyfitter_cfg.c **** *  void
 539:.\Generated_Source\PSoC5/cyfitter_cfg.c **** *
 540:.\Generated_Source\PSoC5/cyfitter_cfg.c **** *******************************************************************************/
 541:.\Generated_Source\PSoC5/cyfitter_cfg.c **** static void AnalogSetDefault(void);
 542:.\Generated_Source\PSoC5/cyfitter_cfg.c **** static void AnalogSetDefault(void)
 543:.\Generated_Source\PSoC5/cyfitter_cfg.c **** {
 544:.\Generated_Source\PSoC5/cyfitter_cfg.c **** 	uint8 bg_xover_inl_trim = CY_GET_XTND_REG8((void CYFAR *)(CYREG_FLSHID_MFG_CFG_BG_XOVER_INL_TRIM +
ARM GAS  C:\Users\jthem\AppData\Local\Temp\ccilLXgB.s 			page 11


 545:.\Generated_Source\PSoC5/cyfitter_cfg.c **** 	CY_SET_XTND_REG8((void CYFAR *)(CYREG_BG_DFT0), (bg_xover_inl_trim & 0x07u));
 546:.\Generated_Source\PSoC5/cyfitter_cfg.c **** 	CY_SET_XTND_REG8((void CYFAR *)(CYREG_BG_DFT1), ((bg_xover_inl_trim >> 4) & 0x0Fu));
 547:.\Generated_Source\PSoC5/cyfitter_cfg.c **** 	CY_SET_XTND_REG8((void CYFAR *)CYREG_PUMP_CR0, 0x44u);
 548:.\Generated_Source\PSoC5/cyfitter_cfg.c **** }
 549:.\Generated_Source\PSoC5/cyfitter_cfg.c **** 
 550:.\Generated_Source\PSoC5/cyfitter_cfg.c **** 
 551:.\Generated_Source\PSoC5/cyfitter_cfg.c **** /*******************************************************************************
 552:.\Generated_Source\PSoC5/cyfitter_cfg.c **** * Function Name: SetAnalogRoutingPumps
 553:.\Generated_Source\PSoC5/cyfitter_cfg.c **** ********************************************************************************
 554:.\Generated_Source\PSoC5/cyfitter_cfg.c **** *
 555:.\Generated_Source\PSoC5/cyfitter_cfg.c **** * Summary:
 556:.\Generated_Source\PSoC5/cyfitter_cfg.c **** * Enables or disables the analog pumps feeding analog routing switches.
 557:.\Generated_Source\PSoC5/cyfitter_cfg.c **** * Intended to be called at startup, based on the Vdda system configuration;
 558:.\Generated_Source\PSoC5/cyfitter_cfg.c **** * may be called during operation when the user informs us that the Vdda voltage
 559:.\Generated_Source\PSoC5/cyfitter_cfg.c **** * crossed the pump threshold.
 560:.\Generated_Source\PSoC5/cyfitter_cfg.c **** *
 561:.\Generated_Source\PSoC5/cyfitter_cfg.c **** * Parameters:
 562:.\Generated_Source\PSoC5/cyfitter_cfg.c **** *  enabled - 1 to enable the pumps, 0 to disable the pumps
 563:.\Generated_Source\PSoC5/cyfitter_cfg.c **** *
 564:.\Generated_Source\PSoC5/cyfitter_cfg.c **** * Return:
 565:.\Generated_Source\PSoC5/cyfitter_cfg.c **** *  void
 566:.\Generated_Source\PSoC5/cyfitter_cfg.c **** *
 567:.\Generated_Source\PSoC5/cyfitter_cfg.c **** *******************************************************************************/
 568:.\Generated_Source\PSoC5/cyfitter_cfg.c **** void SetAnalogRoutingPumps(uint8 enabled)
 569:.\Generated_Source\PSoC5/cyfitter_cfg.c **** {
  27              		.loc 1 569 0
  28              		.cfi_startproc
  29              		@ args = 0, pretend = 0, frame = 0
  30              		@ frame_needed = 0, uses_anonymous_args = 0
  31              		@ link register save eliminated.
  32              	.LVL0:
 570:.\Generated_Source\PSoC5/cyfitter_cfg.c **** 	uint8 regValue = CY_GET_XTND_REG8((void CYFAR *)CYREG_PUMP_CR0);
  33              		.loc 1 570 0
  34 0000 024A     		ldr	r2, .L2
  35 0002 1378     		ldrb	r3, [r2]	@ zero_extendqisi2
  36 0004 DBB2     		uxtb	r3, r3
  37              	.LVL1:
 571:.\Generated_Source\PSoC5/cyfitter_cfg.c **** 	if (enabled != 0u)
 572:.\Generated_Source\PSoC5/cyfitter_cfg.c **** 	{
 573:.\Generated_Source\PSoC5/cyfitter_cfg.c **** 		regValue |= 0x00u;
 574:.\Generated_Source\PSoC5/cyfitter_cfg.c **** 	}
 575:.\Generated_Source\PSoC5/cyfitter_cfg.c **** 	else
 576:.\Generated_Source\PSoC5/cyfitter_cfg.c **** 	{
 577:.\Generated_Source\PSoC5/cyfitter_cfg.c **** 		regValue &= (uint8)~0x00u;
 578:.\Generated_Source\PSoC5/cyfitter_cfg.c **** 	}
 579:.\Generated_Source\PSoC5/cyfitter_cfg.c **** 	CY_SET_XTND_REG8((void CYFAR *)CYREG_PUMP_CR0, regValue);
  38              		.loc 1 579 0
  39 0006 1370     		strb	r3, [r2]
  40 0008 7047     		bx	lr
  41              	.L3:
  42 000a 00BF     		.align	2
  43              	.L2:
  44 000c 76580040 		.word	1073764470
  45              		.cfi_endproc
  46              	.LFE7:
  47              		.size	SetAnalogRoutingPumps, .-SetAnalogRoutingPumps
  48              		.section	.text.cyfitter_cfg,"ax",%progbits
ARM GAS  C:\Users\jthem\AppData\Local\Temp\ccilLXgB.s 			page 12


  49              		.align	1
  50              		.global	cyfitter_cfg
  51              		.thumb
  52              		.thumb_func
  53              		.type	cyfitter_cfg, %function
  54              	cyfitter_cfg:
  55              	.LFB8:
 580:.\Generated_Source\PSoC5/cyfitter_cfg.c **** }
 581:.\Generated_Source\PSoC5/cyfitter_cfg.c **** 
 582:.\Generated_Source\PSoC5/cyfitter_cfg.c **** #define CY_AMUX_UNUSED CYREG_BOOST_SR
 583:.\Generated_Source\PSoC5/cyfitter_cfg.c **** 
 584:.\Generated_Source\PSoC5/cyfitter_cfg.c **** 
 585:.\Generated_Source\PSoC5/cyfitter_cfg.c **** /*******************************************************************************
 586:.\Generated_Source\PSoC5/cyfitter_cfg.c **** * Function Name: cyfitter_cfg
 587:.\Generated_Source\PSoC5/cyfitter_cfg.c **** ********************************************************************************
 588:.\Generated_Source\PSoC5/cyfitter_cfg.c **** * Summary:
 589:.\Generated_Source\PSoC5/cyfitter_cfg.c **** *  This function is called by the start-up code for the selected device. It
 590:.\Generated_Source\PSoC5/cyfitter_cfg.c **** *  performs all of the necessary device configuration based on the design
 591:.\Generated_Source\PSoC5/cyfitter_cfg.c **** *  settings.  This includes settings from the Design Wide Resources (DWR) such
 592:.\Generated_Source\PSoC5/cyfitter_cfg.c **** *  as Clocks and Pins as well as any component configuration that is necessary.
 593:.\Generated_Source\PSoC5/cyfitter_cfg.c **** *
 594:.\Generated_Source\PSoC5/cyfitter_cfg.c **** * Parameters:  
 595:.\Generated_Source\PSoC5/cyfitter_cfg.c **** *   void
 596:.\Generated_Source\PSoC5/cyfitter_cfg.c **** *
 597:.\Generated_Source\PSoC5/cyfitter_cfg.c **** * Return:
 598:.\Generated_Source\PSoC5/cyfitter_cfg.c **** *   void
 599:.\Generated_Source\PSoC5/cyfitter_cfg.c **** *
 600:.\Generated_Source\PSoC5/cyfitter_cfg.c **** *******************************************************************************/
 601:.\Generated_Source\PSoC5/cyfitter_cfg.c **** 
 602:.\Generated_Source\PSoC5/cyfitter_cfg.c **** void cyfitter_cfg(void)
 603:.\Generated_Source\PSoC5/cyfitter_cfg.c **** {
  56              		.loc 1 603 0
  57              		.cfi_startproc
  58              		@ args = 0, pretend = 0, frame = 0
  59              		@ frame_needed = 0, uses_anonymous_args = 0
  60 0000 70B5     		push	{r4, r5, r6, lr}
  61              		.cfi_def_cfa_offset 16
  62              		.cfi_offset 4, -16
  63              		.cfi_offset 5, -12
  64              		.cfi_offset 6, -8
  65              		.cfi_offset 14, -4
 604:.\Generated_Source\PSoC5/cyfitter_cfg.c **** #ifdef CYGlobalIntDisable
 605:.\Generated_Source\PSoC5/cyfitter_cfg.c **** 	/* Disable interrupts by default. Let user enable if/when they want. */
 606:.\Generated_Source\PSoC5/cyfitter_cfg.c **** 	CYGlobalIntDisable
  66              		.loc 1 606 0
  67              	@ 606 ".\Generated_Source\PSoC5\cyfitter_cfg.c" 1
  68 0002 72B6     		CPSID   i
  69              	@ 0 "" 2
 607:.\Generated_Source\PSoC5/cyfitter_cfg.c **** #endif
 608:.\Generated_Source\PSoC5/cyfitter_cfg.c **** 
 609:.\Generated_Source\PSoC5/cyfitter_cfg.c **** 	/* Enable/Disable Debug functionality based on settings from System DWR */
 610:.\Generated_Source\PSoC5/cyfitter_cfg.c **** 	CY_SET_XTND_REG8((void CYFAR *)CYREG_MLOGIC_DEBUG, (CY_GET_XTND_REG8((void CYFAR *)CYREG_MLOGIC_DE
  70              		.loc 1 610 0
  71              		.thumb
  72 0004 744A     		ldr	r2, .L27
  73              	.LBB22:
  74              	.LBB23:
ARM GAS  C:\Users\jthem\AppData\Local\Temp\ccilLXgB.s 			page 13


 419:.\Generated_Source\PSoC5/cyfitter_cfg.c **** 	CY_SET_REG8((void CYXDATA *)CYREG_PHUB_CH0_BASIC_CFG, 0x01u);	/* enable ch0 */
  75              		.loc 1 419 0
  76 0006 1021     		movs	r1, #16
  77              	.LBE23:
  78              	.LBE22:
  79              		.loc 1 610 0
  80 0008 1378     		ldrb	r3, [r2]	@ zero_extendqisi2
  81              	.LBB26:
  82              	.LBB24:
 422:.\Generated_Source\PSoC5/cyfitter_cfg.c **** 	CY_SET_REG8((void CYXDATA *)(CYREG_PHUB_TDMEM0_ORIG_TD0+2u), 0x01u);	/* set next TD to 1 */
  83              		.loc 1 422 0
  84 000a 4FF4CC70 		mov	r0, #408
  85              	.LBE24:
  86              	.LBE26:
  87              		.loc 1 610 0
  88 000e 43F00403 		orr	r3, r3, #4
  89 0012 1370     		strb	r3, [r2]
  90              	.LBB27:
  91              	.LBB25:
 418:.\Generated_Source\PSoC5/cyfitter_cfg.c **** 	CY_SET_REG8((void CYXDATA *)CYREG_PHUB_CFGMEM0_CFG0, 0x10u);	/* set burstcnt */
  92              		.loc 1 418 0
  93 0014 714A     		ldr	r2, .L27+4
  94 0016 0023     		movs	r3, #0
  95 0018 1360     		str	r3, [r2]
 419:.\Generated_Source\PSoC5/cyfitter_cfg.c **** 	CY_SET_REG8((void CYXDATA *)CYREG_PHUB_CH0_BASIC_CFG, 0x01u);	/* enable ch0 */
  96              		.loc 1 419 0
  97 001a 714A     		ldr	r2, .L27+8
 424:.\Generated_Source\PSoC5/cyfitter_cfg.c **** 	CY_SET_REG16((void CYXDATA *)CYREG_PHUB_TDMEM0_ORIG_TD1, (uint16)((uint32)CFG_TD_LIST0 & 0x0000FFF
  98              		.loc 1 424 0
  99 001c 0324     		movs	r4, #3
 419:.\Generated_Source\PSoC5/cyfitter_cfg.c **** 	CY_SET_REG8((void CYXDATA *)CYREG_PHUB_CH0_BASIC_CFG, 0x01u);	/* enable ch0 */
 100              		.loc 1 419 0
 101 001e 1170     		strb	r1, [r2]
 420:.\Generated_Source\PSoC5/cyfitter_cfg.c **** 	CY_SET_REG8((void CYXDATA *)(CYREG_PHUB_CH0_BASIC_STATUS+1u), 0x00u);	/* set first TD to 0 */
 102              		.loc 1 420 0
 103 0020 0121     		movs	r1, #1
 104 0022 A2F5BE62 		sub	r2, r2, #1520
 105 0026 1170     		strb	r1, [r2]
 421:.\Generated_Source\PSoC5/cyfitter_cfg.c **** 	CY_SET_REG16((void CYXDATA *)CYREG_PHUB_TDMEM0_ORIG_TD0, 51u*8u);	/* transfer size */
 106              		.loc 1 421 0
 107 0028 5372     		strb	r3, [r2, #9]
 422:.\Generated_Source\PSoC5/cyfitter_cfg.c **** 	CY_SET_REG8((void CYXDATA *)(CYREG_PHUB_TDMEM0_ORIG_TD0+2u), 0x01u);	/* set next TD to 1 */
 108              		.loc 1 422 0
 109 002a A2F8F007 		strh	r0, [r2, #2032]	@ movhi
 423:.\Generated_Source\PSoC5/cyfitter_cfg.c **** 	CY_SET_REG8((void CYXDATA *)(CYREG_PHUB_TDMEM0_ORIG_TD0+3u), 0x03u);	/* set TD flags */
 110              		.loc 1 423 0
 111 002e 6D48     		ldr	r0, .L27+12
 422:.\Generated_Source\PSoC5/cyfitter_cfg.c **** 	CY_SET_REG8((void CYXDATA *)(CYREG_PHUB_TDMEM0_ORIG_TD0+2u), 0x01u);	/* set next TD to 1 */
 112              		.loc 1 422 0
 113 0030 02F5FE62 		add	r2, r2, #2032
 423:.\Generated_Source\PSoC5/cyfitter_cfg.c **** 	CY_SET_REG8((void CYXDATA *)(CYREG_PHUB_TDMEM0_ORIG_TD0+3u), 0x03u);	/* set TD flags */
 114              		.loc 1 423 0
 115 0034 0170     		strb	r1, [r0]
 424:.\Generated_Source\PSoC5/cyfitter_cfg.c **** 	CY_SET_REG16((void CYXDATA *)CYREG_PHUB_TDMEM0_ORIG_TD1, (uint16)((uint32)CFG_TD_LIST0 & 0x0000FFF
 116              		.loc 1 424 0
 117 0036 4470     		strb	r4, [r0, #1]
 425:.\Generated_Source\PSoC5/cyfitter_cfg.c **** 	CY_SET_REG16((void CYXDATA *)(CYREG_PHUB_TDMEM0_ORIG_TD1+2u), CYDEV_PHUB_TDMEM1_BASE);	/* set td0'
ARM GAS  C:\Users\jthem\AppData\Local\Temp\ccilLXgB.s 			page 14


 118              		.loc 1 425 0
 119 0038 6B4C     		ldr	r4, .L27+16
 427:.\Generated_Source\PSoC5/cyfitter_cfg.c **** 	CY_SET_REG16((void CYXDATA *)(CYREG_PHUB_CFGMEM0_CFG1+2u), (uint16)(CYDEV_PHUB_TDMEM1_BASE >> 16))
 120              		.loc 1 427 0
 121 003a A0F5FF70 		sub	r0, r0, #510
 425:.\Generated_Source\PSoC5/cyfitter_cfg.c **** 	CY_SET_REG16((void CYXDATA *)(CYREG_PHUB_TDMEM0_ORIG_TD1+2u), CYDEV_PHUB_TDMEM1_BASE);	/* set td0'
 122              		.loc 1 425 0
 123 003e A0F80042 		strh	r4, [r0, #512]	@ movhi
 426:.\Generated_Source\PSoC5/cyfitter_cfg.c **** 	CY_SET_REG16((void CYXDATA *)CYREG_PHUB_CFGMEM0_CFG1, (uint16)(CYDEV_FLASH_BASE >> 16));	/* set ch
 124              		.loc 1 426 0
 125 0042 47F60804 		movw	r4, #30728
 126 0046 A0F80242 		strh	r4, [r0, #514]	@ movhi
 427:.\Generated_Source\PSoC5/cyfitter_cfg.c **** 	CY_SET_REG16((void CYXDATA *)(CYREG_PHUB_CFGMEM0_CFG1+2u), (uint16)(CYDEV_PHUB_TDMEM1_BASE >> 16))
 127              		.loc 1 427 0
 128 004a 0380     		strh	r3, [r0]	@ movhi
 428:.\Generated_Source\PSoC5/cyfitter_cfg.c **** 	CY_SET_REG8((void CYXDATA *)(CYREG_PHUB_CH1_BASIC_STATUS+1u), 0x09u);	/* ch1 first TD: 9 */
 129              		.loc 1 428 0
 130 004c 674B     		ldr	r3, .L27+20
 131 004e 4FF48040 		mov	r0, #16384
 132 0052 1880     		strh	r0, [r3]	@ movhi
 429:.\Generated_Source\PSoC5/cyfitter_cfg.c **** 	CY_SET_REG8((void CYXDATA *)(CYREG_PHUB_CH2_BASIC_STATUS+1u), 0x0Du);	/* ch2 first TD: 13 */
 133              		.loc 1 429 0
 134 0054 A3F2DD53 		subw	r3, r3, #1501
 135 0058 0920     		movs	r0, #9
 136 005a 1870     		strb	r0, [r3]
 430:.\Generated_Source\PSoC5/cyfitter_cfg.c **** 	CY_SET_REG8((void CYXDATA *)(CYREG_PHUB_CH5_BASIC_STATUS+1u), 0x15u);	/* ch5 first TD: 21 */
 137              		.loc 1 430 0
 138 005c 0D20     		movs	r0, #13
 139 005e 1874     		strb	r0, [r3, #16]
 431:.\Generated_Source\PSoC5/cyfitter_cfg.c **** 	CY_SET_REG8((void CYXDATA *)(CYREG_PHUB_CH6_BASIC_STATUS+1u), 0x18u);	/* ch6 first TD: 24 */
 140              		.loc 1 431 0
 141 0060 1520     		movs	r0, #21
 142 0062 83F84000 		strb	r0, [r3, #64]
 432:.\Generated_Source\PSoC5/cyfitter_cfg.c **** 
 143              		.loc 1 432 0
 144 0066 1820     		movs	r0, #24
 145 0068 83F85000 		strb	r0, [r3, #80]
 434:.\Generated_Source\PSoC5/cyfitter_cfg.c **** 	CY_SET_REG8((void CYXDATA *)CYREG_PHUB_CH0_ACTION, 0x01u); /* cpu_req */
 146              		.loc 1 434 0
 147 006c BFF35F8F 		dmb	sy
 435:.\Generated_Source\PSoC5/cyfitter_cfg.c **** 	CY_CFG_MEMORY_BARRIER();
 148              		.loc 1 435 0
 149 0070 153B     		subs	r3, r3, #21
 150 0072 1970     		strb	r1, [r3]
 436:.\Generated_Source\PSoC5/cyfitter_cfg.c **** 
 151              		.loc 1 436 0
 152 0074 BFF35F8F 		dmb	sy
 153 0078 1146     		mov	r1, r2
 154 007a 1A46     		mov	r2, r3
 155              	.L5:
 439:.\Generated_Source\PSoC5/cyfitter_cfg.c **** 
 156              		.loc 1 439 0
 157 007c 0B88     		ldrh	r3, [r1]
 158 007e 9BB2     		uxth	r3, r3
 159 0080 002B     		cmp	r3, #0
 160 0082 FBD1     		bne	.L5
 161              	.L6:
ARM GAS  C:\Users\jthem\AppData\Local\Temp\ccilLXgB.s 			page 15


 162              	.LVL2:
 163 0084 5A49     		ldr	r1, .L27+24
 164 0086 D800     		lsls	r0, r3, #3
 165 0088 0144     		add	r1, r1, r0
 444:.\Generated_Source\PSoC5/cyfitter_cfg.c **** 	}
 166              		.loc 1 444 0
 167 008a 5A48     		ldr	r0, .L27+28
 168 008c 30F82300 		ldrh	r0, [r0, r3, lsl #2]
 442:.\Generated_Source\PSoC5/cyfitter_cfg.c **** 	{
 169              		.loc 1 442 0
 170 0090 0133     		adds	r3, r3, #1
 171              	.LVL3:
 172 0092 332B     		cmp	r3, #51
 444:.\Generated_Source\PSoC5/cyfitter_cfg.c **** 	}
 173              		.loc 1 444 0
 174 0094 0880     		strh	r0, [r1]	@ movhi
 442:.\Generated_Source\PSoC5/cyfitter_cfg.c **** 	{
 175              		.loc 1 442 0
 176 0096 F5D1     		bne	.L6
 447:.\Generated_Source\PSoC5/cyfitter_cfg.c **** 	CY_SET_REG8((void CYXDATA *)CYREG_PHUB_CH0_ACTION, 0x01u); /* cpu_req */
 177              		.loc 1 447 0
 178 0098 BFF35F8F 		dmb	sy
 448:.\Generated_Source\PSoC5/cyfitter_cfg.c **** 	CY_CFG_MEMORY_BARRIER();
 179              		.loc 1 448 0
 180 009c 0123     		movs	r3, #1
 181              	.LVL4:
 182 009e 1370     		strb	r3, [r2]
 449:.\Generated_Source\PSoC5/cyfitter_cfg.c **** 
 183              		.loc 1 449 0
 184 00a0 BFF35F8F 		dmb	sy
 185              	.L7:
 452:.\Generated_Source\PSoC5/cyfitter_cfg.c **** 	while(0u != (CY_GET_REG8((void CYXDATA *)CYREG_PHUB_CH1_BASIC_STATUS) & 0x01u)){}
 186              		.loc 1 452 0
 187 00a4 544B     		ldr	r3, .L27+32
 188 00a6 1B78     		ldrb	r3, [r3]	@ zero_extendqisi2
 189 00a8 D807     		lsls	r0, r3, #31
 190 00aa FBD4     		bmi	.L7
 191              	.L8:
 453:.\Generated_Source\PSoC5/cyfitter_cfg.c **** 	while(0u != (CY_GET_REG8((void CYXDATA *)CYREG_PHUB_CH2_BASIC_STATUS) & 0x01u)){}
 192              		.loc 1 453 0
 193 00ac 534B     		ldr	r3, .L27+36
 194 00ae 1B78     		ldrb	r3, [r3]	@ zero_extendqisi2
 195 00b0 D907     		lsls	r1, r3, #31
 196 00b2 FBD4     		bmi	.L8
 197              	.L9:
 454:.\Generated_Source\PSoC5/cyfitter_cfg.c **** 	while(0u != (CY_GET_REG8((void CYXDATA *)CYREG_PHUB_CH5_BASIC_STATUS) & 0x01u)){}
 198              		.loc 1 454 0
 199 00b4 524B     		ldr	r3, .L27+40
 200 00b6 1B78     		ldrb	r3, [r3]	@ zero_extendqisi2
 201 00b8 DA07     		lsls	r2, r3, #31
 202 00ba FBD4     		bmi	.L9
 203              	.L10:
 455:.\Generated_Source\PSoC5/cyfitter_cfg.c **** 	while(0u != (CY_GET_REG8((void CYXDATA *)CYREG_PHUB_CH6_BASIC_STATUS) & 0x01u)){}
 204              		.loc 1 455 0
 205 00bc 514B     		ldr	r3, .L27+44
 206 00be 1B78     		ldrb	r3, [r3]	@ zero_extendqisi2
 207 00c0 DB07     		lsls	r3, r3, #31
ARM GAS  C:\Users\jthem\AppData\Local\Temp\ccilLXgB.s 			page 16


 208 00c2 FBD4     		bmi	.L10
 209              	.L11:
 456:.\Generated_Source\PSoC5/cyfitter_cfg.c **** 
 210              		.loc 1 456 0
 211 00c4 504B     		ldr	r3, .L27+48
 212 00c6 1C78     		ldrb	r4, [r3]	@ zero_extendqisi2
 213 00c8 14F00104 		ands	r4, r4, #1
 214 00cc FAD1     		bne	.L11
 215              	.LBE25:
 216              	.LBE27:
 611:.\Generated_Source\PSoC5/cyfitter_cfg.c **** 
 612:.\Generated_Source\PSoC5/cyfitter_cfg.c **** 	{
 613:.\Generated_Source\PSoC5/cyfitter_cfg.c **** 		cfg_dma_init();
 614:.\Generated_Source\PSoC5/cyfitter_cfg.c **** 
 615:.\Generated_Source\PSoC5/cyfitter_cfg.c **** 		/* Enable digital routing */
 616:.\Generated_Source\PSoC5/cyfitter_cfg.c **** 		CY_SET_XTND_REG8((void CYFAR *)CYREG_BCTL0_BANK_CTL, CY_GET_XTND_REG8((void CYFAR *)CYREG_BCTL0_B
 217              		.loc 1 616 0
 218 00ce 4F4A     		ldr	r2, .L27+52
 617:.\Generated_Source\PSoC5/cyfitter_cfg.c **** 		CY_SET_XTND_REG8((void CYFAR *)CYREG_BCTL1_BANK_CTL, CY_GET_XTND_REG8((void CYFAR *)CYREG_BCTL1_B
 618:.\Generated_Source\PSoC5/cyfitter_cfg.c **** 
 619:.\Generated_Source\PSoC5/cyfitter_cfg.c **** 		/* Enable UDB array */
 620:.\Generated_Source\PSoC5/cyfitter_cfg.c **** 		CY_SET_XTND_REG8((void CYFAR *)CYREG_PM_ACT_CFG0, CY_GET_XTND_REG8((void CYFAR *)CYREG_PM_ACT_CFG
 219              		.loc 1 620 0
 220 00d0 4F4D     		ldr	r5, .L27+56
 616:.\Generated_Source\PSoC5/cyfitter_cfg.c **** 		CY_SET_XTND_REG8((void CYFAR *)CYREG_BCTL1_BANK_CTL, CY_GET_XTND_REG8((void CYFAR *)CYREG_BCTL1_B
 221              		.loc 1 616 0
 222 00d2 1378     		ldrb	r3, [r2]	@ zero_extendqisi2
 223              	.LBB28:
 224              	.LBB29:
 497:.\Generated_Source\PSoC5/cyfitter_cfg.c **** 	/* Wait up to 250us for the PLL to lock */
 225              		.loc 1 497 0
 226 00d4 1926     		movs	r6, #25
 227              	.LBE29:
 228              	.LBE28:
 616:.\Generated_Source\PSoC5/cyfitter_cfg.c **** 		CY_SET_XTND_REG8((void CYFAR *)CYREG_BCTL1_BANK_CTL, CY_GET_XTND_REG8((void CYFAR *)CYREG_BCTL1_B
 229              		.loc 1 616 0
 230 00d6 43F00203 		orr	r3, r3, #2
 231 00da 1370     		strb	r3, [r2]
 617:.\Generated_Source\PSoC5/cyfitter_cfg.c **** 		CY_SET_XTND_REG8((void CYFAR *)CYREG_BCTL1_BANK_CTL, CY_GET_XTND_REG8((void CYFAR *)CYREG_BCTL1_B
 232              		.loc 1 617 0
 233 00dc 137C     		ldrb	r3, [r2, #16]	@ zero_extendqisi2
 234 00de 43F00203 		orr	r3, r3, #2
 235 00e2 1374     		strb	r3, [r2, #16]
 236              		.loc 1 620 0
 237 00e4 2B78     		ldrb	r3, [r5]	@ zero_extendqisi2
 621:.\Generated_Source\PSoC5/cyfitter_cfg.c **** 		CY_SET_XTND_REG8((void CYFAR *)CYREG_PM_AVAIL_CR2, CY_GET_XTND_REG8((void CYFAR *)CYREG_PM_AVAIL_
 238              		.loc 1 621 0
 239 00e6 A2F58632 		sub	r2, r2, #68608
 620:.\Generated_Source\PSoC5/cyfitter_cfg.c **** 		CY_SET_XTND_REG8((void CYFAR *)CYREG_PM_AVAIL_CR2, CY_GET_XTND_REG8((void CYFAR *)CYREG_PM_AVAIL_
 240              		.loc 1 620 0
 241 00ea 43F04003 		orr	r3, r3, #64
 242 00ee 2B70     		strb	r3, [r5]
 243              		.loc 1 621 0
 244 00f0 413A     		subs	r2, r2, #65
 245 00f2 1378     		ldrb	r3, [r2]	@ zero_extendqisi2
 246 00f4 43F01003 		orr	r3, r3, #16
 247 00f8 1370     		strb	r3, [r2]
ARM GAS  C:\Users\jthem\AppData\Local\Temp\ccilLXgB.s 			page 17


 248              	.LVL5:
 249              	.LBB34:
 250              	.LBB35:
  95:.\Generated_Source\PSoC5/cyfitter_cfg.c **** }
 251              		.loc 1 95 0
 252 00fa 464B     		ldr	r3, .L27+60
 253 00fc 03CB     		ldmia	r3!, {r0, r1}
 254 00fe C2F8400D 		str	r0, [r2, #3392]	@ unaligned
 255 0102 C2F8441D 		str	r1, [r2, #3396]	@ unaligned
 256              	.LVL6:
 257              	.LBE35:
 258              	.LBE34:
 259              	.LBB36:
 260              	.LBB37:
 261 0106 03CB     		ldmia	r3!, {r0, r1}
 262              	.LBE37:
 263              	.LBE36:
 622:.\Generated_Source\PSoC5/cyfitter_cfg.c **** 	}
 623:.\Generated_Source\PSoC5/cyfitter_cfg.c **** 
 624:.\Generated_Source\PSoC5/cyfitter_cfg.c **** 
 625:.\Generated_Source\PSoC5/cyfitter_cfg.c **** 	/* Perform second pass device configuration. These items must be configured in specific order afte
 626:.\Generated_Source\PSoC5/cyfitter_cfg.c **** 	CYCONFIGCPY((void CYFAR *)(CYREG_PRT0_DM0), (const void CYFAR *)(BS_IOPINS0_0_VAL), 8u);
 627:.\Generated_Source\PSoC5/cyfitter_cfg.c **** 	CYCONFIGCPY((void CYFAR *)(CYREG_PRT2_DM0), (const void CYFAR *)(BS_IOPINS0_2_VAL), 8u);
 628:.\Generated_Source\PSoC5/cyfitter_cfg.c **** 	CY_SET_XTND_REG8((void CYFAR *)(CYREG_B1_P2_U0_CFG27), 0xA4u);
 264              		.loc 1 628 0
 265 0108 434B     		ldr	r3, .L27+64
 266              	.LBB39:
 267              	.LBB38:
  95:.\Generated_Source\PSoC5/cyfitter_cfg.c **** }
 268              		.loc 1 95 0
 269 010a C2F8641D 		str	r1, [r2, #3428]	@ unaligned
 270 010e C2F8600D 		str	r0, [r2, #3424]	@ unaligned
 271              	.LBE38:
 272              	.LBE39:
 273              		.loc 1 628 0
 274 0112 A422     		movs	r2, #164
 275 0114 1A70     		strb	r2, [r3]
 629:.\Generated_Source\PSoC5/cyfitter_cfg.c **** 	/* Switch Boost to the precision bandgap reference from its internal reference */
 630:.\Generated_Source\PSoC5/cyfitter_cfg.c **** 	CY_SET_REG8((void CYXDATA *)CYREG_BOOST_CR2, (CY_GET_REG8((void CYXDATA *)CYREG_BOOST_CR2) | 0x08u
 276              		.loc 1 630 0
 277 0116 414A     		ldr	r2, .L27+68
 278              	.LBB40:
 279              	.LBB30:
 492:.\Generated_Source\PSoC5/cyfitter_cfg.c **** 	CY_SET_XTND_REG8((void CYFAR *)(CYREG_IMO_TR1), (CY_GET_XTND_REG8((void CYFAR *)CYREG_FLSHID_CUST_
 280              		.loc 1 492 0
 281 0118 0321     		movs	r1, #3
 282              	.LBE30:
 283              	.LBE40:
 284              		.loc 1 630 0
 285 011a 1378     		ldrb	r3, [r2]	@ zero_extendqisi2
 286 011c 43F00803 		orr	r3, r3, #8
 287 0120 1370     		strb	r3, [r2]
 631:.\Generated_Source\PSoC5/cyfitter_cfg.c **** 
 632:.\Generated_Source\PSoC5/cyfitter_cfg.c **** 	/* Set Flash Cycles based on max possible frequency in case a glitch occurs during ClockSetup(). *
 633:.\Generated_Source\PSoC5/cyfitter_cfg.c **** 	CY_SET_XTND_REG8((void CYFAR *)(CYREG_CACHE_CC_CTL), (((CYDEV_INSTRUCT_CACHE_ENABLED) != 0) ? 0x01
 288              		.loc 1 633 0
 289 0122 3F4B     		ldr	r3, .L27+72
ARM GAS  C:\Users\jthem\AppData\Local\Temp\ccilLXgB.s 			page 18


 290              	.LBB41:
 291              	.LBB31:
 484:.\Generated_Source\PSoC5/cyfitter_cfg.c **** 	CY_SET_XTND_REG8((void CYFAR *)(CYREG_CLKDIST_DCFG0_CFG0 + 0x2u), 0x18u);
 292              		.loc 1 484 0
 293 0124 0B22     		movs	r2, #11
 294              	.LBE31:
 295              	.LBE41:
 296              		.loc 1 633 0
 297 0126 1C70     		strb	r4, [r3]
 298              	.LBB42:
 299              	.LBB32:
 484:.\Generated_Source\PSoC5/cyfitter_cfg.c **** 	CY_SET_XTND_REG8((void CYFAR *)(CYREG_CLKDIST_DCFG0_CFG0 + 0x2u), 0x18u);
 300              		.loc 1 484 0
 301 0128 A3F5F063 		sub	r3, r3, #1920
 302 012c 1A80     		strh	r2, [r3]	@ movhi
 485:.\Generated_Source\PSoC5/cyfitter_cfg.c **** 
 303              		.loc 1 485 0
 304 012e 1822     		movs	r2, #24
 305 0130 9A70     		strb	r2, [r3, #2]
 488:.\Generated_Source\PSoC5/cyfitter_cfg.c **** 	CY_SET_XTND_REG8((void CYFAR *)(CYREG_CLKDIST_CR), 0x08u);
 306              		.loc 1 488 0
 307 0132 0222     		movs	r2, #2
 308 0134 83F88022 		strb	r2, [r3, #640]
 489:.\Generated_Source\PSoC5/cyfitter_cfg.c **** 
 309              		.loc 1 489 0
 310 0138 0822     		movs	r2, #8
 311 013a 4FF04023 		mov	r3, #1073758208
 312 013e 1A70     		strb	r2, [r3]
 492:.\Generated_Source\PSoC5/cyfitter_cfg.c **** 	CY_SET_XTND_REG8((void CYFAR *)(CYREG_IMO_TR1), (CY_GET_XTND_REG8((void CYFAR *)CYREG_FLSHID_CUST_
 313              		.loc 1 492 0
 314 0140 83F80012 		strb	r1, [r3, #512]
 493:.\Generated_Source\PSoC5/cyfitter_cfg.c **** 
 315              		.loc 1 493 0
 316 0144 374B     		ldr	r3, .L27+76
 317 0146 3849     		ldr	r1, .L27+80
 318 0148 1B78     		ldrb	r3, [r3]	@ zero_extendqisi2
 319 014a DBB2     		uxtb	r3, r3
 320 014c 0B70     		strb	r3, [r1]
 496:.\Generated_Source\PSoC5/cyfitter_cfg.c **** 	CY_SET_XTND_REG16((void CYFAR *)(CYREG_FASTCLK_PLL_CFG0), 0x1251u);
 321              		.loc 1 496 0
 322 014e 374B     		ldr	r3, .L27+84
 323 0150 1A80     		strh	r2, [r3]	@ movhi
 497:.\Generated_Source\PSoC5/cyfitter_cfg.c **** 	/* Wait up to 250us for the PLL to lock */
 324              		.loc 1 497 0
 325 0152 41F25122 		movw	r2, #4689
 326 0156 23F8022C 		strh	r2, [r3, #-2]	@ movhi
 327              	.LVL7:
 328              	.L13:
 502:.\Generated_Source\PSoC5/cyfitter_cfg.c **** 		CyDelayCycles(10u * 48u); /* Delay 10us based on 48MHz clock */
 329              		.loc 1 502 0
 330 015a 354B     		ldr	r3, .L27+88
 503:.\Generated_Source\PSoC5/cyfitter_cfg.c **** 	}
 331              		.loc 1 503 0
 332 015c 4FF4F070 		mov	r0, #480
 502:.\Generated_Source\PSoC5/cyfitter_cfg.c **** 		CyDelayCycles(10u * 48u); /* Delay 10us based on 48MHz clock */
 333              		.loc 1 502 0
 334 0160 1B78     		ldrb	r3, [r3]	@ zero_extendqisi2
ARM GAS  C:\Users\jthem\AppData\Local\Temp\ccilLXgB.s 			page 19


 335 0162 03F00103 		and	r3, r3, #1
 336 0166 43EA4404 		orr	r4, r3, r4, lsl #1
 337              	.LVL8:
 503:.\Generated_Source\PSoC5/cyfitter_cfg.c **** 	}
 338              		.loc 1 503 0
 339 016a FFF7FEFF 		bl	CyDelayCycles
 340              	.LVL9:
 500:.\Generated_Source\PSoC5/cyfitter_cfg.c **** 	{ 
 341              		.loc 1 500 0
 342 016e 013E     		subs	r6, r6, #1
 343              	.LVL10:
 502:.\Generated_Source\PSoC5/cyfitter_cfg.c **** 		CyDelayCycles(10u * 48u); /* Delay 10us based on 48MHz clock */
 344              		.loc 1 502 0
 345 0170 04F00304 		and	r4, r4, #3
 346              	.LVL11:
 500:.\Generated_Source\PSoC5/cyfitter_cfg.c **** 	{ 
 347              		.loc 1 500 0
 348 0174 2FD0     		beq	.L12
 349              	.LVL12:
 350 0176 032C     		cmp	r4, #3
 351 0178 EFD1     		bne	.L13
 512:.\Generated_Source\PSoC5/cyfitter_cfg.c **** 	CY_SET_XTND_REG8((void CYFAR *)(CYREG_CLKDIST_MSTR0), 0x07u);
 352              		.loc 1 512 0
 353 017a 2E4B     		ldr	r3, .L27+92
 354 017c 4FF48072 		mov	r2, #256
 355 0180 1A80     		strh	r2, [r3]	@ movhi
 514:.\Generated_Source\PSoC5/cyfitter_cfg.c **** 	CY_SET_XTND_REG8((void CYFAR *)(CYREG_CLKDIST_BCFG2), 0x48u);
 356              		.loc 1 514 0
 357 0182 2D49     		ldr	r1, .L27+96
 513:.\Generated_Source\PSoC5/cyfitter_cfg.c **** 	CY_SET_XTND_REG8((void CYFAR *)(CYREG_CLKDIST_BCFG0), 0x00u);
 358              		.loc 1 513 0
 359 0184 0722     		movs	r2, #7
 360 0186 1A70     		strb	r2, [r3]
 515:.\Generated_Source\PSoC5/cyfitter_cfg.c **** 	CY_SET_XTND_REG8((void CYFAR *)(CYREG_CLKDIST_MSTR0), 0x00u);
 361              		.loc 1 515 0
 362 0188 4820     		movs	r0, #72
 514:.\Generated_Source\PSoC5/cyfitter_cfg.c **** 	CY_SET_XTND_REG8((void CYFAR *)(CYREG_CLKDIST_BCFG2), 0x48u);
 363              		.loc 1 514 0
 364 018a 0022     		movs	r2, #0
 365 018c 0A70     		strb	r2, [r1]
 515:.\Generated_Source\PSoC5/cyfitter_cfg.c **** 	CY_SET_XTND_REG8((void CYFAR *)(CYREG_CLKDIST_MSTR0), 0x00u);
 366              		.loc 1 515 0
 367 018e 8870     		strb	r0, [r1, #2]
 516:.\Generated_Source\PSoC5/cyfitter_cfg.c **** 	CY_SET_XTND_REG8((void CYFAR *)(CYREG_CLKDIST_LD), 0x02u);
 368              		.loc 1 516 0
 369 0190 1A70     		strb	r2, [r3]
 517:.\Generated_Source\PSoC5/cyfitter_cfg.c **** 
 370              		.loc 1 517 0
 371 0192 0222     		movs	r2, #2
 372 0194 03F8032C 		strb	r2, [r3, #-3]
 519:.\Generated_Source\PSoC5/cyfitter_cfg.c **** }
 373              		.loc 1 519 0
 374 0198 284A     		ldr	r2, .L27+100
 375              	.LBE32:
 376              	.LBE42:
 377              	.LBB43:
 378              	.LBB44:
ARM GAS  C:\Users\jthem\AppData\Local\Temp\ccilLXgB.s 			page 20


  95:.\Generated_Source\PSoC5/cyfitter_cfg.c **** }
 379              		.loc 1 95 0
 380 019a 294C     		ldr	r4, .L27+104
 381              	.LVL13:
 382              	.LBE44:
 383              	.LBE43:
 384              	.LBB46:
 385              	.LBB33:
 519:.\Generated_Source\PSoC5/cyfitter_cfg.c **** }
 386              		.loc 1 519 0
 387 019c 1378     		ldrb	r3, [r2]	@ zero_extendqisi2
 388 019e 43F00103 		orr	r3, r3, #1
 389 01a2 1370     		strb	r3, [r2]
 390              	.LBE33:
 391              	.LBE46:
 634:.\Generated_Source\PSoC5/cyfitter_cfg.c **** 	/* Setup clocks based on selections from Clock DWR */
 635:.\Generated_Source\PSoC5/cyfitter_cfg.c **** 	ClockSetup();
 636:.\Generated_Source\PSoC5/cyfitter_cfg.c **** 	/* Set Flash Cycles based on newly configured 24.00MHz Bus Clock. */
 637:.\Generated_Source\PSoC5/cyfitter_cfg.c **** 	CY_SET_XTND_REG8((void CYFAR *)(CYREG_CACHE_CC_CTL), (((CYDEV_INSTRUCT_CACHE_ENABLED) != 0) ? 0x81
 392              		.loc 1 637 0
 393 01a4 1E4B     		ldr	r3, .L27+72
 394 01a6 8022     		movs	r2, #128
 395 01a8 1A70     		strb	r2, [r3]
 638:.\Generated_Source\PSoC5/cyfitter_cfg.c **** 	CY_SET_XTND_REG8((void CYFAR *)(CYREG_PANTHER_WAITPIPE), 0x01u);
 396              		.loc 1 638 0
 397 01aa 03F5F723 		add	r3, r3, #505856
 398 01ae 0122     		movs	r2, #1
 399 01b0 0433     		adds	r3, r3, #4
 400 01b2 1A70     		strb	r2, [r3]
 401              	.LBB47:
 402              	.LBB48:
 544:.\Generated_Source\PSoC5/cyfitter_cfg.c **** 	CY_SET_XTND_REG8((void CYFAR *)(CYREG_BG_DFT0), (bg_xover_inl_trim & 0x07u));
 403              		.loc 1 544 0
 404 01b4 234B     		ldr	r3, .L27+108
 545:.\Generated_Source\PSoC5/cyfitter_cfg.c **** 	CY_SET_XTND_REG8((void CYFAR *)(CYREG_BG_DFT1), ((bg_xover_inl_trim >> 4) & 0x0Fu));
 405              		.loc 1 545 0
 406 01b6 244A     		ldr	r2, .L27+112
 544:.\Generated_Source\PSoC5/cyfitter_cfg.c **** 	CY_SET_XTND_REG8((void CYFAR *)(CYREG_BG_DFT0), (bg_xover_inl_trim & 0x07u));
 407              		.loc 1 544 0
 408 01b8 1B78     		ldrb	r3, [r3]	@ zero_extendqisi2
 409 01ba DBB2     		uxtb	r3, r3
 410              	.LVL14:
 545:.\Generated_Source\PSoC5/cyfitter_cfg.c **** 	CY_SET_XTND_REG8((void CYFAR *)(CYREG_BG_DFT1), ((bg_xover_inl_trim >> 4) & 0x0Fu));
 411              		.loc 1 545 0
 412 01bc 03F00701 		and	r1, r3, #7
 546:.\Generated_Source\PSoC5/cyfitter_cfg.c **** 	CY_SET_XTND_REG8((void CYFAR *)CYREG_PUMP_CR0, 0x44u);
 413              		.loc 1 546 0
 414 01c0 1B09     		lsrs	r3, r3, #4
 415              	.LVL15:
 545:.\Generated_Source\PSoC5/cyfitter_cfg.c **** 	CY_SET_XTND_REG8((void CYFAR *)(CYREG_BG_DFT1), ((bg_xover_inl_trim >> 4) & 0x0Fu));
 416              		.loc 1 545 0
 417 01c2 1170     		strb	r1, [r2]
 546:.\Generated_Source\PSoC5/cyfitter_cfg.c **** 	CY_SET_XTND_REG8((void CYFAR *)CYREG_PUMP_CR0, 0x44u);
 418              		.loc 1 546 0
 419 01c4 5370     		strb	r3, [r2, #1]
 547:.\Generated_Source\PSoC5/cyfitter_cfg.c **** }
 420              		.loc 1 547 0
ARM GAS  C:\Users\jthem\AppData\Local\Temp\ccilLXgB.s 			page 21


 421 01c6 214B     		ldr	r3, .L27+116
 422 01c8 4422     		movs	r2, #68
 423 01ca 1A70     		strb	r2, [r3]
 424              	.LVL16:
 425              	.LBE48:
 426              	.LBE47:
 427              	.LBB49:
 428              	.LBB45:
  95:.\Generated_Source\PSoC5/cyfitter_cfg.c **** }
 429              		.loc 1 95 0
 430 01cc 95E80F00 		ldmia	r5, {r0, r1, r2, r3}
 431 01d0 07C4     		stmia	r4!, {r0, r1, r2}
 432 01d2 2380     		strh	r3, [r4]	@ movhi
 433 01d4 70BD     		pop	{r4, r5, r6, pc}
 434              	.LVL17:
 435              	.L12:
 436 01d6 FEE7     		b	.L12
 437              	.L28:
 438              		.align	2
 439              	.L27:
 440 01d8 E8460040 		.word	1073759976
 441 01dc 00000000 		.word	.LANCHOR0
 442 01e0 00760040 		.word	1073772032
 443 01e4 02780040 		.word	1073772546
 444 01e8 00000000 		.word	.LANCHOR1
 445 01ec 06760040 		.word	1073772038
 446 01f0 0C780040 		.word	1073772556
 447 01f4 00000000 		.word	.LANCHOR2
 448 01f8 18700040 		.word	1073770520
 449 01fc 28700040 		.word	1073770536
 450 0200 38700040 		.word	1073770552
 451 0204 68700040 		.word	1073770600
 452 0208 78700040 		.word	1073770616
 453 020c 03500140 		.word	1073827843
 454 0210 A0430040 		.word	1073759136
 455 0214 F00C0048 		.word	1207962864
 456 0218 5B140140 		.word	1073812571
 457 021c 22430040 		.word	1073759010
 458 0220 00480040 		.word	1073760256
 459 0224 08010049 		.word	1224737032
 460 0228 A1460040 		.word	1073759905
 461 022c 22420040 		.word	1073758754
 462 0230 25420040 		.word	1073758757
 463 0234 04400040 		.word	1073758212
 464 0238 06400040 		.word	1073758214
 465 023c A2430040 		.word	1073759138
 466 0240 B0430040 		.word	1073759152
 467 0244 CF010049 		.word	1224737231
 468 0248 6E580040 		.word	1073764462
 469 024c 76580040 		.word	1073764470
 470              	.LBE45:
 471              	.LBE49:
 472              		.cfi_endproc
 473              	.LFE8:
 474              		.size	cyfitter_cfg, .-cyfitter_cfg
 475              		.section	.rodata
 476              		.align	2
ARM GAS  C:\Users\jthem\AppData\Local\Temp\ccilLXgB.s 			page 22


 477              		.set	.LANCHOR2,. + 0
 478              		.type	CFG_TD_ADDR0.4850, %object
 479              		.size	CFG_TD_ADDR0.4850, 204
 480              	CFG_TD_ADDR0.4850:
 481 0000 98010000 		.word	CH1_ADDR_DATA0.4843
 482 0004 A0010000 		.word	CH2_ADDR_DATA0.4844
 483 0008 A8010000 		.word	CH5_ADDR_DATA0.4845
 484 000c B0010000 		.word	CH6_ADDR_DATA0.4846
 485 0010 B8010000 		.word	DMA_TD_START_CMD.4847
 486 0014 B8010000 		.word	DMA_TD_START_CMD.4847
 487 0018 B8010000 		.word	DMA_TD_START_CMD.4847
 488 001c B8010000 		.word	DMA_TD_START_CMD.4847
 489 0020 00000000 		.word	DMA_ZERO_VAL.4848
 490 0024 00000000 		.word	DMA_ZERO_VAL.4848
 491 0028 00000000 		.word	DMA_ZERO_VAL.4848
 492 002c 00000000 		.word	DMA_ZERO_VAL.4848
 493 0030 00000000 		.word	DMA_ZERO_VAL.4848
 494 0034 00000000 		.word	DMA_ZERO_VAL.4848
 495 0038 00000000 		.word	DMA_ZERO_VAL.4848
 496 003c 00000000 		.word	DMA_ZERO_VAL.4848
 497 0040 00000000 		.word	DMA_ZERO_VAL.4848
 498 0044 00000000 		.word	DMA_ZERO_VAL.4848
 499 0048 00000000 		.word	DMA_ZERO_VAL.4848
 500 004c 00000000 		.word	DMA_ZERO_VAL.4848
 501 0050 00000048 		.word	1207959552
 502 0054 10040048 		.word	1207960592
 503 0058 30040048 		.word	1207960624
 504 005c 08000048 		.word	1207959560
 505 0060 10000048 		.word	1207959568
 506 0064 90000048 		.word	1207959696
 507 0068 10010048 		.word	1207959824
 508 006c 90010048 		.word	1207959952
 509 0070 10020048 		.word	1207960080
 510 0074 90020048 		.word	1207960208
 511 0078 10030048 		.word	1207960336
 512 007c 90030048 		.word	1207960464
 513 0080 50040048 		.word	1207960656
 514 0084 60040048 		.word	1207960672
 515 0088 70040048 		.word	1207960688
 516 008c F0040048 		.word	1207960816
 517 0090 70050048 		.word	1207960944
 518 0094 F0050048 		.word	1207961072
 519 0098 70060048 		.word	1207961200
 520 009c F0060048 		.word	1207961328
 521 00a0 70070048 		.word	1207961456
 522 00a4 F0070048 		.word	1207961584
 523 00a8 70080048 		.word	1207961712
 524 00ac F0080048 		.word	1207961840
 525 00b0 70090048 		.word	1207961968
 526 00b4 F0090048 		.word	1207962096
 527 00b8 700A0048 		.word	1207962224
 528 00bc F00A0048 		.word	1207962352
 529 00c0 700B0048 		.word	1207962480
 530 00c4 F00B0048 		.word	1207962608
 531 00c8 700C0048 		.word	1207962736
 532              		.section	.dma_init,"a",%progbits
 533              		.set	.LANCHOR1,. + 0
ARM GAS  C:\Users\jthem\AppData\Local\Temp\ccilLXgB.s 			page 23


 534              		.type	CFG_TD_LIST0.4849, %object
 535              		.size	CFG_TD_LIST0.4849, 408
 536              	CFG_TD_LIST0.4849:
 537 0000 0800     		.2byte	8
 538 0002 02       		.byte	2
 539 0003 23       		.byte	35
 540 0004 0000     		.2byte	0
 541 0006 0876     		.2byte	30216
 542 0008 0800     		.2byte	8
 543 000a 03       		.byte	3
 544 000b 23       		.byte	35
 545 000c 0000     		.2byte	0
 546 000e 1076     		.2byte	30224
 547 0010 0800     		.2byte	8
 548 0012 04       		.byte	4
 549 0013 23       		.byte	35
 550 0014 0000     		.2byte	0
 551 0016 2876     		.2byte	30248
 552 0018 0800     		.2byte	8
 553 001a 05       		.byte	5
 554 001b 23       		.byte	35
 555 001c 0000     		.2byte	0
 556 001e 3076     		.2byte	30256
 557 0020 0500     		.2byte	5
 558 0022 06       		.byte	6
 559 0023 23       		.byte	35
 560 0024 0000     		.2byte	0
 561 0026 2070     		.2byte	28704
 562 0028 0500     		.2byte	5
 563 002a 07       		.byte	7
 564 002b 23       		.byte	35
 565 002c 0000     		.2byte	0
 566 002e 3070     		.2byte	28720
 567 0030 0500     		.2byte	5
 568 0032 08       		.byte	8
 569 0033 23       		.byte	35
 570 0034 0000     		.2byte	0
 571 0036 6070     		.2byte	28768
 572 0038 0500     		.2byte	5
 573 003a FE       		.byte	-2
 574 003b 23       		.byte	35
 575 003c 0000     		.2byte	0
 576 003e 7070     		.2byte	28784
 577 0040 1000     		.2byte	16
 578 0042 0A       		.byte	10
 579 0043 22       		.byte	34
 580 0044 0000     		.2byte	0
 581 0046 1051     		.2byte	20752
 582 0048 4000     		.2byte	64
 583 004a 0B       		.byte	11
 584 004b 22       		.byte	34
 585 004c 0000     		.2byte	0
 586 004e 3051     		.2byte	20784
 587 0050 1000     		.2byte	16
 588 0052 0C       		.byte	12
 589 0053 22       		.byte	34
 590 0054 0000     		.2byte	0
ARM GAS  C:\Users\jthem\AppData\Local\Temp\ccilLXgB.s 			page 24


 591 0056 C051     		.2byte	20928
 592 0058 1000     		.2byte	16
 593 005a FE       		.byte	-2
 594 005b 22       		.byte	34
 595 005c 0000     		.2byte	0
 596 005e F051     		.2byte	20976
 597 0060 8003     		.2byte	896
 598 0062 0E       		.byte	14
 599 0063 22       		.byte	34
 600 0064 0000     		.2byte	0
 601 0066 0000     		.2byte	0
 602 0068 0008     		.2byte	2048
 603 006a 0F       		.byte	15
 604 006b 22       		.byte	34
 605 006c 0000     		.2byte	0
 606 006e 0008     		.2byte	2048
 607 0070 0004     		.2byte	1024
 608 0072 10       		.byte	16
 609 0073 22       		.byte	34
 610 0074 0000     		.2byte	0
 611 0076 0018     		.2byte	6144
 612 0078 8000     		.2byte	128
 613 007a 11       		.byte	17
 614 007b 22       		.byte	34
 615 007c 0000     		.2byte	0
 616 007e 0042     		.2byte	16896
 617 0080 8000     		.2byte	128
 618 0082 12       		.byte	18
 619 0083 22       		.byte	34
 620 0084 0000     		.2byte	0
 621 0086 0043     		.2byte	17152
 622 0088 8004     		.2byte	1152
 623 008a 13       		.byte	19
 624 008b 22       		.byte	34
 625 008c 0000     		.2byte	0
 626 008e 0044     		.2byte	17408
 627 0090 8000     		.2byte	128
 628 0092 14       		.byte	20
 629 0093 22       		.byte	34
 630 0094 0000     		.2byte	0
 631 0096 0049     		.2byte	18688
 632 0098 0002     		.2byte	512
 633 009a FE       		.byte	-2
 634 009b 22       		.byte	34
 635 009c 0000     		.2byte	0
 636 009e 004C     		.2byte	19456
 637 00a0 0700     		.2byte	7
 638 00a2 16       		.byte	22
 639 00a3 23       		.byte	35
 640 00a4 0000     		.2byte	0
 641 00a6 0052     		.2byte	20992
 642 00a8 2000     		.2byte	32
 643 00aa 17       		.byte	23
 644 00ab 23       		.byte	35
 645 00ac 0000     		.2byte	0
 646 00ae 7064     		.2byte	25712
 647 00b0 2000     		.2byte	32
ARM GAS  C:\Users\jthem\AppData\Local\Temp\ccilLXgB.s 			page 25


 648 00b2 FE       		.byte	-2
 649 00b3 23       		.byte	35
 650 00b4 0000     		.2byte	0
 651 00b6 7065     		.2byte	25968
 652 00b8 0800     		.2byte	8
 653 00ba 19       		.byte	25
 654 00bb 23       		.byte	35
 655 00bc 0000     		.2byte	0
 656 00be 0051     		.2byte	20736
 657 00c0 8000     		.2byte	128
 658 00c2 1A       		.byte	26
 659 00c3 23       		.byte	35
 660 00c4 0000     		.2byte	0
 661 00c6 0004     		.2byte	1024
 662 00c8 8000     		.2byte	128
 663 00ca 1B       		.byte	27
 664 00cb 23       		.byte	35
 665 00cc 0000     		.2byte	0
 666 00ce 8004     		.2byte	1152
 667 00d0 8000     		.2byte	128
 668 00d2 1C       		.byte	28
 669 00d3 23       		.byte	35
 670 00d4 0000     		.2byte	0
 671 00d6 0006     		.2byte	1536
 672 00d8 8000     		.2byte	128
 673 00da 1D       		.byte	29
 674 00db 23       		.byte	35
 675 00dc 0000     		.2byte	0
 676 00de 8006     		.2byte	1664
 677 00e0 8000     		.2byte	128
 678 00e2 1E       		.byte	30
 679 00e3 23       		.byte	35
 680 00e4 0000     		.2byte	0
 681 00e6 0014     		.2byte	5120
 682 00e8 8000     		.2byte	128
 683 00ea 1F       		.byte	31
 684 00eb 23       		.byte	35
 685 00ec 0000     		.2byte	0
 686 00ee 8014     		.2byte	5248
 687 00f0 8000     		.2byte	128
 688 00f2 20       		.byte	32
 689 00f3 23       		.byte	35
 690 00f4 0000     		.2byte	0
 691 00f6 0016     		.2byte	5632
 692 00f8 8000     		.2byte	128
 693 00fa 21       		.byte	33
 694 00fb 23       		.byte	35
 695 00fc 0000     		.2byte	0
 696 00fe 8016     		.2byte	5760
 697 0100 1000     		.2byte	16
 698 0102 22       		.byte	34
 699 0103 23       		.byte	35
 700 0104 0000     		.2byte	0
 701 0106 1050     		.2byte	20496
 702 0108 1000     		.2byte	16
 703 010a 23       		.byte	35
 704 010b 23       		.byte	35
ARM GAS  C:\Users\jthem\AppData\Local\Temp\ccilLXgB.s 			page 26


 705 010c 0000     		.2byte	0
 706 010e 0050     		.2byte	20480
 707 0110 8000     		.2byte	128
 708 0112 24       		.byte	36
 709 0113 23       		.byte	35
 710 0114 0000     		.2byte	0
 711 0116 0015     		.2byte	5376
 712 0118 8000     		.2byte	128
 713 011a 25       		.byte	37
 714 011b 23       		.byte	35
 715 011c 0000     		.2byte	0
 716 011e 8015     		.2byte	5504
 717 0120 8000     		.2byte	128
 718 0122 26       		.byte	38
 719 0123 23       		.byte	35
 720 0124 0000     		.2byte	0
 721 0126 0017     		.2byte	5888
 722 0128 8000     		.2byte	128
 723 012a 27       		.byte	39
 724 012b 23       		.byte	35
 725 012c 0000     		.2byte	0
 726 012e 8017     		.2byte	6016
 727 0130 8000     		.2byte	128
 728 0132 28       		.byte	40
 729 0133 23       		.byte	35
 730 0134 0000     		.2byte	0
 731 0136 0007     		.2byte	1792
 732 0138 8000     		.2byte	128
 733 013a 29       		.byte	41
 734 013b 23       		.byte	35
 735 013c 0000     		.2byte	0
 736 013e 8007     		.2byte	1920
 737 0140 8000     		.2byte	128
 738 0142 2A       		.byte	42
 739 0143 23       		.byte	35
 740 0144 0000     		.2byte	0
 741 0146 0005     		.2byte	1280
 742 0148 8000     		.2byte	128
 743 014a 2B       		.byte	43
 744 014b 23       		.byte	35
 745 014c 0000     		.2byte	0
 746 014e 8005     		.2byte	1408
 747 0150 8000     		.2byte	128
 748 0152 2C       		.byte	44
 749 0153 23       		.byte	35
 750 0154 0000     		.2byte	0
 751 0156 8003     		.2byte	896
 752 0158 8000     		.2byte	128
 753 015a 2D       		.byte	45
 754 015b 23       		.byte	35
 755 015c 0000     		.2byte	0
 756 015e 8049     		.2byte	18816
 757 0160 8000     		.2byte	128
 758 0162 2E       		.byte	46
 759 0163 23       		.byte	35
 760 0164 0000     		.2byte	0
 761 0166 8048     		.2byte	18560
ARM GAS  C:\Users\jthem\AppData\Local\Temp\ccilLXgB.s 			page 27


 762 0168 8000     		.2byte	128
 763 016a 2F       		.byte	47
 764 016b 23       		.byte	35
 765 016c 0000     		.2byte	0
 766 016e 8043     		.2byte	17280
 767 0170 8000     		.2byte	128
 768 0172 30       		.byte	48
 769 0173 23       		.byte	35
 770 0174 0000     		.2byte	0
 771 0176 8042     		.2byte	17024
 772 0178 8000     		.2byte	128
 773 017a 31       		.byte	49
 774 017b 23       		.byte	35
 775 017c 0000     		.2byte	0
 776 017e 0041     		.2byte	16640
 777 0180 8000     		.2byte	128
 778 0182 32       		.byte	50
 779 0183 23       		.byte	35
 780 0184 0000     		.2byte	0
 781 0186 8041     		.2byte	16768
 782 0188 8000     		.2byte	128
 783 018a 33       		.byte	51
 784 018b 23       		.byte	35
 785 018c 0000     		.2byte	0
 786 018e 0040     		.2byte	16384
 787 0190 8000     		.2byte	128
 788 0192 FE       		.byte	-2
 789 0193 23       		.byte	35
 790 0194 0000     		.2byte	0
 791 0196 8040     		.2byte	16512
 792              		.type	CH1_ADDR_DATA0.4843, %object
 793              		.size	CH1_ADDR_DATA0.4843, 8
 794              	CH1_ADDR_DATA0.4843:
 795 0198 01       		.byte	1
 796 0199 00       		.byte	0
 797 019a 00       		.byte	0
 798 019b 00       		.byte	0
 799 019c 00       		.byte	0
 800 019d 20       		.byte	32
 801 019e 00       		.byte	0
 802 019f 40       		.byte	64
 803              		.type	CH2_ADDR_DATA0.4844, %object
 804              		.size	CH2_ADDR_DATA0.4844, 8
 805              	CH2_ADDR_DATA0.4844:
 806 01a0 01       		.byte	1
 807 01a1 00       		.byte	0
 808 01a2 00       		.byte	0
 809 01a3 00       		.byte	0
 810 01a4 00       		.byte	0
 811 01a5 20       		.byte	32
 812 01a6 01       		.byte	1
 813 01a7 40       		.byte	64
 814              		.type	CH5_ADDR_DATA0.4845, %object
 815              		.size	CH5_ADDR_DATA0.4845, 8
 816              	CH5_ADDR_DATA0.4845:
 817 01a8 01       		.byte	1
 818 01a9 00       		.byte	0
ARM GAS  C:\Users\jthem\AppData\Local\Temp\ccilLXgB.s 			page 28


 819 01aa 00       		.byte	0
 820 01ab 00       		.byte	0
 821 01ac 00       		.byte	0
 822 01ad 48       		.byte	72
 823 01ae 00       		.byte	0
 824 01af 40       		.byte	64
 825              		.type	CH6_ADDR_DATA0.4846, %object
 826              		.size	CH6_ADDR_DATA0.4846, 8
 827              	CH6_ADDR_DATA0.4846:
 828 01b0 01       		.byte	1
 829 01b1 00       		.byte	0
 830 01b2 00       		.byte	0
 831 01b3 00       		.byte	0
 832 01b4 00       		.byte	0
 833 01b5 48       		.byte	72
 834 01b6 01       		.byte	1
 835 01b7 40       		.byte	64
 836              		.type	DMA_TD_START_CMD.4847, %object
 837              		.size	DMA_TD_START_CMD.4847, 5
 838              	DMA_TD_START_CMD.4847:
 839 01b8 01       		.byte	1
 840 01b9 00       		.byte	0
 841 01ba 00       		.byte	0
 842 01bb 00       		.byte	0
 843 01bc 01       		.byte	1
 844              		.bss
 845              		.align	3
 846              		.set	.LANCHOR0,. + 0
 847              		.type	DMA_ZERO_VAL.4848, %object
 848              		.size	DMA_ZERO_VAL.4848, 4
 849              	DMA_ZERO_VAL.4848:
 850 0000 00000000 		.space	4
 851 0004 00000000 		.text
 852              	.Letext0:
 853              		.file 2 "c:\\program files (x86)\\cypress\\psoc creator\\3.3\\psoc creator\\import\\gnu\\arm\\4.9.
 854              		.file 3 ".\\Generated_Source\\PSoC5\\cytypes.h"
 855              		.file 4 ".\\Generated_Source\\PSoC5\\CyLib.h"