ARM GAS  C:\Users\jthem\AppData\Local\Temp\ccojL8Uh.s 			page 1


   1              		.syntax unified
   2              		.cpu cortex-m3
   3              		.fpu softvfp
   4              		.eabi_attribute 20, 1
   5              		.eabi_attribute 21, 1
   6              		.eabi_attribute 23, 3
   7              		.eabi_attribute 24, 1
   8              		.eabi_attribute 25, 1
   9              		.eabi_attribute 26, 1
  10              		.eabi_attribute 30, 4
  11              		.eabi_attribute 34, 1
  12              		.eabi_attribute 18, 4
  13              		.thumb
  14              		.file	"SPIM.c"
  15              		.text
  16              	.Ltext0:
  17              		.cfi_sections	.debug_frame
  18              		.section	.text.SPIM_Enable,"ax",%progbits
  19              		.align	1
  20              		.global	SPIM_Enable
  21              		.thumb
  22              		.thumb_func
  23              		.type	SPIM_Enable, %function
  24              	SPIM_Enable:
  25              	.LFB1:
  26              		.file 1 ".\\Generated_Source\\PSoC5\\SPIM.c"
   1:.\Generated_Source\PSoC5/SPIM.c **** /*******************************************************************************
   2:.\Generated_Source\PSoC5/SPIM.c **** * File Name: SPIM.c
   3:.\Generated_Source\PSoC5/SPIM.c **** * Version 2.50
   4:.\Generated_Source\PSoC5/SPIM.c **** *
   5:.\Generated_Source\PSoC5/SPIM.c **** * Description:
   6:.\Generated_Source\PSoC5/SPIM.c **** *  This file provides all API functionality of the SPI Master component.
   7:.\Generated_Source\PSoC5/SPIM.c **** *
   8:.\Generated_Source\PSoC5/SPIM.c **** * Note:
   9:.\Generated_Source\PSoC5/SPIM.c **** *  None.
  10:.\Generated_Source\PSoC5/SPIM.c **** *
  11:.\Generated_Source\PSoC5/SPIM.c **** ********************************************************************************
  12:.\Generated_Source\PSoC5/SPIM.c **** * Copyright 2008-2015, Cypress Semiconductor Corporation.  All rights reserved.
  13:.\Generated_Source\PSoC5/SPIM.c **** * You may use this file only in accordance with the license, terms, conditions,
  14:.\Generated_Source\PSoC5/SPIM.c **** * disclaimers, and limitations in the end user license agreement accompanying
  15:.\Generated_Source\PSoC5/SPIM.c **** * the software package with which this file was provided.
  16:.\Generated_Source\PSoC5/SPIM.c **** *******************************************************************************/
  17:.\Generated_Source\PSoC5/SPIM.c **** 
  18:.\Generated_Source\PSoC5/SPIM.c **** #include "SPIM_PVT.h"
  19:.\Generated_Source\PSoC5/SPIM.c **** 
  20:.\Generated_Source\PSoC5/SPIM.c **** #if(SPIM_TX_SOFTWARE_BUF_ENABLED)
  21:.\Generated_Source\PSoC5/SPIM.c ****     volatile uint8 SPIM_txBuffer[SPIM_TX_BUFFER_SIZE];
  22:.\Generated_Source\PSoC5/SPIM.c ****     volatile uint8 SPIM_txBufferFull;
  23:.\Generated_Source\PSoC5/SPIM.c ****     volatile uint8 SPIM_txBufferRead;
  24:.\Generated_Source\PSoC5/SPIM.c ****     volatile uint8 SPIM_txBufferWrite;
  25:.\Generated_Source\PSoC5/SPIM.c **** #endif /* (SPIM_TX_SOFTWARE_BUF_ENABLED) */
  26:.\Generated_Source\PSoC5/SPIM.c **** 
  27:.\Generated_Source\PSoC5/SPIM.c **** #if(SPIM_RX_SOFTWARE_BUF_ENABLED)
  28:.\Generated_Source\PSoC5/SPIM.c ****     volatile uint8 SPIM_rxBuffer[SPIM_RX_BUFFER_SIZE];
  29:.\Generated_Source\PSoC5/SPIM.c ****     volatile uint8 SPIM_rxBufferFull;
  30:.\Generated_Source\PSoC5/SPIM.c ****     volatile uint8 SPIM_rxBufferRead;
  31:.\Generated_Source\PSoC5/SPIM.c ****     volatile uint8 SPIM_rxBufferWrite;
ARM GAS  C:\Users\jthem\AppData\Local\Temp\ccojL8Uh.s 			page 2


  32:.\Generated_Source\PSoC5/SPIM.c **** #endif /* (SPIM_RX_SOFTWARE_BUF_ENABLED) */
  33:.\Generated_Source\PSoC5/SPIM.c **** 
  34:.\Generated_Source\PSoC5/SPIM.c **** uint8 SPIM_initVar = 0u;
  35:.\Generated_Source\PSoC5/SPIM.c **** 
  36:.\Generated_Source\PSoC5/SPIM.c **** volatile uint8 SPIM_swStatusTx;
  37:.\Generated_Source\PSoC5/SPIM.c **** volatile uint8 SPIM_swStatusRx;
  38:.\Generated_Source\PSoC5/SPIM.c **** 
  39:.\Generated_Source\PSoC5/SPIM.c **** 
  40:.\Generated_Source\PSoC5/SPIM.c **** /*******************************************************************************
  41:.\Generated_Source\PSoC5/SPIM.c **** * Function Name: SPIM_Init
  42:.\Generated_Source\PSoC5/SPIM.c **** ********************************************************************************
  43:.\Generated_Source\PSoC5/SPIM.c **** *
  44:.\Generated_Source\PSoC5/SPIM.c **** * Summary:
  45:.\Generated_Source\PSoC5/SPIM.c **** *  Inits/Restores default SPIM configuration provided with customizer.
  46:.\Generated_Source\PSoC5/SPIM.c **** *
  47:.\Generated_Source\PSoC5/SPIM.c **** * Parameters:
  48:.\Generated_Source\PSoC5/SPIM.c **** *  None.
  49:.\Generated_Source\PSoC5/SPIM.c **** *
  50:.\Generated_Source\PSoC5/SPIM.c **** * Return:
  51:.\Generated_Source\PSoC5/SPIM.c **** *  None.
  52:.\Generated_Source\PSoC5/SPIM.c **** *
  53:.\Generated_Source\PSoC5/SPIM.c **** * Side Effects:
  54:.\Generated_Source\PSoC5/SPIM.c **** *  When this function is called it initializes all of the necessary parameters
  55:.\Generated_Source\PSoC5/SPIM.c **** *  for execution. i.e. setting the initial interrupt mask, configuring the
  56:.\Generated_Source\PSoC5/SPIM.c **** *  interrupt service routine, configuring the bit-counter parameters and
  57:.\Generated_Source\PSoC5/SPIM.c **** *  clearing the FIFO and Status Register.
  58:.\Generated_Source\PSoC5/SPIM.c **** *
  59:.\Generated_Source\PSoC5/SPIM.c **** * Reentrant:
  60:.\Generated_Source\PSoC5/SPIM.c **** *  No.
  61:.\Generated_Source\PSoC5/SPIM.c **** *
  62:.\Generated_Source\PSoC5/SPIM.c **** *******************************************************************************/
  63:.\Generated_Source\PSoC5/SPIM.c **** void SPIM_Init(void) 
  64:.\Generated_Source\PSoC5/SPIM.c **** {
  65:.\Generated_Source\PSoC5/SPIM.c ****     /* Initialize the Bit counter */
  66:.\Generated_Source\PSoC5/SPIM.c ****     SPIM_COUNTER_PERIOD_REG = SPIM_BITCTR_INIT;
  67:.\Generated_Source\PSoC5/SPIM.c **** 
  68:.\Generated_Source\PSoC5/SPIM.c ****     /* Init TX ISR  */
  69:.\Generated_Source\PSoC5/SPIM.c ****     #if(0u != SPIM_INTERNAL_TX_INT_ENABLED)
  70:.\Generated_Source\PSoC5/SPIM.c ****         CyIntDisable         (SPIM_TX_ISR_NUMBER);
  71:.\Generated_Source\PSoC5/SPIM.c ****         CyIntSetPriority     (SPIM_TX_ISR_NUMBER,  SPIM_TX_ISR_PRIORITY);
  72:.\Generated_Source\PSoC5/SPIM.c ****         (void) CyIntSetVector(SPIM_TX_ISR_NUMBER, &SPIM_TX_ISR);
  73:.\Generated_Source\PSoC5/SPIM.c ****     #endif /* (0u != SPIM_INTERNAL_TX_INT_ENABLED) */
  74:.\Generated_Source\PSoC5/SPIM.c **** 
  75:.\Generated_Source\PSoC5/SPIM.c ****     /* Init RX ISR  */
  76:.\Generated_Source\PSoC5/SPIM.c ****     #if(0u != SPIM_INTERNAL_RX_INT_ENABLED)
  77:.\Generated_Source\PSoC5/SPIM.c ****         CyIntDisable         (SPIM_RX_ISR_NUMBER);
  78:.\Generated_Source\PSoC5/SPIM.c ****         CyIntSetPriority     (SPIM_RX_ISR_NUMBER,  SPIM_RX_ISR_PRIORITY);
  79:.\Generated_Source\PSoC5/SPIM.c ****         (void) CyIntSetVector(SPIM_RX_ISR_NUMBER, &SPIM_RX_ISR);
  80:.\Generated_Source\PSoC5/SPIM.c ****     #endif /* (0u != SPIM_INTERNAL_RX_INT_ENABLED) */
  81:.\Generated_Source\PSoC5/SPIM.c **** 
  82:.\Generated_Source\PSoC5/SPIM.c ****     /* Clear any stray data from the RX and TX FIFO */
  83:.\Generated_Source\PSoC5/SPIM.c ****     SPIM_ClearFIFO();
  84:.\Generated_Source\PSoC5/SPIM.c **** 
  85:.\Generated_Source\PSoC5/SPIM.c ****     #if(SPIM_RX_SOFTWARE_BUF_ENABLED)
  86:.\Generated_Source\PSoC5/SPIM.c ****         SPIM_rxBufferFull  = 0u;
  87:.\Generated_Source\PSoC5/SPIM.c ****         SPIM_rxBufferRead  = 0u;
  88:.\Generated_Source\PSoC5/SPIM.c ****         SPIM_rxBufferWrite = 0u;
ARM GAS  C:\Users\jthem\AppData\Local\Temp\ccojL8Uh.s 			page 3


  89:.\Generated_Source\PSoC5/SPIM.c ****     #endif /* (SPIM_RX_SOFTWARE_BUF_ENABLED) */
  90:.\Generated_Source\PSoC5/SPIM.c **** 
  91:.\Generated_Source\PSoC5/SPIM.c ****     #if(SPIM_TX_SOFTWARE_BUF_ENABLED)
  92:.\Generated_Source\PSoC5/SPIM.c ****         SPIM_txBufferFull  = 0u;
  93:.\Generated_Source\PSoC5/SPIM.c ****         SPIM_txBufferRead  = 0u;
  94:.\Generated_Source\PSoC5/SPIM.c ****         SPIM_txBufferWrite = 0u;
  95:.\Generated_Source\PSoC5/SPIM.c ****     #endif /* (SPIM_TX_SOFTWARE_BUF_ENABLED) */
  96:.\Generated_Source\PSoC5/SPIM.c **** 
  97:.\Generated_Source\PSoC5/SPIM.c ****     (void) SPIM_ReadTxStatus(); /* Clear Tx status and swStatusTx */
  98:.\Generated_Source\PSoC5/SPIM.c ****     (void) SPIM_ReadRxStatus(); /* Clear Rx status and swStatusRx */
  99:.\Generated_Source\PSoC5/SPIM.c **** 
 100:.\Generated_Source\PSoC5/SPIM.c ****     /* Configure TX and RX interrupt mask */
 101:.\Generated_Source\PSoC5/SPIM.c ****     SPIM_TX_STATUS_MASK_REG = SPIM_TX_INIT_INTERRUPTS_MASK;
 102:.\Generated_Source\PSoC5/SPIM.c ****     SPIM_RX_STATUS_MASK_REG = SPIM_RX_INIT_INTERRUPTS_MASK;
 103:.\Generated_Source\PSoC5/SPIM.c **** }
 104:.\Generated_Source\PSoC5/SPIM.c **** 
 105:.\Generated_Source\PSoC5/SPIM.c **** 
 106:.\Generated_Source\PSoC5/SPIM.c **** /*******************************************************************************
 107:.\Generated_Source\PSoC5/SPIM.c **** * Function Name: SPIM_Enable
 108:.\Generated_Source\PSoC5/SPIM.c **** ********************************************************************************
 109:.\Generated_Source\PSoC5/SPIM.c **** *
 110:.\Generated_Source\PSoC5/SPIM.c **** * Summary:
 111:.\Generated_Source\PSoC5/SPIM.c **** *  Enable SPIM component.
 112:.\Generated_Source\PSoC5/SPIM.c **** *
 113:.\Generated_Source\PSoC5/SPIM.c **** * Parameters:
 114:.\Generated_Source\PSoC5/SPIM.c **** *  None.
 115:.\Generated_Source\PSoC5/SPIM.c **** *
 116:.\Generated_Source\PSoC5/SPIM.c **** * Return:
 117:.\Generated_Source\PSoC5/SPIM.c **** *  None.
 118:.\Generated_Source\PSoC5/SPIM.c **** *
 119:.\Generated_Source\PSoC5/SPIM.c **** *******************************************************************************/
 120:.\Generated_Source\PSoC5/SPIM.c **** void SPIM_Enable(void) 
 121:.\Generated_Source\PSoC5/SPIM.c **** {
  27              		.loc 1 121 0
  28              		.cfi_startproc
  29              		@ args = 0, pretend = 0, frame = 0
  30              		@ frame_needed = 0, uses_anonymous_args = 0
  31 0000 08B5     		push	{r3, lr}
  32              		.cfi_def_cfa_offset 8
  33              		.cfi_offset 3, -8
  34              		.cfi_offset 14, -4
 122:.\Generated_Source\PSoC5/SPIM.c ****     uint8 enableInterrupts;
 123:.\Generated_Source\PSoC5/SPIM.c **** 
 124:.\Generated_Source\PSoC5/SPIM.c ****     enableInterrupts = CyEnterCriticalSection();
  35              		.loc 1 124 0
  36 0002 FFF7FEFF 		bl	CyEnterCriticalSection
  37              	.LVL0:
 125:.\Generated_Source\PSoC5/SPIM.c ****     SPIM_COUNTER_CONTROL_REG |= SPIM_CNTR_ENABLE;
  38              		.loc 1 125 0
  39 0006 0B4A     		ldr	r2, .L2
  40 0008 1378     		ldrb	r3, [r2]	@ zero_extendqisi2
  41 000a 43F02003 		orr	r3, r3, #32
  42 000e 1370     		strb	r3, [r2]
 126:.\Generated_Source\PSoC5/SPIM.c ****     SPIM_TX_STATUS_ACTL_REG  |= SPIM_INT_ENABLE;
  43              		.loc 1 126 0
  44 0010 5378     		ldrb	r3, [r2, #1]	@ zero_extendqisi2
  45 0012 43F01003 		orr	r3, r3, #16
ARM GAS  C:\Users\jthem\AppData\Local\Temp\ccojL8Uh.s 			page 4


  46 0016 5370     		strb	r3, [r2, #1]
 127:.\Generated_Source\PSoC5/SPIM.c ****     SPIM_RX_STATUS_ACTL_REG  |= SPIM_INT_ENABLE;
  47              		.loc 1 127 0
  48 0018 12F8013C 		ldrb	r3, [r2, #-1]	@ zero_extendqisi2
  49 001c 43F01003 		orr	r3, r3, #16
  50 0020 02F8013C 		strb	r3, [r2, #-1]
 128:.\Generated_Source\PSoC5/SPIM.c ****     CyExitCriticalSection(enableInterrupts);
  51              		.loc 1 128 0
  52 0024 FFF7FEFF 		bl	CyExitCriticalSection
  53              	.LVL1:
  54              	.LBB50:
  55              	.LBB51:
 129:.\Generated_Source\PSoC5/SPIM.c **** 
 130:.\Generated_Source\PSoC5/SPIM.c ****     #if(0u != SPIM_INTERNAL_CLOCK)
 131:.\Generated_Source\PSoC5/SPIM.c ****         SPIM_IntClock_Enable();
 132:.\Generated_Source\PSoC5/SPIM.c ****     #endif /* (0u != SPIM_INTERNAL_CLOCK) */
 133:.\Generated_Source\PSoC5/SPIM.c **** 
 134:.\Generated_Source\PSoC5/SPIM.c ****     SPIM_EnableTxInt();
 135:.\Generated_Source\PSoC5/SPIM.c ****     SPIM_EnableRxInt();
 136:.\Generated_Source\PSoC5/SPIM.c **** }
 137:.\Generated_Source\PSoC5/SPIM.c **** 
 138:.\Generated_Source\PSoC5/SPIM.c **** 
 139:.\Generated_Source\PSoC5/SPIM.c **** /*******************************************************************************
 140:.\Generated_Source\PSoC5/SPIM.c **** * Function Name: SPIM_Start
 141:.\Generated_Source\PSoC5/SPIM.c **** ********************************************************************************
 142:.\Generated_Source\PSoC5/SPIM.c **** *
 143:.\Generated_Source\PSoC5/SPIM.c **** * Summary:
 144:.\Generated_Source\PSoC5/SPIM.c **** *  Initialize and Enable the SPI Master component.
 145:.\Generated_Source\PSoC5/SPIM.c **** *
 146:.\Generated_Source\PSoC5/SPIM.c **** * Parameters:
 147:.\Generated_Source\PSoC5/SPIM.c **** *  None.
 148:.\Generated_Source\PSoC5/SPIM.c **** *
 149:.\Generated_Source\PSoC5/SPIM.c **** * Return:
 150:.\Generated_Source\PSoC5/SPIM.c **** *  None.
 151:.\Generated_Source\PSoC5/SPIM.c **** *
 152:.\Generated_Source\PSoC5/SPIM.c **** * Global variables:
 153:.\Generated_Source\PSoC5/SPIM.c **** *  SPIM_initVar - used to check initial configuration, modified on
 154:.\Generated_Source\PSoC5/SPIM.c **** *  first function call.
 155:.\Generated_Source\PSoC5/SPIM.c **** *
 156:.\Generated_Source\PSoC5/SPIM.c **** * Theory:
 157:.\Generated_Source\PSoC5/SPIM.c **** *  Enable the clock input to enable operation.
 158:.\Generated_Source\PSoC5/SPIM.c **** *
 159:.\Generated_Source\PSoC5/SPIM.c **** * Reentrant:
 160:.\Generated_Source\PSoC5/SPIM.c **** *  No.
 161:.\Generated_Source\PSoC5/SPIM.c **** *
 162:.\Generated_Source\PSoC5/SPIM.c **** *******************************************************************************/
 163:.\Generated_Source\PSoC5/SPIM.c **** void SPIM_Start(void) 
 164:.\Generated_Source\PSoC5/SPIM.c **** {
 165:.\Generated_Source\PSoC5/SPIM.c ****     if(0u == SPIM_initVar)
 166:.\Generated_Source\PSoC5/SPIM.c ****     {
 167:.\Generated_Source\PSoC5/SPIM.c ****         SPIM_Init();
 168:.\Generated_Source\PSoC5/SPIM.c ****         SPIM_initVar = 1u;
 169:.\Generated_Source\PSoC5/SPIM.c ****     }
 170:.\Generated_Source\PSoC5/SPIM.c **** 
 171:.\Generated_Source\PSoC5/SPIM.c ****     SPIM_Enable();
 172:.\Generated_Source\PSoC5/SPIM.c **** }
 173:.\Generated_Source\PSoC5/SPIM.c **** 
ARM GAS  C:\Users\jthem\AppData\Local\Temp\ccojL8Uh.s 			page 5


 174:.\Generated_Source\PSoC5/SPIM.c **** 
 175:.\Generated_Source\PSoC5/SPIM.c **** /*******************************************************************************
 176:.\Generated_Source\PSoC5/SPIM.c **** * Function Name: SPIM_Stop
 177:.\Generated_Source\PSoC5/SPIM.c **** ********************************************************************************
 178:.\Generated_Source\PSoC5/SPIM.c **** *
 179:.\Generated_Source\PSoC5/SPIM.c **** * Summary:
 180:.\Generated_Source\PSoC5/SPIM.c **** *  Disable the SPI Master component.
 181:.\Generated_Source\PSoC5/SPIM.c **** *
 182:.\Generated_Source\PSoC5/SPIM.c **** * Parameters:
 183:.\Generated_Source\PSoC5/SPIM.c **** *  None.
 184:.\Generated_Source\PSoC5/SPIM.c **** *
 185:.\Generated_Source\PSoC5/SPIM.c **** * Return:
 186:.\Generated_Source\PSoC5/SPIM.c **** *  None.
 187:.\Generated_Source\PSoC5/SPIM.c **** *
 188:.\Generated_Source\PSoC5/SPIM.c **** * Theory:
 189:.\Generated_Source\PSoC5/SPIM.c **** *  Disable the clock input to enable operation.
 190:.\Generated_Source\PSoC5/SPIM.c **** *
 191:.\Generated_Source\PSoC5/SPIM.c **** *******************************************************************************/
 192:.\Generated_Source\PSoC5/SPIM.c **** void SPIM_Stop(void) 
 193:.\Generated_Source\PSoC5/SPIM.c **** {
 194:.\Generated_Source\PSoC5/SPIM.c ****     uint8 enableInterrupts;
 195:.\Generated_Source\PSoC5/SPIM.c **** 
 196:.\Generated_Source\PSoC5/SPIM.c ****     enableInterrupts = CyEnterCriticalSection();
 197:.\Generated_Source\PSoC5/SPIM.c ****     SPIM_TX_STATUS_ACTL_REG &= ((uint8) ~SPIM_INT_ENABLE);
 198:.\Generated_Source\PSoC5/SPIM.c ****     SPIM_RX_STATUS_ACTL_REG &= ((uint8) ~SPIM_INT_ENABLE);
 199:.\Generated_Source\PSoC5/SPIM.c ****     CyExitCriticalSection(enableInterrupts);
 200:.\Generated_Source\PSoC5/SPIM.c **** 
 201:.\Generated_Source\PSoC5/SPIM.c ****     #if(0u != SPIM_INTERNAL_CLOCK)
 202:.\Generated_Source\PSoC5/SPIM.c ****         SPIM_IntClock_Disable();
 203:.\Generated_Source\PSoC5/SPIM.c ****     #endif /* (0u != SPIM_INTERNAL_CLOCK) */
 204:.\Generated_Source\PSoC5/SPIM.c **** 
 205:.\Generated_Source\PSoC5/SPIM.c ****     SPIM_DisableTxInt();
 206:.\Generated_Source\PSoC5/SPIM.c ****     SPIM_DisableRxInt();
 207:.\Generated_Source\PSoC5/SPIM.c **** }
 208:.\Generated_Source\PSoC5/SPIM.c **** 
 209:.\Generated_Source\PSoC5/SPIM.c **** 
 210:.\Generated_Source\PSoC5/SPIM.c **** /*******************************************************************************
 211:.\Generated_Source\PSoC5/SPIM.c **** * Function Name: SPIM_EnableTxInt
 212:.\Generated_Source\PSoC5/SPIM.c **** ********************************************************************************
 213:.\Generated_Source\PSoC5/SPIM.c **** *
 214:.\Generated_Source\PSoC5/SPIM.c **** * Summary:
 215:.\Generated_Source\PSoC5/SPIM.c **** *  Enable internal Tx interrupt generation.
 216:.\Generated_Source\PSoC5/SPIM.c **** *
 217:.\Generated_Source\PSoC5/SPIM.c **** * Parameters:
 218:.\Generated_Source\PSoC5/SPIM.c **** *  None.
 219:.\Generated_Source\PSoC5/SPIM.c **** *
 220:.\Generated_Source\PSoC5/SPIM.c **** * Return:
 221:.\Generated_Source\PSoC5/SPIM.c **** *  None.
 222:.\Generated_Source\PSoC5/SPIM.c **** *
 223:.\Generated_Source\PSoC5/SPIM.c **** * Theory:
 224:.\Generated_Source\PSoC5/SPIM.c **** *  Enable the internal Tx interrupt output -or- the interrupt component itself.
 225:.\Generated_Source\PSoC5/SPIM.c **** *
 226:.\Generated_Source\PSoC5/SPIM.c **** *******************************************************************************/
 227:.\Generated_Source\PSoC5/SPIM.c **** void SPIM_EnableTxInt(void) 
 228:.\Generated_Source\PSoC5/SPIM.c **** {
 229:.\Generated_Source\PSoC5/SPIM.c ****     #if(0u != SPIM_INTERNAL_TX_INT_ENABLED)
 230:.\Generated_Source\PSoC5/SPIM.c ****         CyIntEnable(SPIM_TX_ISR_NUMBER);
ARM GAS  C:\Users\jthem\AppData\Local\Temp\ccojL8Uh.s 			page 6


  56              		.loc 1 230 0
  57 0028 034B     		ldr	r3, .L2+4
  58 002a 0222     		movs	r2, #2
  59 002c 1A60     		str	r2, [r3]
  60              	.LBE51:
  61              	.LBE50:
  62              	.LBB52:
  63              	.LBB53:
 231:.\Generated_Source\PSoC5/SPIM.c ****     #endif /* (0u != SPIM_INTERNAL_TX_INT_ENABLED) */
 232:.\Generated_Source\PSoC5/SPIM.c **** }
 233:.\Generated_Source\PSoC5/SPIM.c **** 
 234:.\Generated_Source\PSoC5/SPIM.c **** 
 235:.\Generated_Source\PSoC5/SPIM.c **** /*******************************************************************************
 236:.\Generated_Source\PSoC5/SPIM.c **** * Function Name: SPIM_EnableRxInt
 237:.\Generated_Source\PSoC5/SPIM.c **** ********************************************************************************
 238:.\Generated_Source\PSoC5/SPIM.c **** *
 239:.\Generated_Source\PSoC5/SPIM.c **** * Summary:
 240:.\Generated_Source\PSoC5/SPIM.c **** *  Enable internal Rx interrupt generation.
 241:.\Generated_Source\PSoC5/SPIM.c **** *
 242:.\Generated_Source\PSoC5/SPIM.c **** * Parameters:
 243:.\Generated_Source\PSoC5/SPIM.c **** *  None.
 244:.\Generated_Source\PSoC5/SPIM.c **** *
 245:.\Generated_Source\PSoC5/SPIM.c **** * Return:
 246:.\Generated_Source\PSoC5/SPIM.c **** *  None.
 247:.\Generated_Source\PSoC5/SPIM.c **** *
 248:.\Generated_Source\PSoC5/SPIM.c **** * Theory:
 249:.\Generated_Source\PSoC5/SPIM.c **** *  Enable the internal Rx interrupt output -or- the interrupt component itself.
 250:.\Generated_Source\PSoC5/SPIM.c **** *
 251:.\Generated_Source\PSoC5/SPIM.c **** *******************************************************************************/
 252:.\Generated_Source\PSoC5/SPIM.c **** void SPIM_EnableRxInt(void) 
 253:.\Generated_Source\PSoC5/SPIM.c **** {
 254:.\Generated_Source\PSoC5/SPIM.c ****     #if(0u != SPIM_INTERNAL_RX_INT_ENABLED)
 255:.\Generated_Source\PSoC5/SPIM.c ****         CyIntEnable(SPIM_RX_ISR_NUMBER);
  64              		.loc 1 255 0
  65 002e 0122     		movs	r2, #1
  66 0030 1A60     		str	r2, [r3]
  67 0032 08BD     		pop	{r3, pc}
  68              	.L3:
  69              		.align	2
  70              	.L2:
  71 0034 96650040 		.word	1073767830
  72 0038 00E100E0 		.word	-536813312
  73              	.LBE53:
  74              	.LBE52:
  75              		.cfi_endproc
  76              	.LFE1:
  77              		.size	SPIM_Enable, .-SPIM_Enable
  78              		.section	.text.SPIM_Stop,"ax",%progbits
  79              		.align	1
  80              		.global	SPIM_Stop
  81              		.thumb
  82              		.thumb_func
  83              		.type	SPIM_Stop, %function
  84              	SPIM_Stop:
  85              	.LFB3:
 193:.\Generated_Source\PSoC5/SPIM.c ****     uint8 enableInterrupts;
  86              		.loc 1 193 0
ARM GAS  C:\Users\jthem\AppData\Local\Temp\ccojL8Uh.s 			page 7


  87              		.cfi_startproc
  88              		@ args = 0, pretend = 0, frame = 0
  89              		@ frame_needed = 0, uses_anonymous_args = 0
  90 0000 08B5     		push	{r3, lr}
  91              		.cfi_def_cfa_offset 8
  92              		.cfi_offset 3, -8
  93              		.cfi_offset 14, -4
 196:.\Generated_Source\PSoC5/SPIM.c ****     SPIM_TX_STATUS_ACTL_REG &= ((uint8) ~SPIM_INT_ENABLE);
  94              		.loc 1 196 0
  95 0002 FFF7FEFF 		bl	CyEnterCriticalSection
  96              	.LVL2:
 197:.\Generated_Source\PSoC5/SPIM.c ****     SPIM_RX_STATUS_ACTL_REG &= ((uint8) ~SPIM_INT_ENABLE);
  97              		.loc 1 197 0
  98 0006 094A     		ldr	r2, .L5
  99 0008 1378     		ldrb	r3, [r2]	@ zero_extendqisi2
 100 000a 03F0EF03 		and	r3, r3, #239
 101 000e 1370     		strb	r3, [r2]
 198:.\Generated_Source\PSoC5/SPIM.c ****     CyExitCriticalSection(enableInterrupts);
 102              		.loc 1 198 0
 103 0010 12F8023C 		ldrb	r3, [r2, #-2]	@ zero_extendqisi2
 104 0014 03F0EF03 		and	r3, r3, #239
 105 0018 02F8023C 		strb	r3, [r2, #-2]
 199:.\Generated_Source\PSoC5/SPIM.c **** 
 106              		.loc 1 199 0
 107 001c FFF7FEFF 		bl	CyExitCriticalSection
 108              	.LVL3:
 109              	.LBB54:
 110              	.LBB55:
 256:.\Generated_Source\PSoC5/SPIM.c ****     #endif /* (0u != SPIM_INTERNAL_RX_INT_ENABLED) */
 257:.\Generated_Source\PSoC5/SPIM.c **** }
 258:.\Generated_Source\PSoC5/SPIM.c **** 
 259:.\Generated_Source\PSoC5/SPIM.c **** 
 260:.\Generated_Source\PSoC5/SPIM.c **** /*******************************************************************************
 261:.\Generated_Source\PSoC5/SPIM.c **** * Function Name: SPIM_DisableTxInt
 262:.\Generated_Source\PSoC5/SPIM.c **** ********************************************************************************
 263:.\Generated_Source\PSoC5/SPIM.c **** *
 264:.\Generated_Source\PSoC5/SPIM.c **** * Summary:
 265:.\Generated_Source\PSoC5/SPIM.c **** *  Disable internal Tx interrupt generation.
 266:.\Generated_Source\PSoC5/SPIM.c **** *
 267:.\Generated_Source\PSoC5/SPIM.c **** * Parameters:
 268:.\Generated_Source\PSoC5/SPIM.c **** *  None.
 269:.\Generated_Source\PSoC5/SPIM.c **** *
 270:.\Generated_Source\PSoC5/SPIM.c **** * Return:
 271:.\Generated_Source\PSoC5/SPIM.c **** *  None.
 272:.\Generated_Source\PSoC5/SPIM.c **** *
 273:.\Generated_Source\PSoC5/SPIM.c **** * Theory:
 274:.\Generated_Source\PSoC5/SPIM.c **** *  Disable the internal Tx interrupt output -or- the interrupt component itself.
 275:.\Generated_Source\PSoC5/SPIM.c **** *
 276:.\Generated_Source\PSoC5/SPIM.c **** *******************************************************************************/
 277:.\Generated_Source\PSoC5/SPIM.c **** void SPIM_DisableTxInt(void) 
 278:.\Generated_Source\PSoC5/SPIM.c **** {
 279:.\Generated_Source\PSoC5/SPIM.c ****     #if(0u != SPIM_INTERNAL_TX_INT_ENABLED)
 280:.\Generated_Source\PSoC5/SPIM.c ****         CyIntDisable(SPIM_TX_ISR_NUMBER);
 111              		.loc 1 280 0
 112 0020 034B     		ldr	r3, .L5+4
 113 0022 0222     		movs	r2, #2
 114 0024 1A60     		str	r2, [r3]
ARM GAS  C:\Users\jthem\AppData\Local\Temp\ccojL8Uh.s 			page 8


 115              	.LBE55:
 116              	.LBE54:
 117              	.LBB56:
 118              	.LBB57:
 281:.\Generated_Source\PSoC5/SPIM.c ****     #endif /* (0u != SPIM_INTERNAL_TX_INT_ENABLED) */
 282:.\Generated_Source\PSoC5/SPIM.c **** }
 283:.\Generated_Source\PSoC5/SPIM.c **** 
 284:.\Generated_Source\PSoC5/SPIM.c **** 
 285:.\Generated_Source\PSoC5/SPIM.c **** /*******************************************************************************
 286:.\Generated_Source\PSoC5/SPIM.c **** * Function Name: SPIM_DisableRxInt
 287:.\Generated_Source\PSoC5/SPIM.c **** ********************************************************************************
 288:.\Generated_Source\PSoC5/SPIM.c **** *
 289:.\Generated_Source\PSoC5/SPIM.c **** * Summary:
 290:.\Generated_Source\PSoC5/SPIM.c **** *  Disable internal Rx interrupt generation.
 291:.\Generated_Source\PSoC5/SPIM.c **** *
 292:.\Generated_Source\PSoC5/SPIM.c **** * Parameters:
 293:.\Generated_Source\PSoC5/SPIM.c **** *  None.
 294:.\Generated_Source\PSoC5/SPIM.c **** *
 295:.\Generated_Source\PSoC5/SPIM.c **** * Return:
 296:.\Generated_Source\PSoC5/SPIM.c **** *  None.
 297:.\Generated_Source\PSoC5/SPIM.c **** *
 298:.\Generated_Source\PSoC5/SPIM.c **** * Theory:
 299:.\Generated_Source\PSoC5/SPIM.c **** *  Disable the internal Rx interrupt output -or- the interrupt component itself.
 300:.\Generated_Source\PSoC5/SPIM.c **** *
 301:.\Generated_Source\PSoC5/SPIM.c **** *******************************************************************************/
 302:.\Generated_Source\PSoC5/SPIM.c **** void SPIM_DisableRxInt(void) 
 303:.\Generated_Source\PSoC5/SPIM.c **** {
 304:.\Generated_Source\PSoC5/SPIM.c ****     #if(0u != SPIM_INTERNAL_RX_INT_ENABLED)
 305:.\Generated_Source\PSoC5/SPIM.c ****         CyIntDisable(SPIM_RX_ISR_NUMBER);
 119              		.loc 1 305 0
 120 0026 0122     		movs	r2, #1
 121 0028 1A60     		str	r2, [r3]
 122 002a 08BD     		pop	{r3, pc}
 123              	.L6:
 124              		.align	2
 125              	.L5:
 126 002c 97650040 		.word	1073767831
 127 0030 80E100E0 		.word	-536813184
 128              	.LBE57:
 129              	.LBE56:
 130              		.cfi_endproc
 131              	.LFE3:
 132              		.size	SPIM_Stop, .-SPIM_Stop
 133              		.section	.text.SPIM_EnableTxInt,"ax",%progbits
 134              		.align	1
 135              		.global	SPIM_EnableTxInt
 136              		.thumb
 137              		.thumb_func
 138              		.type	SPIM_EnableTxInt, %function
 139              	SPIM_EnableTxInt:
 140              	.LFB4:
 228:.\Generated_Source\PSoC5/SPIM.c ****     #if(0u != SPIM_INTERNAL_TX_INT_ENABLED)
 141              		.loc 1 228 0
 142              		.cfi_startproc
 143              		@ args = 0, pretend = 0, frame = 0
 144              		@ frame_needed = 0, uses_anonymous_args = 0
 145              		@ link register save eliminated.
ARM GAS  C:\Users\jthem\AppData\Local\Temp\ccojL8Uh.s 			page 9


 230:.\Generated_Source\PSoC5/SPIM.c ****     #endif /* (0u != SPIM_INTERNAL_TX_INT_ENABLED) */
 146              		.loc 1 230 0
 147 0000 014B     		ldr	r3, .L8
 148 0002 0222     		movs	r2, #2
 149 0004 1A60     		str	r2, [r3]
 150 0006 7047     		bx	lr
 151              	.L9:
 152              		.align	2
 153              	.L8:
 154 0008 00E100E0 		.word	-536813312
 155              		.cfi_endproc
 156              	.LFE4:
 157              		.size	SPIM_EnableTxInt, .-SPIM_EnableTxInt
 158              		.section	.text.SPIM_EnableRxInt,"ax",%progbits
 159              		.align	1
 160              		.global	SPIM_EnableRxInt
 161              		.thumb
 162              		.thumb_func
 163              		.type	SPIM_EnableRxInt, %function
 164              	SPIM_EnableRxInt:
 165              	.LFB5:
 253:.\Generated_Source\PSoC5/SPIM.c ****     #if(0u != SPIM_INTERNAL_RX_INT_ENABLED)
 166              		.loc 1 253 0
 167              		.cfi_startproc
 168              		@ args = 0, pretend = 0, frame = 0
 169              		@ frame_needed = 0, uses_anonymous_args = 0
 170              		@ link register save eliminated.
 255:.\Generated_Source\PSoC5/SPIM.c ****     #endif /* (0u != SPIM_INTERNAL_RX_INT_ENABLED) */
 171              		.loc 1 255 0
 172 0000 014B     		ldr	r3, .L11
 173 0002 0122     		movs	r2, #1
 174 0004 1A60     		str	r2, [r3]
 175 0006 7047     		bx	lr
 176              	.L12:
 177              		.align	2
 178              	.L11:
 179 0008 00E100E0 		.word	-536813312
 180              		.cfi_endproc
 181              	.LFE5:
 182              		.size	SPIM_EnableRxInt, .-SPIM_EnableRxInt
 183              		.section	.text.SPIM_DisableTxInt,"ax",%progbits
 184              		.align	1
 185              		.global	SPIM_DisableTxInt
 186              		.thumb
 187              		.thumb_func
 188              		.type	SPIM_DisableTxInt, %function
 189              	SPIM_DisableTxInt:
 190              	.LFB6:
 278:.\Generated_Source\PSoC5/SPIM.c ****     #if(0u != SPIM_INTERNAL_TX_INT_ENABLED)
 191              		.loc 1 278 0
 192              		.cfi_startproc
 193              		@ args = 0, pretend = 0, frame = 0
 194              		@ frame_needed = 0, uses_anonymous_args = 0
 195              		@ link register save eliminated.
 280:.\Generated_Source\PSoC5/SPIM.c ****     #endif /* (0u != SPIM_INTERNAL_TX_INT_ENABLED) */
 196              		.loc 1 280 0
 197 0000 014B     		ldr	r3, .L14
ARM GAS  C:\Users\jthem\AppData\Local\Temp\ccojL8Uh.s 			page 10


 198 0002 0222     		movs	r2, #2
 199 0004 1A60     		str	r2, [r3]
 200 0006 7047     		bx	lr
 201              	.L15:
 202              		.align	2
 203              	.L14:
 204 0008 80E100E0 		.word	-536813184
 205              		.cfi_endproc
 206              	.LFE6:
 207              		.size	SPIM_DisableTxInt, .-SPIM_DisableTxInt
 208              		.section	.text.SPIM_DisableRxInt,"ax",%progbits
 209              		.align	1
 210              		.global	SPIM_DisableRxInt
 211              		.thumb
 212              		.thumb_func
 213              		.type	SPIM_DisableRxInt, %function
 214              	SPIM_DisableRxInt:
 215              	.LFB7:
 303:.\Generated_Source\PSoC5/SPIM.c ****     #if(0u != SPIM_INTERNAL_RX_INT_ENABLED)
 216              		.loc 1 303 0
 217              		.cfi_startproc
 218              		@ args = 0, pretend = 0, frame = 0
 219              		@ frame_needed = 0, uses_anonymous_args = 0
 220              		@ link register save eliminated.
 221              		.loc 1 305 0
 222 0000 014B     		ldr	r3, .L17
 223 0002 0122     		movs	r2, #1
 224 0004 1A60     		str	r2, [r3]
 225 0006 7047     		bx	lr
 226              	.L18:
 227              		.align	2
 228              	.L17:
 229 0008 80E100E0 		.word	-536813184
 230              		.cfi_endproc
 231              	.LFE7:
 232              		.size	SPIM_DisableRxInt, .-SPIM_DisableRxInt
 233              		.section	.text.SPIM_SetTxInterruptMode,"ax",%progbits
 234              		.align	1
 235              		.global	SPIM_SetTxInterruptMode
 236              		.thumb
 237              		.thumb_func
 238              		.type	SPIM_SetTxInterruptMode, %function
 239              	SPIM_SetTxInterruptMode:
 240              	.LFB8:
 306:.\Generated_Source\PSoC5/SPIM.c ****     #endif /* (0u != SPIM_INTERNAL_RX_INT_ENABLED) */
 307:.\Generated_Source\PSoC5/SPIM.c **** }
 308:.\Generated_Source\PSoC5/SPIM.c **** 
 309:.\Generated_Source\PSoC5/SPIM.c **** 
 310:.\Generated_Source\PSoC5/SPIM.c **** /*******************************************************************************
 311:.\Generated_Source\PSoC5/SPIM.c **** * Function Name: SPIM_SetTxInterruptMode
 312:.\Generated_Source\PSoC5/SPIM.c **** ********************************************************************************
 313:.\Generated_Source\PSoC5/SPIM.c **** *
 314:.\Generated_Source\PSoC5/SPIM.c **** * Summary:
 315:.\Generated_Source\PSoC5/SPIM.c **** *  Configure which status bits trigger an interrupt event.
 316:.\Generated_Source\PSoC5/SPIM.c **** *
 317:.\Generated_Source\PSoC5/SPIM.c **** * Parameters:
 318:.\Generated_Source\PSoC5/SPIM.c **** *  intSrc: An or'd combination of the desired status bit masks (defined in the
ARM GAS  C:\Users\jthem\AppData\Local\Temp\ccojL8Uh.s 			page 11


 319:.\Generated_Source\PSoC5/SPIM.c **** *  header file).
 320:.\Generated_Source\PSoC5/SPIM.c **** *
 321:.\Generated_Source\PSoC5/SPIM.c **** * Return:
 322:.\Generated_Source\PSoC5/SPIM.c **** *  None.
 323:.\Generated_Source\PSoC5/SPIM.c **** *
 324:.\Generated_Source\PSoC5/SPIM.c **** * Theory:
 325:.\Generated_Source\PSoC5/SPIM.c **** *  Enables the output of specific status bits to the interrupt controller.
 326:.\Generated_Source\PSoC5/SPIM.c **** *
 327:.\Generated_Source\PSoC5/SPIM.c **** *******************************************************************************/
 328:.\Generated_Source\PSoC5/SPIM.c **** void SPIM_SetTxInterruptMode(uint8 intSrc) 
 329:.\Generated_Source\PSoC5/SPIM.c **** {
 241              		.loc 1 329 0
 242              		.cfi_startproc
 243              		@ args = 0, pretend = 0, frame = 0
 244              		@ frame_needed = 0, uses_anonymous_args = 0
 245              		@ link register save eliminated.
 246              	.LVL4:
 330:.\Generated_Source\PSoC5/SPIM.c ****     SPIM_TX_STATUS_MASK_REG = intSrc;
 247              		.loc 1 330 0
 248 0000 014B     		ldr	r3, .L20
 249 0002 1870     		strb	r0, [r3]
 250 0004 7047     		bx	lr
 251              	.L21:
 252 0006 00BF     		.align	2
 253              	.L20:
 254 0008 87650040 		.word	1073767815
 255              		.cfi_endproc
 256              	.LFE8:
 257              		.size	SPIM_SetTxInterruptMode, .-SPIM_SetTxInterruptMode
 258              		.section	.text.SPIM_SetRxInterruptMode,"ax",%progbits
 259              		.align	1
 260              		.global	SPIM_SetRxInterruptMode
 261              		.thumb
 262              		.thumb_func
 263              		.type	SPIM_SetRxInterruptMode, %function
 264              	SPIM_SetRxInterruptMode:
 265              	.LFB9:
 331:.\Generated_Source\PSoC5/SPIM.c **** }
 332:.\Generated_Source\PSoC5/SPIM.c **** 
 333:.\Generated_Source\PSoC5/SPIM.c **** 
 334:.\Generated_Source\PSoC5/SPIM.c **** /*******************************************************************************
 335:.\Generated_Source\PSoC5/SPIM.c **** * Function Name: SPIM_SetRxInterruptMode
 336:.\Generated_Source\PSoC5/SPIM.c **** ********************************************************************************
 337:.\Generated_Source\PSoC5/SPIM.c **** *
 338:.\Generated_Source\PSoC5/SPIM.c **** * Summary:
 339:.\Generated_Source\PSoC5/SPIM.c **** *  Configure which status bits trigger an interrupt event.
 340:.\Generated_Source\PSoC5/SPIM.c **** *
 341:.\Generated_Source\PSoC5/SPIM.c **** * Parameters:
 342:.\Generated_Source\PSoC5/SPIM.c **** *  intSrc: An or'd combination of the desired status bit masks (defined in the
 343:.\Generated_Source\PSoC5/SPIM.c **** *  header file).
 344:.\Generated_Source\PSoC5/SPIM.c **** *
 345:.\Generated_Source\PSoC5/SPIM.c **** * Return:
 346:.\Generated_Source\PSoC5/SPIM.c **** *  None.
 347:.\Generated_Source\PSoC5/SPIM.c **** *
 348:.\Generated_Source\PSoC5/SPIM.c **** * Theory:
 349:.\Generated_Source\PSoC5/SPIM.c **** *  Enables the output of specific status bits to the interrupt controller.
 350:.\Generated_Source\PSoC5/SPIM.c **** *
ARM GAS  C:\Users\jthem\AppData\Local\Temp\ccojL8Uh.s 			page 12


 351:.\Generated_Source\PSoC5/SPIM.c **** *******************************************************************************/
 352:.\Generated_Source\PSoC5/SPIM.c **** void SPIM_SetRxInterruptMode(uint8 intSrc) 
 353:.\Generated_Source\PSoC5/SPIM.c **** {
 266              		.loc 1 353 0
 267              		.cfi_startproc
 268              		@ args = 0, pretend = 0, frame = 0
 269              		@ frame_needed = 0, uses_anonymous_args = 0
 270              		@ link register save eliminated.
 271              	.LVL5:
 354:.\Generated_Source\PSoC5/SPIM.c ****     SPIM_RX_STATUS_MASK_REG  = intSrc;
 272              		.loc 1 354 0
 273 0000 014B     		ldr	r3, .L23
 274 0002 1870     		strb	r0, [r3]
 275 0004 7047     		bx	lr
 276              	.L24:
 277 0006 00BF     		.align	2
 278              	.L23:
 279 0008 85650040 		.word	1073767813
 280              		.cfi_endproc
 281              	.LFE9:
 282              		.size	SPIM_SetRxInterruptMode, .-SPIM_SetRxInterruptMode
 283              		.section	.text.SPIM_ReadTxStatus,"ax",%progbits
 284              		.align	1
 285              		.global	SPIM_ReadTxStatus
 286              		.thumb
 287              		.thumb_func
 288              		.type	SPIM_ReadTxStatus, %function
 289              	SPIM_ReadTxStatus:
 290              	.LFB10:
 355:.\Generated_Source\PSoC5/SPIM.c **** }
 356:.\Generated_Source\PSoC5/SPIM.c **** 
 357:.\Generated_Source\PSoC5/SPIM.c **** 
 358:.\Generated_Source\PSoC5/SPIM.c **** /*******************************************************************************
 359:.\Generated_Source\PSoC5/SPIM.c **** * Function Name: SPIM_ReadTxStatus
 360:.\Generated_Source\PSoC5/SPIM.c **** ********************************************************************************
 361:.\Generated_Source\PSoC5/SPIM.c **** *
 362:.\Generated_Source\PSoC5/SPIM.c **** * Summary:
 363:.\Generated_Source\PSoC5/SPIM.c **** *  Read the Tx status register for the component.
 364:.\Generated_Source\PSoC5/SPIM.c **** *
 365:.\Generated_Source\PSoC5/SPIM.c **** * Parameters:
 366:.\Generated_Source\PSoC5/SPIM.c **** *  None.
 367:.\Generated_Source\PSoC5/SPIM.c **** *
 368:.\Generated_Source\PSoC5/SPIM.c **** * Return:
 369:.\Generated_Source\PSoC5/SPIM.c **** *  Contents of the Tx status register.
 370:.\Generated_Source\PSoC5/SPIM.c **** *
 371:.\Generated_Source\PSoC5/SPIM.c **** * Global variables:
 372:.\Generated_Source\PSoC5/SPIM.c **** *  SPIM_swStatusTx - used to store in software status register,
 373:.\Generated_Source\PSoC5/SPIM.c **** *  modified every function call - resets to zero.
 374:.\Generated_Source\PSoC5/SPIM.c **** *
 375:.\Generated_Source\PSoC5/SPIM.c **** * Theory:
 376:.\Generated_Source\PSoC5/SPIM.c **** *  Allows the user and the API to read the Tx status register for error
 377:.\Generated_Source\PSoC5/SPIM.c **** *  detection and flow control.
 378:.\Generated_Source\PSoC5/SPIM.c **** *
 379:.\Generated_Source\PSoC5/SPIM.c **** * Side Effects:
 380:.\Generated_Source\PSoC5/SPIM.c **** *  Clear Tx status register of the component.
 381:.\Generated_Source\PSoC5/SPIM.c **** *
 382:.\Generated_Source\PSoC5/SPIM.c **** * Reentrant:
ARM GAS  C:\Users\jthem\AppData\Local\Temp\ccojL8Uh.s 			page 13


 383:.\Generated_Source\PSoC5/SPIM.c **** *  No.
 384:.\Generated_Source\PSoC5/SPIM.c **** *
 385:.\Generated_Source\PSoC5/SPIM.c **** *******************************************************************************/
 386:.\Generated_Source\PSoC5/SPIM.c **** uint8 SPIM_ReadTxStatus(void) 
 387:.\Generated_Source\PSoC5/SPIM.c **** {
 291              		.loc 1 387 0
 292              		.cfi_startproc
 293              		@ args = 0, pretend = 0, frame = 0
 294              		@ frame_needed = 0, uses_anonymous_args = 0
 295 0000 10B5     		push	{r4, lr}
 296              		.cfi_def_cfa_offset 8
 297              		.cfi_offset 4, -8
 298              		.cfi_offset 14, -4
 299              	.LBB58:
 300              	.LBB59:
 280:.\Generated_Source\PSoC5/SPIM.c ****     #endif /* (0u != SPIM_INTERNAL_TX_INT_ENABLED) */
 301              		.loc 1 280 0
 302 0002 074B     		ldr	r3, .L26
 303 0004 0222     		movs	r2, #2
 304 0006 1A60     		str	r2, [r3]
 305              	.LBE59:
 306              	.LBE58:
 388:.\Generated_Source\PSoC5/SPIM.c ****     uint8 tmpStatus;
 389:.\Generated_Source\PSoC5/SPIM.c **** 
 390:.\Generated_Source\PSoC5/SPIM.c ****     #if(SPIM_TX_SOFTWARE_BUF_ENABLED)
 391:.\Generated_Source\PSoC5/SPIM.c ****         /* Disable TX interrupt to protect global veriables */
 392:.\Generated_Source\PSoC5/SPIM.c ****         SPIM_DisableTxInt();
 393:.\Generated_Source\PSoC5/SPIM.c **** 
 394:.\Generated_Source\PSoC5/SPIM.c ****         tmpStatus = SPIM_GET_STATUS_TX(SPIM_swStatusTx);
 307              		.loc 1 394 0
 308 0008 0649     		ldr	r1, .L26+4
 309 000a 074B     		ldr	r3, .L26+8
 395:.\Generated_Source\PSoC5/SPIM.c ****         SPIM_swStatusTx = 0u;
 310              		.loc 1 395 0
 311 000c 0024     		movs	r4, #0
 394:.\Generated_Source\PSoC5/SPIM.c ****         SPIM_swStatusTx = 0u;
 312              		.loc 1 394 0
 313 000e 1878     		ldrb	r0, [r3]	@ zero_extendqisi2
 314 0010 0B78     		ldrb	r3, [r1]	@ zero_extendqisi2
 315              	.LVL6:
 316              		.loc 1 395 0
 317 0012 0C70     		strb	r4, [r1]
 318              	.LBB60:
 319              	.LBB61:
 230:.\Generated_Source\PSoC5/SPIM.c ****     #endif /* (0u != SPIM_INTERNAL_TX_INT_ENABLED) */
 320              		.loc 1 230 0
 321 0014 0549     		ldr	r1, .L26+12
 322              	.LBE61:
 323              	.LBE60:
 394:.\Generated_Source\PSoC5/SPIM.c ****         SPIM_swStatusTx = 0u;
 324              		.loc 1 394 0
 325 0016 03F00903 		and	r3, r3, #9
 326              	.LVL7:
 327              	.LBB63:
 328              	.LBB62:
 230:.\Generated_Source\PSoC5/SPIM.c ****     #endif /* (0u != SPIM_INTERNAL_TX_INT_ENABLED) */
 329              		.loc 1 230 0
ARM GAS  C:\Users\jthem\AppData\Local\Temp\ccojL8Uh.s 			page 14


 330 001a 0A60     		str	r2, [r1]
 331              	.LBE62:
 332              	.LBE63:
 396:.\Generated_Source\PSoC5/SPIM.c **** 
 397:.\Generated_Source\PSoC5/SPIM.c ****         SPIM_EnableTxInt();
 398:.\Generated_Source\PSoC5/SPIM.c **** 
 399:.\Generated_Source\PSoC5/SPIM.c ****     #else
 400:.\Generated_Source\PSoC5/SPIM.c **** 
 401:.\Generated_Source\PSoC5/SPIM.c ****         tmpStatus = SPIM_TX_STATUS_REG;
 402:.\Generated_Source\PSoC5/SPIM.c **** 
 403:.\Generated_Source\PSoC5/SPIM.c ****     #endif /* (SPIM_TX_SOFTWARE_BUF_ENABLED) */
 404:.\Generated_Source\PSoC5/SPIM.c **** 
 405:.\Generated_Source\PSoC5/SPIM.c ****     return(tmpStatus);
 406:.\Generated_Source\PSoC5/SPIM.c **** }
 333              		.loc 1 406 0
 334 001c 1843     		orrs	r0, r0, r3
 335 001e 10BD     		pop	{r4, pc}
 336              	.L27:
 337              		.align	2
 338              	.L26:
 339 0020 80E100E0 		.word	-536813184
 340 0024 00000000 		.word	SPIM_swStatusTx
 341 0028 67650040 		.word	1073767783
 342 002c 00E100E0 		.word	-536813312
 343              		.cfi_endproc
 344              	.LFE10:
 345              		.size	SPIM_ReadTxStatus, .-SPIM_ReadTxStatus
 346              		.section	.text.SPIM_ReadRxStatus,"ax",%progbits
 347              		.align	1
 348              		.global	SPIM_ReadRxStatus
 349              		.thumb
 350              		.thumb_func
 351              		.type	SPIM_ReadRxStatus, %function
 352              	SPIM_ReadRxStatus:
 353              	.LFB11:
 407:.\Generated_Source\PSoC5/SPIM.c **** 
 408:.\Generated_Source\PSoC5/SPIM.c **** 
 409:.\Generated_Source\PSoC5/SPIM.c **** /*******************************************************************************
 410:.\Generated_Source\PSoC5/SPIM.c **** * Function Name: SPIM_ReadRxStatus
 411:.\Generated_Source\PSoC5/SPIM.c **** ********************************************************************************
 412:.\Generated_Source\PSoC5/SPIM.c **** *
 413:.\Generated_Source\PSoC5/SPIM.c **** * Summary:
 414:.\Generated_Source\PSoC5/SPIM.c **** *  Read the Rx status register for the component.
 415:.\Generated_Source\PSoC5/SPIM.c **** *
 416:.\Generated_Source\PSoC5/SPIM.c **** * Parameters:
 417:.\Generated_Source\PSoC5/SPIM.c **** *  None.
 418:.\Generated_Source\PSoC5/SPIM.c **** *
 419:.\Generated_Source\PSoC5/SPIM.c **** * Return:
 420:.\Generated_Source\PSoC5/SPIM.c **** *  Contents of the Rx status register.
 421:.\Generated_Source\PSoC5/SPIM.c **** *
 422:.\Generated_Source\PSoC5/SPIM.c **** * Global variables:
 423:.\Generated_Source\PSoC5/SPIM.c **** *  SPIM_swStatusRx - used to store in software Rx status register,
 424:.\Generated_Source\PSoC5/SPIM.c **** *  modified every function call - resets to zero.
 425:.\Generated_Source\PSoC5/SPIM.c **** *
 426:.\Generated_Source\PSoC5/SPIM.c **** * Theory:
 427:.\Generated_Source\PSoC5/SPIM.c **** *  Allows the user and the API to read the Rx status register for error
 428:.\Generated_Source\PSoC5/SPIM.c **** *  detection and flow control.
ARM GAS  C:\Users\jthem\AppData\Local\Temp\ccojL8Uh.s 			page 15


 429:.\Generated_Source\PSoC5/SPIM.c **** *
 430:.\Generated_Source\PSoC5/SPIM.c **** * Side Effects:
 431:.\Generated_Source\PSoC5/SPIM.c **** *  Clear Rx status register of the component.
 432:.\Generated_Source\PSoC5/SPIM.c **** *
 433:.\Generated_Source\PSoC5/SPIM.c **** * Reentrant:
 434:.\Generated_Source\PSoC5/SPIM.c **** *  No.
 435:.\Generated_Source\PSoC5/SPIM.c **** *
 436:.\Generated_Source\PSoC5/SPIM.c **** *******************************************************************************/
 437:.\Generated_Source\PSoC5/SPIM.c **** uint8 SPIM_ReadRxStatus(void) 
 438:.\Generated_Source\PSoC5/SPIM.c **** {
 354              		.loc 1 438 0
 355              		.cfi_startproc
 356              		@ args = 0, pretend = 0, frame = 0
 357              		@ frame_needed = 0, uses_anonymous_args = 0
 358 0000 10B5     		push	{r4, lr}
 359              		.cfi_def_cfa_offset 8
 360              		.cfi_offset 4, -8
 361              		.cfi_offset 14, -4
 362              	.LBB64:
 363              	.LBB65:
 305:.\Generated_Source\PSoC5/SPIM.c ****     #endif /* (0u != SPIM_INTERNAL_RX_INT_ENABLED) */
 364              		.loc 1 305 0
 365 0002 074B     		ldr	r3, .L29
 366 0004 0122     		movs	r2, #1
 367 0006 1A60     		str	r2, [r3]
 368              	.LBE65:
 369              	.LBE64:
 439:.\Generated_Source\PSoC5/SPIM.c ****     uint8 tmpStatus;
 440:.\Generated_Source\PSoC5/SPIM.c **** 
 441:.\Generated_Source\PSoC5/SPIM.c ****     #if(SPIM_RX_SOFTWARE_BUF_ENABLED)
 442:.\Generated_Source\PSoC5/SPIM.c ****         /* Disable RX interrupt to protect global veriables */
 443:.\Generated_Source\PSoC5/SPIM.c ****         SPIM_DisableRxInt();
 444:.\Generated_Source\PSoC5/SPIM.c **** 
 445:.\Generated_Source\PSoC5/SPIM.c ****         tmpStatus = SPIM_GET_STATUS_RX(SPIM_swStatusRx);
 370              		.loc 1 445 0
 371 0008 0649     		ldr	r1, .L29+4
 372 000a 074B     		ldr	r3, .L29+8
 446:.\Generated_Source\PSoC5/SPIM.c ****         SPIM_swStatusRx = 0u;
 373              		.loc 1 446 0
 374 000c 0024     		movs	r4, #0
 445:.\Generated_Source\PSoC5/SPIM.c ****         SPIM_swStatusRx = 0u;
 375              		.loc 1 445 0
 376 000e 1878     		ldrb	r0, [r3]	@ zero_extendqisi2
 377 0010 0B78     		ldrb	r3, [r1]	@ zero_extendqisi2
 378              	.LVL8:
 379              		.loc 1 446 0
 380 0012 0C70     		strb	r4, [r1]
 381              	.LBB66:
 382              	.LBB67:
 255:.\Generated_Source\PSoC5/SPIM.c ****     #endif /* (0u != SPIM_INTERNAL_RX_INT_ENABLED) */
 383              		.loc 1 255 0
 384 0014 0549     		ldr	r1, .L29+12
 385              	.LBE67:
 386              	.LBE66:
 445:.\Generated_Source\PSoC5/SPIM.c ****         SPIM_swStatusRx = 0u;
 387              		.loc 1 445 0
 388 0016 03F04003 		and	r3, r3, #64
ARM GAS  C:\Users\jthem\AppData\Local\Temp\ccojL8Uh.s 			page 16


 389              	.LVL9:
 390              	.LBB69:
 391              	.LBB68:
 255:.\Generated_Source\PSoC5/SPIM.c ****     #endif /* (0u != SPIM_INTERNAL_RX_INT_ENABLED) */
 392              		.loc 1 255 0
 393 001a 0A60     		str	r2, [r1]
 394              	.LBE68:
 395              	.LBE69:
 447:.\Generated_Source\PSoC5/SPIM.c **** 
 448:.\Generated_Source\PSoC5/SPIM.c ****         SPIM_EnableRxInt();
 449:.\Generated_Source\PSoC5/SPIM.c **** 
 450:.\Generated_Source\PSoC5/SPIM.c ****     #else
 451:.\Generated_Source\PSoC5/SPIM.c **** 
 452:.\Generated_Source\PSoC5/SPIM.c ****         tmpStatus = SPIM_RX_STATUS_REG;
 453:.\Generated_Source\PSoC5/SPIM.c **** 
 454:.\Generated_Source\PSoC5/SPIM.c ****     #endif /* (SPIM_RX_SOFTWARE_BUF_ENABLED) */
 455:.\Generated_Source\PSoC5/SPIM.c **** 
 456:.\Generated_Source\PSoC5/SPIM.c ****     return(tmpStatus);
 457:.\Generated_Source\PSoC5/SPIM.c **** }
 396              		.loc 1 457 0
 397 001c 1843     		orrs	r0, r0, r3
 398 001e 10BD     		pop	{r4, pc}
 399              	.L30:
 400              		.align	2
 401              	.L29:
 402 0020 80E100E0 		.word	-536813184
 403 0024 00000000 		.word	SPIM_swStatusRx
 404 0028 65650040 		.word	1073767781
 405 002c 00E100E0 		.word	-536813312
 406              		.cfi_endproc
 407              	.LFE11:
 408              		.size	SPIM_ReadRxStatus, .-SPIM_ReadRxStatus
 409              		.section	.text.SPIM_WriteTxData,"ax",%progbits
 410              		.align	1
 411              		.global	SPIM_WriteTxData
 412              		.thumb
 413              		.thumb_func
 414              		.type	SPIM_WriteTxData, %function
 415              	SPIM_WriteTxData:
 416              	.LFB12:
 458:.\Generated_Source\PSoC5/SPIM.c **** 
 459:.\Generated_Source\PSoC5/SPIM.c **** 
 460:.\Generated_Source\PSoC5/SPIM.c **** /*******************************************************************************
 461:.\Generated_Source\PSoC5/SPIM.c **** * Function Name: SPIM_WriteTxData
 462:.\Generated_Source\PSoC5/SPIM.c **** ********************************************************************************
 463:.\Generated_Source\PSoC5/SPIM.c **** *
 464:.\Generated_Source\PSoC5/SPIM.c **** * Summary:
 465:.\Generated_Source\PSoC5/SPIM.c **** *  Write a byte of data to be sent across the SPI.
 466:.\Generated_Source\PSoC5/SPIM.c **** *
 467:.\Generated_Source\PSoC5/SPIM.c **** * Parameters:
 468:.\Generated_Source\PSoC5/SPIM.c **** *  txDataByte: The data value to send across the SPI.
 469:.\Generated_Source\PSoC5/SPIM.c **** *
 470:.\Generated_Source\PSoC5/SPIM.c **** * Return:
 471:.\Generated_Source\PSoC5/SPIM.c **** *  None.
 472:.\Generated_Source\PSoC5/SPIM.c **** *
 473:.\Generated_Source\PSoC5/SPIM.c **** * Global variables:
 474:.\Generated_Source\PSoC5/SPIM.c **** *  SPIM_txBufferWrite - used for the account of the bytes which
ARM GAS  C:\Users\jthem\AppData\Local\Temp\ccojL8Uh.s 			page 17


 475:.\Generated_Source\PSoC5/SPIM.c **** *  have been written down in the TX software buffer, modified every function
 476:.\Generated_Source\PSoC5/SPIM.c **** *  call if TX Software Buffer is used.
 477:.\Generated_Source\PSoC5/SPIM.c **** *  SPIM_txBufferRead - used for the account of the bytes which
 478:.\Generated_Source\PSoC5/SPIM.c **** *  have been read from the TX software buffer.
 479:.\Generated_Source\PSoC5/SPIM.c **** *  SPIM_txBuffer[SPIM_TX_BUFFER_SIZE] - used to store
 480:.\Generated_Source\PSoC5/SPIM.c **** *  data to sending, modified every function call if TX Software Buffer is used.
 481:.\Generated_Source\PSoC5/SPIM.c **** *
 482:.\Generated_Source\PSoC5/SPIM.c **** * Theory:
 483:.\Generated_Source\PSoC5/SPIM.c **** *  Allows the user to transmit any byte of data in a single transfer.
 484:.\Generated_Source\PSoC5/SPIM.c **** *
 485:.\Generated_Source\PSoC5/SPIM.c **** * Side Effects:
 486:.\Generated_Source\PSoC5/SPIM.c **** *  If this function is called again before the previous byte is finished then
 487:.\Generated_Source\PSoC5/SPIM.c **** *  the next byte will be appended to the transfer with no time between
 488:.\Generated_Source\PSoC5/SPIM.c **** *  the byte transfers. Clear Tx status register of the component.
 489:.\Generated_Source\PSoC5/SPIM.c **** *
 490:.\Generated_Source\PSoC5/SPIM.c **** * Reentrant:
 491:.\Generated_Source\PSoC5/SPIM.c **** *  No.
 492:.\Generated_Source\PSoC5/SPIM.c **** *
 493:.\Generated_Source\PSoC5/SPIM.c **** *******************************************************************************/
 494:.\Generated_Source\PSoC5/SPIM.c **** void SPIM_WriteTxData(uint8 txData) 
 495:.\Generated_Source\PSoC5/SPIM.c **** {
 417              		.loc 1 495 0
 418              		.cfi_startproc
 419              		@ args = 0, pretend = 0, frame = 0
 420              		@ frame_needed = 0, uses_anonymous_args = 0
 421              	.LVL10:
 422 0000 70B5     		push	{r4, r5, r6, lr}
 423              		.cfi_def_cfa_offset 16
 424              		.cfi_offset 4, -16
 425              		.cfi_offset 5, -12
 426              		.cfi_offset 6, -8
 427              		.cfi_offset 14, -4
 428              	.L33:
 496:.\Generated_Source\PSoC5/SPIM.c ****     #if(SPIM_TX_SOFTWARE_BUF_ENABLED)
 497:.\Generated_Source\PSoC5/SPIM.c **** 
 498:.\Generated_Source\PSoC5/SPIM.c ****         uint8 tempStatus;
 499:.\Generated_Source\PSoC5/SPIM.c ****         uint8 tmpTxBufferRead;
 500:.\Generated_Source\PSoC5/SPIM.c **** 
 501:.\Generated_Source\PSoC5/SPIM.c ****         /* Block if TX buffer is FULL: don't overwrite */
 502:.\Generated_Source\PSoC5/SPIM.c ****         do
 503:.\Generated_Source\PSoC5/SPIM.c ****         {
 504:.\Generated_Source\PSoC5/SPIM.c ****             tmpTxBufferRead = SPIM_txBufferRead;
 429              		.loc 1 504 0
 430 0002 254A     		ldr	r2, .L45
 431 0004 1178     		ldrb	r1, [r2]	@ zero_extendqisi2
 432              	.LVL11:
 505:.\Generated_Source\PSoC5/SPIM.c ****             if(0u == tmpTxBufferRead)
 433              		.loc 1 505 0
 434 0006 01F0FF03 		and	r3, r1, #255
 435 000a 11B1     		cbz	r1, .L39
 506:.\Generated_Source\PSoC5/SPIM.c ****             {
 507:.\Generated_Source\PSoC5/SPIM.c ****                 tmpTxBufferRead = (SPIM_TX_BUFFER_SIZE - 1u);
 508:.\Generated_Source\PSoC5/SPIM.c ****             }
 509:.\Generated_Source\PSoC5/SPIM.c ****             else
 510:.\Generated_Source\PSoC5/SPIM.c ****             {
 511:.\Generated_Source\PSoC5/SPIM.c ****                 tmpTxBufferRead--;
 436              		.loc 1 511 0
ARM GAS  C:\Users\jthem\AppData\Local\Temp\ccojL8Uh.s 			page 18


 437 000c 013B     		subs	r3, r3, #1
 438 000e DBB2     		uxtb	r3, r3
 439              	.LVL12:
 440 0010 00E0     		b	.L32
 441              	.LVL13:
 442              	.L39:
 507:.\Generated_Source\PSoC5/SPIM.c ****             }
 443              		.loc 1 507 0
 444 0012 0723     		movs	r3, #7
 445              	.LVL14:
 446              	.L32:
 512:.\Generated_Source\PSoC5/SPIM.c ****             }
 513:.\Generated_Source\PSoC5/SPIM.c **** 
 514:.\Generated_Source\PSoC5/SPIM.c ****         }while(tmpTxBufferRead == SPIM_txBufferWrite);
 447              		.loc 1 514 0
 448 0014 214D     		ldr	r5, .L45+4
 449 0016 2978     		ldrb	r1, [r5]	@ zero_extendqisi2
 450 0018 8B42     		cmp	r3, r1
 451 001a 2B46     		mov	r3, r5
 452              	.LVL15:
 453 001c F1D0     		beq	.L33
 454              	.LBB70:
 455              	.LBB71:
 280:.\Generated_Source\PSoC5/SPIM.c ****     #endif /* (0u != SPIM_INTERNAL_TX_INT_ENABLED) */
 456              		.loc 1 280 0
 457 001e 2049     		ldr	r1, .L45+8
 458 0020 0224     		movs	r4, #2
 459 0022 0C60     		str	r4, [r1]
 460              	.LBE71:
 461              	.LBE70:
 515:.\Generated_Source\PSoC5/SPIM.c **** 
 516:.\Generated_Source\PSoC5/SPIM.c ****         /* Disable TX interrupt to protect global veriables */
 517:.\Generated_Source\PSoC5/SPIM.c ****         SPIM_DisableTxInt();
 518:.\Generated_Source\PSoC5/SPIM.c **** 
 519:.\Generated_Source\PSoC5/SPIM.c ****         tempStatus = SPIM_GET_STATUS_TX(SPIM_swStatusTx);
 462              		.loc 1 519 0
 463 0024 1F49     		ldr	r1, .L45+12
 464 0026 204C     		ldr	r4, .L45+16
 465 0028 0E78     		ldrb	r6, [r1]	@ zero_extendqisi2
 466 002a 2178     		ldrb	r1, [r4]	@ zero_extendqisi2
 467 002c 01F00901 		and	r1, r1, #9
 468 0030 3143     		orrs	r1, r1, r6
 469              	.LVL16:
 520:.\Generated_Source\PSoC5/SPIM.c ****         SPIM_swStatusTx = tempStatus;
 470              		.loc 1 520 0
 471 0032 2170     		strb	r1, [r4]
 521:.\Generated_Source\PSoC5/SPIM.c **** 
 522:.\Generated_Source\PSoC5/SPIM.c **** 
 523:.\Generated_Source\PSoC5/SPIM.c ****         if((SPIM_txBufferRead == SPIM_txBufferWrite) &&
 472              		.loc 1 523 0
 473 0034 1678     		ldrb	r6, [r2]	@ zero_extendqisi2
 474 0036 2978     		ldrb	r1, [r5]	@ zero_extendqisi2
 475              	.LVL17:
 476 0038 8E42     		cmp	r6, r1
 477 003a 05D1     		bne	.L34
 524:.\Generated_Source\PSoC5/SPIM.c ****            (0u != (SPIM_swStatusTx & SPIM_STS_TX_FIFO_NOT_FULL)))
 478              		.loc 1 524 0 discriminator 1
ARM GAS  C:\Users\jthem\AppData\Local\Temp\ccojL8Uh.s 			page 19


 479 003c 2178     		ldrb	r1, [r4]	@ zero_extendqisi2
 523:.\Generated_Source\PSoC5/SPIM.c ****            (0u != (SPIM_swStatusTx & SPIM_STS_TX_FIFO_NOT_FULL)))
 480              		.loc 1 523 0 discriminator 1
 481 003e 4907     		lsls	r1, r1, #29
 482 0040 02D5     		bpl	.L34
 525:.\Generated_Source\PSoC5/SPIM.c ****         {
 526:.\Generated_Source\PSoC5/SPIM.c ****             /* Put data element into the TX FIFO */
 527:.\Generated_Source\PSoC5/SPIM.c ****             CY_SET_REG8(SPIM_TXDATA_PTR, txData);
 483              		.loc 1 527 0
 484 0042 1A4B     		ldr	r3, .L45+20
 485 0044 1870     		strb	r0, [r3]
 486              	.LVL18:
 487 0046 23E0     		b	.L35
 488              	.LVL19:
 489              	.L34:
 528:.\Generated_Source\PSoC5/SPIM.c ****         }
 529:.\Generated_Source\PSoC5/SPIM.c ****         else
 530:.\Generated_Source\PSoC5/SPIM.c ****         {
 531:.\Generated_Source\PSoC5/SPIM.c ****             /* Add to the TX software buffer */
 532:.\Generated_Source\PSoC5/SPIM.c ****             SPIM_txBufferWrite++;
 490              		.loc 1 532 0
 491 0048 1978     		ldrb	r1, [r3]	@ zero_extendqisi2
 492 004a 0131     		adds	r1, r1, #1
 493 004c C9B2     		uxtb	r1, r1
 494 004e 1970     		strb	r1, [r3]
 495              	.LVL20:
 533:.\Generated_Source\PSoC5/SPIM.c ****             if(SPIM_txBufferWrite >= SPIM_TX_BUFFER_SIZE)
 496              		.loc 1 533 0
 497 0050 1978     		ldrb	r1, [r3]	@ zero_extendqisi2
 498 0052 0729     		cmp	r1, #7
 534:.\Generated_Source\PSoC5/SPIM.c ****             {
 535:.\Generated_Source\PSoC5/SPIM.c ****                 SPIM_txBufferWrite = 0u;
 499              		.loc 1 535 0
 500 0054 82BF     		ittt	hi
 501 0056 1149     		ldrhi	r1, .L45+4
 502 0058 0024     		movhi	r4, #0
 503 005a 0C70     		strbhi	r4, [r1]
 536:.\Generated_Source\PSoC5/SPIM.c ****             }
 537:.\Generated_Source\PSoC5/SPIM.c **** 
 538:.\Generated_Source\PSoC5/SPIM.c ****             if(SPIM_txBufferWrite == SPIM_txBufferRead)
 504              		.loc 1 538 0
 505 005c 1C78     		ldrb	r4, [r3]	@ zero_extendqisi2
 506 005e 1278     		ldrb	r2, [r2]	@ zero_extendqisi2
 507 0060 0D49     		ldr	r1, .L45
 508 0062 9442     		cmp	r4, r2
 509 0064 0BD1     		bne	.L37
 539:.\Generated_Source\PSoC5/SPIM.c ****             {
 540:.\Generated_Source\PSoC5/SPIM.c ****                 SPIM_txBufferRead++;
 510              		.loc 1 540 0
 511 0066 0A78     		ldrb	r2, [r1]	@ zero_extendqisi2
 512 0068 0132     		adds	r2, r2, #1
 513 006a D2B2     		uxtb	r2, r2
 514 006c 0A70     		strb	r2, [r1]
 541:.\Generated_Source\PSoC5/SPIM.c ****                 if(SPIM_txBufferRead >= SPIM_TX_BUFFER_SIZE)
 515              		.loc 1 541 0
 516 006e 0A78     		ldrb	r2, [r1]	@ zero_extendqisi2
 517 0070 072A     		cmp	r2, #7
ARM GAS  C:\Users\jthem\AppData\Local\Temp\ccojL8Uh.s 			page 20


 542:.\Generated_Source\PSoC5/SPIM.c ****                 {
 543:.\Generated_Source\PSoC5/SPIM.c ****                     SPIM_txBufferRead = 0u;
 518              		.loc 1 543 0
 519 0072 84BF     		itt	hi
 520 0074 0022     		movhi	r2, #0
 521 0076 0A70     		strbhi	r2, [r1]
 544:.\Generated_Source\PSoC5/SPIM.c ****                 }
 545:.\Generated_Source\PSoC5/SPIM.c ****                 SPIM_txBufferFull = 1u;
 522              		.loc 1 545 0
 523 0078 0D4A     		ldr	r2, .L45+24
 524 007a 0121     		movs	r1, #1
 525 007c 1170     		strb	r1, [r2]
 526              	.L37:
 546:.\Generated_Source\PSoC5/SPIM.c ****             }
 547:.\Generated_Source\PSoC5/SPIM.c **** 
 548:.\Generated_Source\PSoC5/SPIM.c ****             SPIM_txBuffer[SPIM_txBufferWrite] = txData;
 527              		.loc 1 548 0
 528 007e 1B78     		ldrb	r3, [r3]	@ zero_extendqisi2
 529 0080 0C4A     		ldr	r2, .L45+28
 530 0082 DBB2     		uxtb	r3, r3
 531 0084 D054     		strb	r0, [r2, r3]
 549:.\Generated_Source\PSoC5/SPIM.c **** 
 550:.\Generated_Source\PSoC5/SPIM.c ****             SPIM_TX_STATUS_MASK_REG |= SPIM_STS_TX_FIFO_NOT_FULL;
 532              		.loc 1 550 0
 533 0086 0C4A     		ldr	r2, .L45+32
 534 0088 1378     		ldrb	r3, [r2]	@ zero_extendqisi2
 535 008a 43F00403 		orr	r3, r3, #4
 536 008e 1370     		strb	r3, [r2]
 537              	.L35:
 538              	.LBB72:
 539              	.LBB73:
 230:.\Generated_Source\PSoC5/SPIM.c ****     #endif /* (0u != SPIM_INTERNAL_TX_INT_ENABLED) */
 540              		.loc 1 230 0
 541 0090 0A4B     		ldr	r3, .L45+36
 542 0092 0222     		movs	r2, #2
 543 0094 1A60     		str	r2, [r3]
 544 0096 70BD     		pop	{r4, r5, r6, pc}
 545              	.L46:
 546              		.align	2
 547              	.L45:
 548 0098 00000000 		.word	SPIM_txBufferRead
 549 009c 00000000 		.word	SPIM_txBufferWrite
 550 00a0 80E100E0 		.word	-536813184
 551 00a4 67650040 		.word	1073767783
 552 00a8 00000000 		.word	SPIM_swStatusTx
 553 00ac 46650040 		.word	1073767750
 554 00b0 00000000 		.word	SPIM_txBufferFull
 555 00b4 00000000 		.word	SPIM_txBuffer
 556 00b8 87650040 		.word	1073767815
 557 00bc 00E100E0 		.word	-536813312
 558              	.LBE73:
 559              	.LBE72:
 560              		.cfi_endproc
 561              	.LFE12:
 562              		.size	SPIM_WriteTxData, .-SPIM_WriteTxData
 563              		.section	.text.SPIM_ReadRxData,"ax",%progbits
 564              		.align	1
ARM GAS  C:\Users\jthem\AppData\Local\Temp\ccojL8Uh.s 			page 21


 565              		.global	SPIM_ReadRxData
 566              		.thumb
 567              		.thumb_func
 568              		.type	SPIM_ReadRxData, %function
 569              	SPIM_ReadRxData:
 570              	.LFB13:
 551:.\Generated_Source\PSoC5/SPIM.c ****         }
 552:.\Generated_Source\PSoC5/SPIM.c **** 
 553:.\Generated_Source\PSoC5/SPIM.c ****         SPIM_EnableTxInt();
 554:.\Generated_Source\PSoC5/SPIM.c **** 
 555:.\Generated_Source\PSoC5/SPIM.c ****     #else
 556:.\Generated_Source\PSoC5/SPIM.c ****         /* Wait until TX FIFO has a place */
 557:.\Generated_Source\PSoC5/SPIM.c ****         while(0u == (SPIM_TX_STATUS_REG & SPIM_STS_TX_FIFO_NOT_FULL))
 558:.\Generated_Source\PSoC5/SPIM.c ****         {
 559:.\Generated_Source\PSoC5/SPIM.c ****         }
 560:.\Generated_Source\PSoC5/SPIM.c **** 
 561:.\Generated_Source\PSoC5/SPIM.c ****         /* Put data element into the TX FIFO */
 562:.\Generated_Source\PSoC5/SPIM.c ****         CY_SET_REG8(SPIM_TXDATA_PTR, txData);
 563:.\Generated_Source\PSoC5/SPIM.c **** 
 564:.\Generated_Source\PSoC5/SPIM.c ****     #endif /* (SPIM_TX_SOFTWARE_BUF_ENABLED) */
 565:.\Generated_Source\PSoC5/SPIM.c **** }
 566:.\Generated_Source\PSoC5/SPIM.c **** 
 567:.\Generated_Source\PSoC5/SPIM.c **** 
 568:.\Generated_Source\PSoC5/SPIM.c **** /*******************************************************************************
 569:.\Generated_Source\PSoC5/SPIM.c **** * Function Name: SPIM_ReadRxData
 570:.\Generated_Source\PSoC5/SPIM.c **** ********************************************************************************
 571:.\Generated_Source\PSoC5/SPIM.c **** *
 572:.\Generated_Source\PSoC5/SPIM.c **** * Summary:
 573:.\Generated_Source\PSoC5/SPIM.c **** *  Read the next byte of data received across the SPI.
 574:.\Generated_Source\PSoC5/SPIM.c **** *
 575:.\Generated_Source\PSoC5/SPIM.c **** * Parameters:
 576:.\Generated_Source\PSoC5/SPIM.c **** *  None.
 577:.\Generated_Source\PSoC5/SPIM.c **** *
 578:.\Generated_Source\PSoC5/SPIM.c **** * Return:
 579:.\Generated_Source\PSoC5/SPIM.c **** *  The next byte of data read from the FIFO.
 580:.\Generated_Source\PSoC5/SPIM.c **** *
 581:.\Generated_Source\PSoC5/SPIM.c **** * Global variables:
 582:.\Generated_Source\PSoC5/SPIM.c **** *  SPIM_rxBufferWrite - used for the account of the bytes which
 583:.\Generated_Source\PSoC5/SPIM.c **** *  have been written down in the RX software buffer.
 584:.\Generated_Source\PSoC5/SPIM.c **** *  SPIM_rxBufferRead - used for the account of the bytes which
 585:.\Generated_Source\PSoC5/SPIM.c **** *  have been read from the RX software buffer, modified every function
 586:.\Generated_Source\PSoC5/SPIM.c **** *  call if RX Software Buffer is used.
 587:.\Generated_Source\PSoC5/SPIM.c **** *  SPIM_rxBuffer[SPIM_RX_BUFFER_SIZE] - used to store
 588:.\Generated_Source\PSoC5/SPIM.c **** *  received data.
 589:.\Generated_Source\PSoC5/SPIM.c **** *
 590:.\Generated_Source\PSoC5/SPIM.c **** * Theory:
 591:.\Generated_Source\PSoC5/SPIM.c **** *  Allows the user to read a byte of data received.
 592:.\Generated_Source\PSoC5/SPIM.c **** *
 593:.\Generated_Source\PSoC5/SPIM.c **** * Side Effects:
 594:.\Generated_Source\PSoC5/SPIM.c **** *  Will return invalid data if the FIFO is empty. The user should Call
 595:.\Generated_Source\PSoC5/SPIM.c **** *  GetRxBufferSize() and if it returns a non-zero value then it is safe to call
 596:.\Generated_Source\PSoC5/SPIM.c **** *  ReadByte() function.
 597:.\Generated_Source\PSoC5/SPIM.c **** *
 598:.\Generated_Source\PSoC5/SPIM.c **** * Reentrant:
 599:.\Generated_Source\PSoC5/SPIM.c **** *  No.
 600:.\Generated_Source\PSoC5/SPIM.c **** *
 601:.\Generated_Source\PSoC5/SPIM.c **** *******************************************************************************/
ARM GAS  C:\Users\jthem\AppData\Local\Temp\ccojL8Uh.s 			page 22


 602:.\Generated_Source\PSoC5/SPIM.c **** uint8 SPIM_ReadRxData(void) 
 603:.\Generated_Source\PSoC5/SPIM.c **** {
 571              		.loc 1 603 0
 572              		.cfi_startproc
 573              		@ args = 0, pretend = 0, frame = 0
 574              		@ frame_needed = 0, uses_anonymous_args = 0
 575              		@ link register save eliminated.
 576              	.LBB74:
 577              	.LBB75:
 305:.\Generated_Source\PSoC5/SPIM.c ****     #endif /* (0u != SPIM_INTERNAL_RX_INT_ENABLED) */
 578              		.loc 1 305 0
 579 0000 104B     		ldr	r3, .L52
 580 0002 0122     		movs	r2, #1
 581 0004 1A60     		str	r2, [r3]
 582              	.LBE75:
 583              	.LBE74:
 604:.\Generated_Source\PSoC5/SPIM.c ****     uint8 rxData;
 605:.\Generated_Source\PSoC5/SPIM.c **** 
 606:.\Generated_Source\PSoC5/SPIM.c ****     #if(SPIM_RX_SOFTWARE_BUF_ENABLED)
 607:.\Generated_Source\PSoC5/SPIM.c **** 
 608:.\Generated_Source\PSoC5/SPIM.c ****         /* Disable RX interrupt to protect global veriables */
 609:.\Generated_Source\PSoC5/SPIM.c ****         SPIM_DisableRxInt();
 610:.\Generated_Source\PSoC5/SPIM.c **** 
 611:.\Generated_Source\PSoC5/SPIM.c ****         if(SPIM_rxBufferRead != SPIM_rxBufferWrite)
 584              		.loc 1 611 0
 585 0006 104B     		ldr	r3, .L52+4
 586 0008 104A     		ldr	r2, .L52+8
 587 000a 1978     		ldrb	r1, [r3]	@ zero_extendqisi2
 588 000c 1278     		ldrb	r2, [r2]	@ zero_extendqisi2
 589 000e 9142     		cmp	r1, r2
 590 0010 0FD0     		beq	.L49
 612:.\Generated_Source\PSoC5/SPIM.c ****         {
 613:.\Generated_Source\PSoC5/SPIM.c ****             if(0u == SPIM_rxBufferFull)
 591              		.loc 1 613 0
 592 0012 0F4A     		ldr	r2, .L52+12
 593 0014 1178     		ldrb	r1, [r2]	@ zero_extendqisi2
 594 0016 01F0FF00 		and	r0, r1, #255
 595 001a 41B9     		cbnz	r1, .L50
 614:.\Generated_Source\PSoC5/SPIM.c ****             {
 615:.\Generated_Source\PSoC5/SPIM.c ****                 SPIM_rxBufferRead++;
 596              		.loc 1 615 0
 597 001c 1A78     		ldrb	r2, [r3]	@ zero_extendqisi2
 598 001e 0132     		adds	r2, r2, #1
 599 0020 D2B2     		uxtb	r2, r2
 600 0022 1A70     		strb	r2, [r3]
 616:.\Generated_Source\PSoC5/SPIM.c ****                 if(SPIM_rxBufferRead >= SPIM_RX_BUFFER_SIZE)
 601              		.loc 1 616 0
 602 0024 1A78     		ldrb	r2, [r3]	@ zero_extendqisi2
 603 0026 072A     		cmp	r2, #7
 604 0028 03D9     		bls	.L49
 617:.\Generated_Source\PSoC5/SPIM.c ****                 {
 618:.\Generated_Source\PSoC5/SPIM.c ****                     SPIM_rxBufferRead = 0u;
 605              		.loc 1 618 0
 606 002a 1870     		strb	r0, [r3]
 607 002c 01E0     		b	.L49
 608              	.L50:
 619:.\Generated_Source\PSoC5/SPIM.c ****                 }
ARM GAS  C:\Users\jthem\AppData\Local\Temp\ccojL8Uh.s 			page 23


 620:.\Generated_Source\PSoC5/SPIM.c ****             }
 621:.\Generated_Source\PSoC5/SPIM.c ****             else
 622:.\Generated_Source\PSoC5/SPIM.c ****             {
 623:.\Generated_Source\PSoC5/SPIM.c ****                 SPIM_rxBufferFull = 0u;
 609              		.loc 1 623 0
 610 002e 0021     		movs	r1, #0
 611 0030 1170     		strb	r1, [r2]
 612              	.L49:
 624:.\Generated_Source\PSoC5/SPIM.c ****             }
 625:.\Generated_Source\PSoC5/SPIM.c ****         }
 626:.\Generated_Source\PSoC5/SPIM.c **** 
 627:.\Generated_Source\PSoC5/SPIM.c ****         rxData = SPIM_rxBuffer[SPIM_rxBufferRead];
 613              		.loc 1 627 0
 614 0032 1B78     		ldrb	r3, [r3]	@ zero_extendqisi2
 615 0034 074A     		ldr	r2, .L52+16
 616 0036 DBB2     		uxtb	r3, r3
 617 0038 D05C     		ldrb	r0, [r2, r3]	@ zero_extendqisi2
 618              	.LVL21:
 619              	.LBB76:
 620              	.LBB77:
 255:.\Generated_Source\PSoC5/SPIM.c ****     #endif /* (0u != SPIM_INTERNAL_RX_INT_ENABLED) */
 621              		.loc 1 255 0
 622 003a 074B     		ldr	r3, .L52+20
 623 003c 0122     		movs	r2, #1
 624 003e 1A60     		str	r2, [r3]
 625              	.LBE77:
 626              	.LBE76:
 628:.\Generated_Source\PSoC5/SPIM.c **** 
 629:.\Generated_Source\PSoC5/SPIM.c ****         SPIM_EnableRxInt();
 630:.\Generated_Source\PSoC5/SPIM.c **** 
 631:.\Generated_Source\PSoC5/SPIM.c ****     #else
 632:.\Generated_Source\PSoC5/SPIM.c **** 
 633:.\Generated_Source\PSoC5/SPIM.c ****         rxData = CY_GET_REG8(SPIM_RXDATA_PTR);
 634:.\Generated_Source\PSoC5/SPIM.c **** 
 635:.\Generated_Source\PSoC5/SPIM.c ****     #endif /* (SPIM_RX_SOFTWARE_BUF_ENABLED) */
 636:.\Generated_Source\PSoC5/SPIM.c **** 
 637:.\Generated_Source\PSoC5/SPIM.c ****     return(rxData);
 638:.\Generated_Source\PSoC5/SPIM.c **** }
 627              		.loc 1 638 0
 628 0040 7047     		bx	lr
 629              	.L53:
 630 0042 00BF     		.align	2
 631              	.L52:
 632 0044 80E100E0 		.word	-536813184
 633 0048 00000000 		.word	SPIM_rxBufferRead
 634 004c 00000000 		.word	SPIM_rxBufferWrite
 635 0050 00000000 		.word	SPIM_rxBufferFull
 636 0054 00000000 		.word	SPIM_rxBuffer
 637 0058 00E100E0 		.word	-536813312
 638              		.cfi_endproc
 639              	.LFE13:
 640              		.size	SPIM_ReadRxData, .-SPIM_ReadRxData
 641              		.section	.text.SPIM_GetRxBufferSize,"ax",%progbits
 642              		.align	1
 643              		.global	SPIM_GetRxBufferSize
 644              		.thumb
 645              		.thumb_func
ARM GAS  C:\Users\jthem\AppData\Local\Temp\ccojL8Uh.s 			page 24


 646              		.type	SPIM_GetRxBufferSize, %function
 647              	SPIM_GetRxBufferSize:
 648              	.LFB14:
 639:.\Generated_Source\PSoC5/SPIM.c **** 
 640:.\Generated_Source\PSoC5/SPIM.c **** 
 641:.\Generated_Source\PSoC5/SPIM.c **** /*******************************************************************************
 642:.\Generated_Source\PSoC5/SPIM.c **** * Function Name: SPIM_GetRxBufferSize
 643:.\Generated_Source\PSoC5/SPIM.c **** ********************************************************************************
 644:.\Generated_Source\PSoC5/SPIM.c **** *
 645:.\Generated_Source\PSoC5/SPIM.c **** * Summary:
 646:.\Generated_Source\PSoC5/SPIM.c **** *  Returns the number of bytes/words of data currently held in the RX buffer.
 647:.\Generated_Source\PSoC5/SPIM.c **** *  If RX Software Buffer not used then function return 0 if FIFO empty or 1 if
 648:.\Generated_Source\PSoC5/SPIM.c **** *  FIFO not empty. In another case function return size of RX Software Buffer.
 649:.\Generated_Source\PSoC5/SPIM.c **** *
 650:.\Generated_Source\PSoC5/SPIM.c **** * Parameters:
 651:.\Generated_Source\PSoC5/SPIM.c **** *  None.
 652:.\Generated_Source\PSoC5/SPIM.c **** *
 653:.\Generated_Source\PSoC5/SPIM.c **** * Return:
 654:.\Generated_Source\PSoC5/SPIM.c **** *  Integer count of the number of bytes/words in the RX buffer.
 655:.\Generated_Source\PSoC5/SPIM.c **** *
 656:.\Generated_Source\PSoC5/SPIM.c **** * Global variables:
 657:.\Generated_Source\PSoC5/SPIM.c **** *  SPIM_rxBufferWrite - used for the account of the bytes which
 658:.\Generated_Source\PSoC5/SPIM.c **** *  have been written down in the RX software buffer.
 659:.\Generated_Source\PSoC5/SPIM.c **** *  SPIM_rxBufferRead - used for the account of the bytes which
 660:.\Generated_Source\PSoC5/SPIM.c **** *  have been read from the RX software buffer.
 661:.\Generated_Source\PSoC5/SPIM.c **** *
 662:.\Generated_Source\PSoC5/SPIM.c **** * Side Effects:
 663:.\Generated_Source\PSoC5/SPIM.c **** *  Clear status register of the component.
 664:.\Generated_Source\PSoC5/SPIM.c **** *
 665:.\Generated_Source\PSoC5/SPIM.c **** *******************************************************************************/
 666:.\Generated_Source\PSoC5/SPIM.c **** uint8 SPIM_GetRxBufferSize(void) 
 667:.\Generated_Source\PSoC5/SPIM.c **** {
 649              		.loc 1 667 0
 650              		.cfi_startproc
 651              		@ args = 0, pretend = 0, frame = 0
 652              		@ frame_needed = 0, uses_anonymous_args = 0
 653              		@ link register save eliminated.
 654              	.LBB78:
 655              	.LBB79:
 305:.\Generated_Source\PSoC5/SPIM.c ****     #endif /* (0u != SPIM_INTERNAL_RX_INT_ENABLED) */
 656              		.loc 1 305 0
 657 0000 0D4B     		ldr	r3, .L59
 658 0002 0122     		movs	r2, #1
 659 0004 1A60     		str	r2, [r3]
 660              	.LBE79:
 661              	.LBE78:
 668:.\Generated_Source\PSoC5/SPIM.c ****     uint8 size;
 669:.\Generated_Source\PSoC5/SPIM.c **** 
 670:.\Generated_Source\PSoC5/SPIM.c ****     #if(SPIM_RX_SOFTWARE_BUF_ENABLED)
 671:.\Generated_Source\PSoC5/SPIM.c **** 
 672:.\Generated_Source\PSoC5/SPIM.c ****         /* Disable RX interrupt to protect global veriables */
 673:.\Generated_Source\PSoC5/SPIM.c ****         SPIM_DisableRxInt();
 674:.\Generated_Source\PSoC5/SPIM.c **** 
 675:.\Generated_Source\PSoC5/SPIM.c ****         if(SPIM_rxBufferRead == SPIM_rxBufferWrite)
 662              		.loc 1 675 0
 663 0006 0D4A     		ldr	r2, .L59+4
 664 0008 0D4B     		ldr	r3, .L59+8
ARM GAS  C:\Users\jthem\AppData\Local\Temp\ccojL8Uh.s 			page 25


 665 000a 1078     		ldrb	r0, [r2]	@ zero_extendqisi2
 666 000c 1978     		ldrb	r1, [r3]	@ zero_extendqisi2
 667 000e 8842     		cmp	r0, r1
 668 0010 0DD0     		beq	.L57
 676:.\Generated_Source\PSoC5/SPIM.c ****         {
 677:.\Generated_Source\PSoC5/SPIM.c ****             size = 0u;
 678:.\Generated_Source\PSoC5/SPIM.c ****         }
 679:.\Generated_Source\PSoC5/SPIM.c ****         else if(SPIM_rxBufferRead < SPIM_rxBufferWrite)
 669              		.loc 1 679 0
 670 0012 1078     		ldrb	r0, [r2]	@ zero_extendqisi2
 671 0014 1978     		ldrb	r1, [r3]	@ zero_extendqisi2
 672 0016 8842     		cmp	r0, r1
 680:.\Generated_Source\PSoC5/SPIM.c ****         {
 681:.\Generated_Source\PSoC5/SPIM.c ****             size = (SPIM_rxBufferWrite - SPIM_rxBufferRead);
 682:.\Generated_Source\PSoC5/SPIM.c ****         }
 683:.\Generated_Source\PSoC5/SPIM.c ****         else
 684:.\Generated_Source\PSoC5/SPIM.c ****         {
 685:.\Generated_Source\PSoC5/SPIM.c ****             size = (SPIM_RX_BUFFER_SIZE - SPIM_rxBufferRead) + SPIM_rxBufferWrite;
 673              		.loc 1 685 0
 674 0018 2BBF     		itete	cs
 675 001a 1878     		ldrbcs	r0, [r3]	@ zero_extendqisi2
 681:.\Generated_Source\PSoC5/SPIM.c ****         }
 676              		.loc 1 681 0
 677 001c 1B78     		ldrbcc	r3, [r3]	@ zero_extendqisi2
 678              		.loc 1 685 0
 679 001e 1378     		ldrbcs	r3, [r2]	@ zero_extendqisi2
 681:.\Generated_Source\PSoC5/SPIM.c ****         }
 680              		.loc 1 681 0
 681 0020 1078     		ldrbcc	r0, [r2]	@ zero_extendqisi2
 682 0022 2ABF     		itet	cs
 683 0024 0830     		addcs	r0, r0, #8
 684 0026 181A     		subcc	r0, r3, r0
 685              		.loc 1 685 0
 686 0028 C01A     		subcs	r0, r0, r3
 687 002a C0B2     		uxtb	r0, r0
 688              	.LVL22:
 689 002c 00E0     		b	.L55
 690              	.LVL23:
 691              	.L57:
 677:.\Generated_Source\PSoC5/SPIM.c ****         }
 692              		.loc 1 677 0
 693 002e 0020     		movs	r0, #0
 694              	.L55:
 695              	.LVL24:
 696              	.LBB80:
 697              	.LBB81:
 255:.\Generated_Source\PSoC5/SPIM.c ****     #endif /* (0u != SPIM_INTERNAL_RX_INT_ENABLED) */
 698              		.loc 1 255 0
 699 0030 044B     		ldr	r3, .L59+12
 700 0032 0122     		movs	r2, #1
 701 0034 1A60     		str	r2, [r3]
 702              	.LBE81:
 703              	.LBE80:
 686:.\Generated_Source\PSoC5/SPIM.c ****         }
 687:.\Generated_Source\PSoC5/SPIM.c **** 
 688:.\Generated_Source\PSoC5/SPIM.c ****         SPIM_EnableRxInt();
 689:.\Generated_Source\PSoC5/SPIM.c **** 
ARM GAS  C:\Users\jthem\AppData\Local\Temp\ccojL8Uh.s 			page 26


 690:.\Generated_Source\PSoC5/SPIM.c ****     #else
 691:.\Generated_Source\PSoC5/SPIM.c **** 
 692:.\Generated_Source\PSoC5/SPIM.c ****         /* We can only know if there is data in the RX FIFO */
 693:.\Generated_Source\PSoC5/SPIM.c ****         size = (0u != (SPIM_RX_STATUS_REG & SPIM_STS_RX_FIFO_NOT_EMPTY)) ? 1u : 0u;
 694:.\Generated_Source\PSoC5/SPIM.c **** 
 695:.\Generated_Source\PSoC5/SPIM.c ****     #endif /* (SPIM_TX_SOFTWARE_BUF_ENABLED) */
 696:.\Generated_Source\PSoC5/SPIM.c **** 
 697:.\Generated_Source\PSoC5/SPIM.c ****     return(size);
 698:.\Generated_Source\PSoC5/SPIM.c **** }
 704              		.loc 1 698 0
 705 0036 7047     		bx	lr
 706              	.L60:
 707              		.align	2
 708              	.L59:
 709 0038 80E100E0 		.word	-536813184
 710 003c 00000000 		.word	SPIM_rxBufferRead
 711 0040 00000000 		.word	SPIM_rxBufferWrite
 712 0044 00E100E0 		.word	-536813312
 713              		.cfi_endproc
 714              	.LFE14:
 715              		.size	SPIM_GetRxBufferSize, .-SPIM_GetRxBufferSize
 716              		.section	.text.SPIM_GetTxBufferSize,"ax",%progbits
 717              		.align	1
 718              		.global	SPIM_GetTxBufferSize
 719              		.thumb
 720              		.thumb_func
 721              		.type	SPIM_GetTxBufferSize, %function
 722              	SPIM_GetTxBufferSize:
 723              	.LFB15:
 699:.\Generated_Source\PSoC5/SPIM.c **** 
 700:.\Generated_Source\PSoC5/SPIM.c **** 
 701:.\Generated_Source\PSoC5/SPIM.c **** /*******************************************************************************
 702:.\Generated_Source\PSoC5/SPIM.c **** * Function Name: SPIM_GetTxBufferSize
 703:.\Generated_Source\PSoC5/SPIM.c **** ********************************************************************************
 704:.\Generated_Source\PSoC5/SPIM.c **** *
 705:.\Generated_Source\PSoC5/SPIM.c **** * Summary:
 706:.\Generated_Source\PSoC5/SPIM.c **** *  Returns the number of bytes/words of data currently held in the TX buffer.
 707:.\Generated_Source\PSoC5/SPIM.c **** *  If TX Software Buffer not used then function return 0 - if FIFO empty, 1 - if
 708:.\Generated_Source\PSoC5/SPIM.c **** *  FIFO not full, 4 - if FIFO full. In another case function return size of TX
 709:.\Generated_Source\PSoC5/SPIM.c **** *  Software Buffer.
 710:.\Generated_Source\PSoC5/SPIM.c **** *
 711:.\Generated_Source\PSoC5/SPIM.c **** * Parameters:
 712:.\Generated_Source\PSoC5/SPIM.c **** *  None.
 713:.\Generated_Source\PSoC5/SPIM.c **** *
 714:.\Generated_Source\PSoC5/SPIM.c **** * Return:
 715:.\Generated_Source\PSoC5/SPIM.c **** *  Integer count of the number of bytes/words in the TX buffer.
 716:.\Generated_Source\PSoC5/SPIM.c **** *
 717:.\Generated_Source\PSoC5/SPIM.c **** * Global variables:
 718:.\Generated_Source\PSoC5/SPIM.c **** *  SPIM_txBufferWrite - used for the account of the bytes which
 719:.\Generated_Source\PSoC5/SPIM.c **** *  have been written down in the TX software buffer.
 720:.\Generated_Source\PSoC5/SPIM.c **** *  SPIM_txBufferRead - used for the account of the bytes which
 721:.\Generated_Source\PSoC5/SPIM.c **** *  have been read from the TX software buffer.
 722:.\Generated_Source\PSoC5/SPIM.c **** *
 723:.\Generated_Source\PSoC5/SPIM.c **** * Side Effects:
 724:.\Generated_Source\PSoC5/SPIM.c **** *  Clear status register of the component.
 725:.\Generated_Source\PSoC5/SPIM.c **** *
 726:.\Generated_Source\PSoC5/SPIM.c **** *******************************************************************************/
ARM GAS  C:\Users\jthem\AppData\Local\Temp\ccojL8Uh.s 			page 27


 727:.\Generated_Source\PSoC5/SPIM.c **** uint8  SPIM_GetTxBufferSize(void) 
 728:.\Generated_Source\PSoC5/SPIM.c **** {
 724              		.loc 1 728 0
 725              		.cfi_startproc
 726              		@ args = 0, pretend = 0, frame = 0
 727              		@ frame_needed = 0, uses_anonymous_args = 0
 728              		@ link register save eliminated.
 729              	.LBB82:
 730              	.LBB83:
 280:.\Generated_Source\PSoC5/SPIM.c ****     #endif /* (0u != SPIM_INTERNAL_TX_INT_ENABLED) */
 731              		.loc 1 280 0
 732 0000 0D4B     		ldr	r3, .L66
 733 0002 0222     		movs	r2, #2
 734 0004 1A60     		str	r2, [r3]
 735              	.LBE83:
 736              	.LBE82:
 729:.\Generated_Source\PSoC5/SPIM.c ****     uint8 size;
 730:.\Generated_Source\PSoC5/SPIM.c **** 
 731:.\Generated_Source\PSoC5/SPIM.c ****     #if(SPIM_TX_SOFTWARE_BUF_ENABLED)
 732:.\Generated_Source\PSoC5/SPIM.c ****         /* Disable TX interrupt to protect global veriables */
 733:.\Generated_Source\PSoC5/SPIM.c ****         SPIM_DisableTxInt();
 734:.\Generated_Source\PSoC5/SPIM.c **** 
 735:.\Generated_Source\PSoC5/SPIM.c ****         if(SPIM_txBufferRead == SPIM_txBufferWrite)
 737              		.loc 1 735 0
 738 0006 0D4A     		ldr	r2, .L66+4
 739 0008 0D4B     		ldr	r3, .L66+8
 740 000a 1078     		ldrb	r0, [r2]	@ zero_extendqisi2
 741 000c 1978     		ldrb	r1, [r3]	@ zero_extendqisi2
 742 000e 8842     		cmp	r0, r1
 743 0010 0DD0     		beq	.L64
 736:.\Generated_Source\PSoC5/SPIM.c ****         {
 737:.\Generated_Source\PSoC5/SPIM.c ****             size = 0u;
 738:.\Generated_Source\PSoC5/SPIM.c ****         }
 739:.\Generated_Source\PSoC5/SPIM.c ****         else if(SPIM_txBufferRead < SPIM_txBufferWrite)
 744              		.loc 1 739 0
 745 0012 1078     		ldrb	r0, [r2]	@ zero_extendqisi2
 746 0014 1978     		ldrb	r1, [r3]	@ zero_extendqisi2
 747 0016 8842     		cmp	r0, r1
 740:.\Generated_Source\PSoC5/SPIM.c ****         {
 741:.\Generated_Source\PSoC5/SPIM.c ****             size = (SPIM_txBufferWrite - SPIM_txBufferRead);
 742:.\Generated_Source\PSoC5/SPIM.c ****         }
 743:.\Generated_Source\PSoC5/SPIM.c ****         else
 744:.\Generated_Source\PSoC5/SPIM.c ****         {
 745:.\Generated_Source\PSoC5/SPIM.c ****             size = (SPIM_TX_BUFFER_SIZE - SPIM_txBufferRead) + SPIM_txBufferWrite;
 748              		.loc 1 745 0
 749 0018 2BBF     		itete	cs
 750 001a 1878     		ldrbcs	r0, [r3]	@ zero_extendqisi2
 741:.\Generated_Source\PSoC5/SPIM.c ****         }
 751              		.loc 1 741 0
 752 001c 1B78     		ldrbcc	r3, [r3]	@ zero_extendqisi2
 753              		.loc 1 745 0
 754 001e 1378     		ldrbcs	r3, [r2]	@ zero_extendqisi2
 741:.\Generated_Source\PSoC5/SPIM.c ****         }
 755              		.loc 1 741 0
 756 0020 1078     		ldrbcc	r0, [r2]	@ zero_extendqisi2
 757 0022 2ABF     		itet	cs
 758 0024 0830     		addcs	r0, r0, #8
ARM GAS  C:\Users\jthem\AppData\Local\Temp\ccojL8Uh.s 			page 28


 759 0026 181A     		subcc	r0, r3, r0
 760              		.loc 1 745 0
 761 0028 C01A     		subcs	r0, r0, r3
 762 002a C0B2     		uxtb	r0, r0
 763              	.LVL25:
 764 002c 00E0     		b	.L62
 765              	.LVL26:
 766              	.L64:
 737:.\Generated_Source\PSoC5/SPIM.c ****         }
 767              		.loc 1 737 0
 768 002e 0020     		movs	r0, #0
 769              	.L62:
 770              	.LVL27:
 771              	.LBB84:
 772              	.LBB85:
 230:.\Generated_Source\PSoC5/SPIM.c ****     #endif /* (0u != SPIM_INTERNAL_TX_INT_ENABLED) */
 773              		.loc 1 230 0
 774 0030 044B     		ldr	r3, .L66+12
 775 0032 0222     		movs	r2, #2
 776 0034 1A60     		str	r2, [r3]
 777              	.LBE85:
 778              	.LBE84:
 746:.\Generated_Source\PSoC5/SPIM.c ****         }
 747:.\Generated_Source\PSoC5/SPIM.c **** 
 748:.\Generated_Source\PSoC5/SPIM.c ****         SPIM_EnableTxInt();
 749:.\Generated_Source\PSoC5/SPIM.c **** 
 750:.\Generated_Source\PSoC5/SPIM.c ****     #else
 751:.\Generated_Source\PSoC5/SPIM.c **** 
 752:.\Generated_Source\PSoC5/SPIM.c ****         size = SPIM_TX_STATUS_REG;
 753:.\Generated_Source\PSoC5/SPIM.c **** 
 754:.\Generated_Source\PSoC5/SPIM.c ****         if(0u != (size & SPIM_STS_TX_FIFO_EMPTY))
 755:.\Generated_Source\PSoC5/SPIM.c ****         {
 756:.\Generated_Source\PSoC5/SPIM.c ****             size = 0u;
 757:.\Generated_Source\PSoC5/SPIM.c ****         }
 758:.\Generated_Source\PSoC5/SPIM.c ****         else if(0u != (size & SPIM_STS_TX_FIFO_NOT_FULL))
 759:.\Generated_Source\PSoC5/SPIM.c ****         {
 760:.\Generated_Source\PSoC5/SPIM.c ****             size = 1u;
 761:.\Generated_Source\PSoC5/SPIM.c ****         }
 762:.\Generated_Source\PSoC5/SPIM.c ****         else
 763:.\Generated_Source\PSoC5/SPIM.c ****         {
 764:.\Generated_Source\PSoC5/SPIM.c ****             size = SPIM_FIFO_SIZE;
 765:.\Generated_Source\PSoC5/SPIM.c ****         }
 766:.\Generated_Source\PSoC5/SPIM.c **** 
 767:.\Generated_Source\PSoC5/SPIM.c ****     #endif /* (SPIM_TX_SOFTWARE_BUF_ENABLED) */
 768:.\Generated_Source\PSoC5/SPIM.c **** 
 769:.\Generated_Source\PSoC5/SPIM.c ****     return(size);
 770:.\Generated_Source\PSoC5/SPIM.c **** }
 779              		.loc 1 770 0
 780 0036 7047     		bx	lr
 781              	.L67:
 782              		.align	2
 783              	.L66:
 784 0038 80E100E0 		.word	-536813184
 785 003c 00000000 		.word	SPIM_txBufferRead
 786 0040 00000000 		.word	SPIM_txBufferWrite
 787 0044 00E100E0 		.word	-536813312
 788              		.cfi_endproc
ARM GAS  C:\Users\jthem\AppData\Local\Temp\ccojL8Uh.s 			page 29


 789              	.LFE15:
 790              		.size	SPIM_GetTxBufferSize, .-SPIM_GetTxBufferSize
 791              		.section	.text.SPIM_ClearRxBuffer,"ax",%progbits
 792              		.align	1
 793              		.global	SPIM_ClearRxBuffer
 794              		.thumb
 795              		.thumb_func
 796              		.type	SPIM_ClearRxBuffer, %function
 797              	SPIM_ClearRxBuffer:
 798              	.LFB16:
 771:.\Generated_Source\PSoC5/SPIM.c **** 
 772:.\Generated_Source\PSoC5/SPIM.c **** 
 773:.\Generated_Source\PSoC5/SPIM.c **** /*******************************************************************************
 774:.\Generated_Source\PSoC5/SPIM.c **** * Function Name: SPIM_ClearRxBuffer
 775:.\Generated_Source\PSoC5/SPIM.c **** ********************************************************************************
 776:.\Generated_Source\PSoC5/SPIM.c **** *
 777:.\Generated_Source\PSoC5/SPIM.c **** * Summary:
 778:.\Generated_Source\PSoC5/SPIM.c **** *  Clear the RX RAM buffer by setting the read and write pointers both to zero.
 779:.\Generated_Source\PSoC5/SPIM.c **** *
 780:.\Generated_Source\PSoC5/SPIM.c **** * Parameters:
 781:.\Generated_Source\PSoC5/SPIM.c **** *  None.
 782:.\Generated_Source\PSoC5/SPIM.c **** *
 783:.\Generated_Source\PSoC5/SPIM.c **** * Return:
 784:.\Generated_Source\PSoC5/SPIM.c **** *  None.
 785:.\Generated_Source\PSoC5/SPIM.c **** *
 786:.\Generated_Source\PSoC5/SPIM.c **** * Global variables:
 787:.\Generated_Source\PSoC5/SPIM.c **** *  SPIM_rxBufferWrite - used for the account of the bytes which
 788:.\Generated_Source\PSoC5/SPIM.c **** *  have been written down in the RX software buffer, modified every function
 789:.\Generated_Source\PSoC5/SPIM.c **** *  call - resets to zero.
 790:.\Generated_Source\PSoC5/SPIM.c **** *  SPIM_rxBufferRead - used for the account of the bytes which
 791:.\Generated_Source\PSoC5/SPIM.c **** *  have been read from the RX software buffer, modified every function call -
 792:.\Generated_Source\PSoC5/SPIM.c **** *  resets to zero.
 793:.\Generated_Source\PSoC5/SPIM.c **** *
 794:.\Generated_Source\PSoC5/SPIM.c **** * Theory:
 795:.\Generated_Source\PSoC5/SPIM.c **** *  Setting the pointers to zero makes the system believe there is no data to
 796:.\Generated_Source\PSoC5/SPIM.c **** *  read and writing will resume at address 0 overwriting any data that may have
 797:.\Generated_Source\PSoC5/SPIM.c **** *  remained in the RAM.
 798:.\Generated_Source\PSoC5/SPIM.c **** *
 799:.\Generated_Source\PSoC5/SPIM.c **** * Side Effects:
 800:.\Generated_Source\PSoC5/SPIM.c **** *  Any received data not read from the RAM buffer will be lost when overwritten.
 801:.\Generated_Source\PSoC5/SPIM.c **** *
 802:.\Generated_Source\PSoC5/SPIM.c **** * Reentrant:
 803:.\Generated_Source\PSoC5/SPIM.c **** *  No.
 804:.\Generated_Source\PSoC5/SPIM.c **** *
 805:.\Generated_Source\PSoC5/SPIM.c **** *******************************************************************************/
 806:.\Generated_Source\PSoC5/SPIM.c **** void SPIM_ClearRxBuffer(void) 
 807:.\Generated_Source\PSoC5/SPIM.c **** {
 799              		.loc 1 807 0
 800              		.cfi_startproc
 801              		@ args = 0, pretend = 0, frame = 0
 802              		@ frame_needed = 0, uses_anonymous_args = 0
 803              		@ link register save eliminated.
 804              	.L69:
 808:.\Generated_Source\PSoC5/SPIM.c ****     /* Clear Hardware RX FIFO */
 809:.\Generated_Source\PSoC5/SPIM.c ****     while(0u !=(SPIM_RX_STATUS_REG & SPIM_STS_RX_FIFO_NOT_EMPTY))
 805              		.loc 1 809 0
 806 0000 0A4B     		ldr	r3, .L72
ARM GAS  C:\Users\jthem\AppData\Local\Temp\ccojL8Uh.s 			page 30


 807 0002 1B78     		ldrb	r3, [r3]	@ zero_extendqisi2
 808 0004 03F02003 		and	r3, r3, #32
 809 0008 03F0FF02 		and	r2, r3, #255
 810 000c 13B1     		cbz	r3, .L71
 810:.\Generated_Source\PSoC5/SPIM.c ****     {
 811:.\Generated_Source\PSoC5/SPIM.c ****         (void) CY_GET_REG8(SPIM_RXDATA_PTR);
 811              		.loc 1 811 0
 812 000e 084B     		ldr	r3, .L72+4
 813 0010 1B78     		ldrb	r3, [r3]	@ zero_extendqisi2
 814 0012 F5E7     		b	.L69
 815              	.L71:
 816              	.LBB86:
 817              	.LBB87:
 305:.\Generated_Source\PSoC5/SPIM.c ****     #endif /* (0u != SPIM_INTERNAL_RX_INT_ENABLED) */
 818              		.loc 1 305 0
 819 0014 0749     		ldr	r1, .L72+8
 820 0016 0123     		movs	r3, #1
 821 0018 0B60     		str	r3, [r1]
 822              	.LBE87:
 823              	.LBE86:
 812:.\Generated_Source\PSoC5/SPIM.c ****     }
 813:.\Generated_Source\PSoC5/SPIM.c **** 
 814:.\Generated_Source\PSoC5/SPIM.c ****     #if(SPIM_RX_SOFTWARE_BUF_ENABLED)
 815:.\Generated_Source\PSoC5/SPIM.c ****         /* Disable RX interrupt to protect global veriables */
 816:.\Generated_Source\PSoC5/SPIM.c ****         SPIM_DisableRxInt();
 817:.\Generated_Source\PSoC5/SPIM.c **** 
 818:.\Generated_Source\PSoC5/SPIM.c ****         SPIM_rxBufferFull  = 0u;
 824              		.loc 1 818 0
 825 001a 0749     		ldr	r1, .L72+12
 826 001c 0A70     		strb	r2, [r1]
 819:.\Generated_Source\PSoC5/SPIM.c ****         SPIM_rxBufferRead  = 0u;
 827              		.loc 1 819 0
 828 001e 0749     		ldr	r1, .L72+16
 829 0020 0A70     		strb	r2, [r1]
 820:.\Generated_Source\PSoC5/SPIM.c ****         SPIM_rxBufferWrite = 0u;
 830              		.loc 1 820 0
 831 0022 0749     		ldr	r1, .L72+20
 832 0024 0A70     		strb	r2, [r1]
 833              	.LBB88:
 834              	.LBB89:
 255:.\Generated_Source\PSoC5/SPIM.c ****     #endif /* (0u != SPIM_INTERNAL_RX_INT_ENABLED) */
 835              		.loc 1 255 0
 836 0026 074A     		ldr	r2, .L72+24
 837 0028 1360     		str	r3, [r2]
 838 002a 7047     		bx	lr
 839              	.L73:
 840              		.align	2
 841              	.L72:
 842 002c 65650040 		.word	1073767781
 843 0030 56650040 		.word	1073767766
 844 0034 80E100E0 		.word	-536813184
 845 0038 00000000 		.word	SPIM_rxBufferFull
 846 003c 00000000 		.word	SPIM_rxBufferRead
 847 0040 00000000 		.word	SPIM_rxBufferWrite
 848 0044 00E100E0 		.word	-536813312
 849              	.LBE89:
 850              	.LBE88:
ARM GAS  C:\Users\jthem\AppData\Local\Temp\ccojL8Uh.s 			page 31


 851              		.cfi_endproc
 852              	.LFE16:
 853              		.size	SPIM_ClearRxBuffer, .-SPIM_ClearRxBuffer
 854              		.section	.text.SPIM_ClearTxBuffer,"ax",%progbits
 855              		.align	1
 856              		.global	SPIM_ClearTxBuffer
 857              		.thumb
 858              		.thumb_func
 859              		.type	SPIM_ClearTxBuffer, %function
 860              	SPIM_ClearTxBuffer:
 861              	.LFB17:
 821:.\Generated_Source\PSoC5/SPIM.c **** 
 822:.\Generated_Source\PSoC5/SPIM.c ****         SPIM_EnableRxInt();
 823:.\Generated_Source\PSoC5/SPIM.c ****     #endif /* (SPIM_RX_SOFTWARE_BUF_ENABLED) */
 824:.\Generated_Source\PSoC5/SPIM.c **** }
 825:.\Generated_Source\PSoC5/SPIM.c **** 
 826:.\Generated_Source\PSoC5/SPIM.c **** 
 827:.\Generated_Source\PSoC5/SPIM.c **** /*******************************************************************************
 828:.\Generated_Source\PSoC5/SPIM.c **** * Function Name: SPIM_ClearTxBuffer
 829:.\Generated_Source\PSoC5/SPIM.c **** ********************************************************************************
 830:.\Generated_Source\PSoC5/SPIM.c **** *
 831:.\Generated_Source\PSoC5/SPIM.c **** * Summary:
 832:.\Generated_Source\PSoC5/SPIM.c **** *  Clear the TX RAM buffer by setting the read and write pointers both to zero.
 833:.\Generated_Source\PSoC5/SPIM.c **** *
 834:.\Generated_Source\PSoC5/SPIM.c **** * Parameters:
 835:.\Generated_Source\PSoC5/SPIM.c **** *  None.
 836:.\Generated_Source\PSoC5/SPIM.c **** *
 837:.\Generated_Source\PSoC5/SPIM.c **** * Return:
 838:.\Generated_Source\PSoC5/SPIM.c **** *  None.
 839:.\Generated_Source\PSoC5/SPIM.c **** *
 840:.\Generated_Source\PSoC5/SPIM.c **** * Global variables:
 841:.\Generated_Source\PSoC5/SPIM.c **** *  SPIM_txBufferWrite - used for the account of the bytes which
 842:.\Generated_Source\PSoC5/SPIM.c **** *  have been written down in the TX software buffer, modified every function
 843:.\Generated_Source\PSoC5/SPIM.c **** *  call - resets to zero.
 844:.\Generated_Source\PSoC5/SPIM.c **** *  SPIM_txBufferRead - used for the account of the bytes which
 845:.\Generated_Source\PSoC5/SPIM.c **** *  have been read from the TX software buffer, modified every function call -
 846:.\Generated_Source\PSoC5/SPIM.c **** *  resets to zero.
 847:.\Generated_Source\PSoC5/SPIM.c **** *
 848:.\Generated_Source\PSoC5/SPIM.c **** * Theory:
 849:.\Generated_Source\PSoC5/SPIM.c **** *  Setting the pointers to zero makes the system believe there is no data to
 850:.\Generated_Source\PSoC5/SPIM.c **** *  read and writing will resume at address 0 overwriting any data that may have
 851:.\Generated_Source\PSoC5/SPIM.c **** *  remained in the RAM.
 852:.\Generated_Source\PSoC5/SPIM.c **** *
 853:.\Generated_Source\PSoC5/SPIM.c **** * Side Effects:
 854:.\Generated_Source\PSoC5/SPIM.c **** *  Any data not yet transmitted from the RAM buffer will be lost when
 855:.\Generated_Source\PSoC5/SPIM.c **** *  overwritten.
 856:.\Generated_Source\PSoC5/SPIM.c **** *
 857:.\Generated_Source\PSoC5/SPIM.c **** * Reentrant:
 858:.\Generated_Source\PSoC5/SPIM.c **** *  No.
 859:.\Generated_Source\PSoC5/SPIM.c **** *
 860:.\Generated_Source\PSoC5/SPIM.c **** *******************************************************************************/
 861:.\Generated_Source\PSoC5/SPIM.c **** void SPIM_ClearTxBuffer(void) 
 862:.\Generated_Source\PSoC5/SPIM.c **** {
 862              		.loc 1 862 0
 863              		.cfi_startproc
 864              		@ args = 0, pretend = 0, frame = 0
 865              		@ frame_needed = 0, uses_anonymous_args = 0
ARM GAS  C:\Users\jthem\AppData\Local\Temp\ccojL8Uh.s 			page 32


 866 0000 08B5     		push	{r3, lr}
 867              		.cfi_def_cfa_offset 8
 868              		.cfi_offset 3, -8
 869              		.cfi_offset 14, -4
 863:.\Generated_Source\PSoC5/SPIM.c ****     uint8 enableInterrupts;
 864:.\Generated_Source\PSoC5/SPIM.c **** 
 865:.\Generated_Source\PSoC5/SPIM.c ****     enableInterrupts = CyEnterCriticalSection();
 870              		.loc 1 865 0
 871 0002 FFF7FEFF 		bl	CyEnterCriticalSection
 872              	.LVL28:
 866:.\Generated_Source\PSoC5/SPIM.c ****     /* Clear TX FIFO */
 867:.\Generated_Source\PSoC5/SPIM.c ****     SPIM_AUX_CONTROL_DP0_REG |= ((uint8)  SPIM_TX_FIFO_CLR);
 873              		.loc 1 867 0
 874 0006 0E4B     		ldr	r3, .L75
 875 0008 1A78     		ldrb	r2, [r3]	@ zero_extendqisi2
 876 000a 42F00102 		orr	r2, r2, #1
 877 000e 1A70     		strb	r2, [r3]
 868:.\Generated_Source\PSoC5/SPIM.c ****     SPIM_AUX_CONTROL_DP0_REG &= ((uint8) ~SPIM_TX_FIFO_CLR);
 878              		.loc 1 868 0
 879 0010 1A78     		ldrb	r2, [r3]	@ zero_extendqisi2
 880 0012 02F0FE02 		and	r2, r2, #254
 881 0016 1A70     		strb	r2, [r3]
 869:.\Generated_Source\PSoC5/SPIM.c **** 
 870:.\Generated_Source\PSoC5/SPIM.c ****     #if(SPIM_USE_SECOND_DATAPATH)
 871:.\Generated_Source\PSoC5/SPIM.c ****         /* Clear TX FIFO for 2nd Datapath */
 872:.\Generated_Source\PSoC5/SPIM.c ****         SPIM_AUX_CONTROL_DP1_REG |= ((uint8)  SPIM_TX_FIFO_CLR);
 873:.\Generated_Source\PSoC5/SPIM.c ****         SPIM_AUX_CONTROL_DP1_REG &= ((uint8) ~SPIM_TX_FIFO_CLR);
 874:.\Generated_Source\PSoC5/SPIM.c ****     #endif /* (SPIM_USE_SECOND_DATAPATH) */
 875:.\Generated_Source\PSoC5/SPIM.c ****     CyExitCriticalSection(enableInterrupts);
 882              		.loc 1 875 0
 883 0018 FFF7FEFF 		bl	CyExitCriticalSection
 884              	.LVL29:
 885              	.LBB90:
 886              	.LBB91:
 280:.\Generated_Source\PSoC5/SPIM.c ****     #endif /* (0u != SPIM_INTERNAL_TX_INT_ENABLED) */
 887              		.loc 1 280 0
 888 001c 094B     		ldr	r3, .L75+4
 889 001e 0222     		movs	r2, #2
 890              	.LBE91:
 891              	.LBE90:
 876:.\Generated_Source\PSoC5/SPIM.c **** 
 877:.\Generated_Source\PSoC5/SPIM.c ****     #if(SPIM_TX_SOFTWARE_BUF_ENABLED)
 878:.\Generated_Source\PSoC5/SPIM.c ****         /* Disable TX interrupt to protect global veriables */
 879:.\Generated_Source\PSoC5/SPIM.c ****         SPIM_DisableTxInt();
 880:.\Generated_Source\PSoC5/SPIM.c **** 
 881:.\Generated_Source\PSoC5/SPIM.c ****         SPIM_txBufferFull  = 0u;
 892              		.loc 1 881 0
 893 0020 0949     		ldr	r1, .L75+8
 894              	.LBB93:
 895              	.LBB92:
 280:.\Generated_Source\PSoC5/SPIM.c ****     #endif /* (0u != SPIM_INTERNAL_TX_INT_ENABLED) */
 896              		.loc 1 280 0
 897 0022 1A60     		str	r2, [r3]
 898              	.LBE92:
 899              	.LBE93:
 900              		.loc 1 881 0
 901 0024 0023     		movs	r3, #0
ARM GAS  C:\Users\jthem\AppData\Local\Temp\ccojL8Uh.s 			page 33


 902 0026 0B70     		strb	r3, [r1]
 882:.\Generated_Source\PSoC5/SPIM.c ****         SPIM_txBufferRead  = 0u;
 903              		.loc 1 882 0
 904 0028 0849     		ldr	r1, .L75+12
 905 002a 0B70     		strb	r3, [r1]
 883:.\Generated_Source\PSoC5/SPIM.c ****         SPIM_txBufferWrite = 0u;
 906              		.loc 1 883 0
 907 002c 0849     		ldr	r1, .L75+16
 908 002e 0B70     		strb	r3, [r1]
 884:.\Generated_Source\PSoC5/SPIM.c **** 
 885:.\Generated_Source\PSoC5/SPIM.c ****         /* Buffer is EMPTY: disable TX FIFO NOT FULL interrupt */
 886:.\Generated_Source\PSoC5/SPIM.c ****         SPIM_TX_STATUS_MASK_REG &= ((uint8) ~SPIM_STS_TX_FIFO_NOT_FULL);
 909              		.loc 1 886 0
 910 0030 0849     		ldr	r1, .L75+20
 911 0032 0B78     		ldrb	r3, [r1]	@ zero_extendqisi2
 912 0034 03F0FB03 		and	r3, r3, #251
 913 0038 0B70     		strb	r3, [r1]
 914              	.LBB94:
 915              	.LBB95:
 230:.\Generated_Source\PSoC5/SPIM.c ****     #endif /* (0u != SPIM_INTERNAL_TX_INT_ENABLED) */
 916              		.loc 1 230 0
 917 003a 074B     		ldr	r3, .L75+24
 918 003c 1A60     		str	r2, [r3]
 919 003e 08BD     		pop	{r3, pc}
 920              	.L76:
 921              		.align	2
 922              	.L75:
 923 0040 96650040 		.word	1073767830
 924 0044 80E100E0 		.word	-536813184
 925 0048 00000000 		.word	SPIM_txBufferFull
 926 004c 00000000 		.word	SPIM_txBufferRead
 927 0050 00000000 		.word	SPIM_txBufferWrite
 928 0054 87650040 		.word	1073767815
 929 0058 00E100E0 		.word	-536813312
 930              	.LBE95:
 931              	.LBE94:
 932              		.cfi_endproc
 933              	.LFE17:
 934              		.size	SPIM_ClearTxBuffer, .-SPIM_ClearTxBuffer
 935              		.section	.text.SPIM_PutArray,"ax",%progbits
 936              		.align	1
 937              		.global	SPIM_PutArray
 938              		.thumb
 939              		.thumb_func
 940              		.type	SPIM_PutArray, %function
 941              	SPIM_PutArray:
 942              	.LFB18:
 887:.\Generated_Source\PSoC5/SPIM.c **** 
 888:.\Generated_Source\PSoC5/SPIM.c ****         SPIM_EnableTxInt();
 889:.\Generated_Source\PSoC5/SPIM.c ****     #endif /* (SPIM_TX_SOFTWARE_BUF_ENABLED) */
 890:.\Generated_Source\PSoC5/SPIM.c **** }
 891:.\Generated_Source\PSoC5/SPIM.c **** 
 892:.\Generated_Source\PSoC5/SPIM.c **** 
 893:.\Generated_Source\PSoC5/SPIM.c **** #if(0u != SPIM_BIDIRECTIONAL_MODE)
 894:.\Generated_Source\PSoC5/SPIM.c ****     /*******************************************************************************
 895:.\Generated_Source\PSoC5/SPIM.c ****     * Function Name: SPIM_TxEnable
 896:.\Generated_Source\PSoC5/SPIM.c ****     ********************************************************************************
ARM GAS  C:\Users\jthem\AppData\Local\Temp\ccojL8Uh.s 			page 34


 897:.\Generated_Source\PSoC5/SPIM.c ****     *
 898:.\Generated_Source\PSoC5/SPIM.c ****     * Summary:
 899:.\Generated_Source\PSoC5/SPIM.c ****     *  If the SPI master is configured to use a single bi-directional pin then this
 900:.\Generated_Source\PSoC5/SPIM.c ****     *  will set the bi-directional pin to transmit.
 901:.\Generated_Source\PSoC5/SPIM.c ****     *
 902:.\Generated_Source\PSoC5/SPIM.c ****     * Parameters:
 903:.\Generated_Source\PSoC5/SPIM.c ****     *  None.
 904:.\Generated_Source\PSoC5/SPIM.c ****     *
 905:.\Generated_Source\PSoC5/SPIM.c ****     * Return:
 906:.\Generated_Source\PSoC5/SPIM.c ****     *  None.
 907:.\Generated_Source\PSoC5/SPIM.c ****     *
 908:.\Generated_Source\PSoC5/SPIM.c ****     *******************************************************************************/
 909:.\Generated_Source\PSoC5/SPIM.c ****     void SPIM_TxEnable(void) 
 910:.\Generated_Source\PSoC5/SPIM.c ****     {
 911:.\Generated_Source\PSoC5/SPIM.c ****         SPIM_CONTROL_REG |= SPIM_CTRL_TX_SIGNAL_EN;
 912:.\Generated_Source\PSoC5/SPIM.c ****     }
 913:.\Generated_Source\PSoC5/SPIM.c **** 
 914:.\Generated_Source\PSoC5/SPIM.c **** 
 915:.\Generated_Source\PSoC5/SPIM.c ****     /*******************************************************************************
 916:.\Generated_Source\PSoC5/SPIM.c ****     * Function Name: SPIM_TxDisable
 917:.\Generated_Source\PSoC5/SPIM.c ****     ********************************************************************************
 918:.\Generated_Source\PSoC5/SPIM.c ****     *
 919:.\Generated_Source\PSoC5/SPIM.c ****     * Summary:
 920:.\Generated_Source\PSoC5/SPIM.c ****     *  If the SPI master is configured to use a single bi-directional pin then this
 921:.\Generated_Source\PSoC5/SPIM.c ****     *  will set the bi-directional pin to receive.
 922:.\Generated_Source\PSoC5/SPIM.c ****     *
 923:.\Generated_Source\PSoC5/SPIM.c ****     * Parameters:
 924:.\Generated_Source\PSoC5/SPIM.c ****     *  None.
 925:.\Generated_Source\PSoC5/SPIM.c ****     *
 926:.\Generated_Source\PSoC5/SPIM.c ****     * Return:
 927:.\Generated_Source\PSoC5/SPIM.c ****     *  None.
 928:.\Generated_Source\PSoC5/SPIM.c ****     *
 929:.\Generated_Source\PSoC5/SPIM.c ****     *******************************************************************************/
 930:.\Generated_Source\PSoC5/SPIM.c ****     void SPIM_TxDisable(void) 
 931:.\Generated_Source\PSoC5/SPIM.c ****     {
 932:.\Generated_Source\PSoC5/SPIM.c ****         SPIM_CONTROL_REG &= ((uint8) ~SPIM_CTRL_TX_SIGNAL_EN);
 933:.\Generated_Source\PSoC5/SPIM.c ****     }
 934:.\Generated_Source\PSoC5/SPIM.c **** 
 935:.\Generated_Source\PSoC5/SPIM.c **** #endif /* (0u != SPIM_BIDIRECTIONAL_MODE) */
 936:.\Generated_Source\PSoC5/SPIM.c **** 
 937:.\Generated_Source\PSoC5/SPIM.c **** 
 938:.\Generated_Source\PSoC5/SPIM.c **** /*******************************************************************************
 939:.\Generated_Source\PSoC5/SPIM.c **** * Function Name: SPIM_PutArray
 940:.\Generated_Source\PSoC5/SPIM.c **** ********************************************************************************
 941:.\Generated_Source\PSoC5/SPIM.c **** *
 942:.\Generated_Source\PSoC5/SPIM.c **** * Summary:
 943:.\Generated_Source\PSoC5/SPIM.c **** *  Write available data from ROM/RAM to the TX buffer while space is available
 944:.\Generated_Source\PSoC5/SPIM.c **** *  in the TX buffer. Keep trying until all data is passed to the TX buffer.
 945:.\Generated_Source\PSoC5/SPIM.c **** *
 946:.\Generated_Source\PSoC5/SPIM.c **** * Parameters:
 947:.\Generated_Source\PSoC5/SPIM.c **** *  *buffer: Pointer to the location in RAM containing the data to send
 948:.\Generated_Source\PSoC5/SPIM.c **** *  byteCount: The number of bytes to move to the transmit buffer.
 949:.\Generated_Source\PSoC5/SPIM.c **** *
 950:.\Generated_Source\PSoC5/SPIM.c **** * Return:
 951:.\Generated_Source\PSoC5/SPIM.c **** *  None.
 952:.\Generated_Source\PSoC5/SPIM.c **** *
 953:.\Generated_Source\PSoC5/SPIM.c **** * Side Effects:
ARM GAS  C:\Users\jthem\AppData\Local\Temp\ccojL8Uh.s 			page 35


 954:.\Generated_Source\PSoC5/SPIM.c **** *  Will stay in this routine until all data has been sent.  May get locked in
 955:.\Generated_Source\PSoC5/SPIM.c **** *  this loop if data is not being initiated by the master if there is not
 956:.\Generated_Source\PSoC5/SPIM.c **** *  enough room in the TX FIFO.
 957:.\Generated_Source\PSoC5/SPIM.c **** *
 958:.\Generated_Source\PSoC5/SPIM.c **** * Reentrant:
 959:.\Generated_Source\PSoC5/SPIM.c **** *  No.
 960:.\Generated_Source\PSoC5/SPIM.c **** *
 961:.\Generated_Source\PSoC5/SPIM.c **** *******************************************************************************/
 962:.\Generated_Source\PSoC5/SPIM.c **** void SPIM_PutArray(const uint8 buffer[], uint8 byteCount)
 963:.\Generated_Source\PSoC5/SPIM.c ****                                                                           
 964:.\Generated_Source\PSoC5/SPIM.c **** {
 943              		.loc 1 964 0
 944              		.cfi_startproc
 945              		@ args = 0, pretend = 0, frame = 0
 946              		@ frame_needed = 0, uses_anonymous_args = 0
 947              	.LVL30:
 948 0000 38B5     		push	{r3, r4, r5, lr}
 949              		.cfi_def_cfa_offset 16
 950              		.cfi_offset 3, -16
 951              		.cfi_offset 4, -12
 952              		.cfi_offset 5, -8
 953              		.cfi_offset 14, -4
 954              		.loc 1 964 0
 955 0002 0C46     		mov	r4, r1
 956 0004 451E     		subs	r5, r0, #1
 957              	.LVL31:
 958              	.L78:
 965:.\Generated_Source\PSoC5/SPIM.c ****     uint8 bufIndex;
 966:.\Generated_Source\PSoC5/SPIM.c **** 
 967:.\Generated_Source\PSoC5/SPIM.c ****     bufIndex = 0u;
 968:.\Generated_Source\PSoC5/SPIM.c **** 
 969:.\Generated_Source\PSoC5/SPIM.c ****     while(byteCount > 0u)
 959              		.loc 1 969 0
 960 0006 34B1     		cbz	r4, .L80
 970:.\Generated_Source\PSoC5/SPIM.c ****     {
 971:.\Generated_Source\PSoC5/SPIM.c ****         SPIM_WriteTxData(buffer[bufIndex]);
 961              		.loc 1 971 0
 962 0008 15F8010F 		ldrb	r0, [r5, #1]!	@ zero_extendqisi2
 963              	.LVL32:
 972:.\Generated_Source\PSoC5/SPIM.c ****         bufIndex++;
 973:.\Generated_Source\PSoC5/SPIM.c ****         byteCount--;
 964              		.loc 1 973 0
 965 000c 013C     		subs	r4, r4, #1
 966              	.LVL33:
 971:.\Generated_Source\PSoC5/SPIM.c ****         bufIndex++;
 967              		.loc 1 971 0
 968 000e FFF7FEFF 		bl	SPIM_WriteTxData
 969              	.LVL34:
 970              		.loc 1 973 0
 971 0012 E4B2     		uxtb	r4, r4
 972              	.LVL35:
 973 0014 F7E7     		b	.L78
 974              	.L80:
 974:.\Generated_Source\PSoC5/SPIM.c ****     }
 975:.\Generated_Source\PSoC5/SPIM.c **** }
 975              		.loc 1 975 0
 976 0016 38BD     		pop	{r3, r4, r5, pc}
ARM GAS  C:\Users\jthem\AppData\Local\Temp\ccojL8Uh.s 			page 36


 977              		.cfi_endproc
 978              	.LFE18:
 979              		.size	SPIM_PutArray, .-SPIM_PutArray
 980              		.section	.text.SPIM_ClearFIFO,"ax",%progbits
 981              		.align	1
 982              		.global	SPIM_ClearFIFO
 983              		.thumb
 984              		.thumb_func
 985              		.type	SPIM_ClearFIFO, %function
 986              	SPIM_ClearFIFO:
 987              	.LFB19:
 976:.\Generated_Source\PSoC5/SPIM.c **** 
 977:.\Generated_Source\PSoC5/SPIM.c **** 
 978:.\Generated_Source\PSoC5/SPIM.c **** /*******************************************************************************
 979:.\Generated_Source\PSoC5/SPIM.c **** * Function Name: SPIM_ClearFIFO
 980:.\Generated_Source\PSoC5/SPIM.c **** ********************************************************************************
 981:.\Generated_Source\PSoC5/SPIM.c **** *
 982:.\Generated_Source\PSoC5/SPIM.c **** * Summary:
 983:.\Generated_Source\PSoC5/SPIM.c **** *  Clear the RX and TX FIFO's of all data for a fresh start.
 984:.\Generated_Source\PSoC5/SPIM.c **** *
 985:.\Generated_Source\PSoC5/SPIM.c **** * Parameters:
 986:.\Generated_Source\PSoC5/SPIM.c **** *  None.
 987:.\Generated_Source\PSoC5/SPIM.c **** *
 988:.\Generated_Source\PSoC5/SPIM.c **** * Return:
 989:.\Generated_Source\PSoC5/SPIM.c **** *  None.
 990:.\Generated_Source\PSoC5/SPIM.c **** *
 991:.\Generated_Source\PSoC5/SPIM.c **** * Side Effects:
 992:.\Generated_Source\PSoC5/SPIM.c **** *  Clear status register of the component.
 993:.\Generated_Source\PSoC5/SPIM.c **** *
 994:.\Generated_Source\PSoC5/SPIM.c **** *******************************************************************************/
 995:.\Generated_Source\PSoC5/SPIM.c **** void SPIM_ClearFIFO(void) 
 996:.\Generated_Source\PSoC5/SPIM.c **** {
 988              		.loc 1 996 0
 989              		.cfi_startproc
 990              		@ args = 0, pretend = 0, frame = 0
 991              		@ frame_needed = 0, uses_anonymous_args = 0
 992 0000 08B5     		push	{r3, lr}
 993              		.cfi_def_cfa_offset 8
 994              		.cfi_offset 3, -8
 995              		.cfi_offset 14, -4
 996              	.L82:
 997:.\Generated_Source\PSoC5/SPIM.c ****     uint8 enableInterrupts;
 998:.\Generated_Source\PSoC5/SPIM.c **** 
 999:.\Generated_Source\PSoC5/SPIM.c ****     /* Clear Hardware RX FIFO */
1000:.\Generated_Source\PSoC5/SPIM.c ****     while(0u !=(SPIM_RX_STATUS_REG & SPIM_STS_RX_FIFO_NOT_EMPTY))
 997              		.loc 1 1000 0
 998 0002 0B4B     		ldr	r3, .L85
 999 0004 1B78     		ldrb	r3, [r3]	@ zero_extendqisi2
 1000 0006 9B06     		lsls	r3, r3, #26
 1001 0008 02D5     		bpl	.L84
1001:.\Generated_Source\PSoC5/SPIM.c ****     {
1002:.\Generated_Source\PSoC5/SPIM.c ****         (void) CY_GET_REG8(SPIM_RXDATA_PTR);
 1002              		.loc 1 1002 0
 1003 000a 0A4B     		ldr	r3, .L85+4
 1004 000c 1B78     		ldrb	r3, [r3]	@ zero_extendqisi2
 1005 000e F8E7     		b	.L82
 1006              	.L84:
ARM GAS  C:\Users\jthem\AppData\Local\Temp\ccojL8Uh.s 			page 37


1003:.\Generated_Source\PSoC5/SPIM.c ****     }
1004:.\Generated_Source\PSoC5/SPIM.c **** 
1005:.\Generated_Source\PSoC5/SPIM.c ****     enableInterrupts = CyEnterCriticalSection();
 1007              		.loc 1 1005 0
 1008 0010 FFF7FEFF 		bl	CyEnterCriticalSection
 1009              	.LVL36:
1006:.\Generated_Source\PSoC5/SPIM.c ****     /* Clear TX FIFO */
1007:.\Generated_Source\PSoC5/SPIM.c ****     SPIM_AUX_CONTROL_DP0_REG |= ((uint8)  SPIM_TX_FIFO_CLR);
 1010              		.loc 1 1007 0
 1011 0014 084B     		ldr	r3, .L85+8
 1012 0016 1A78     		ldrb	r2, [r3]	@ zero_extendqisi2
 1013 0018 42F00102 		orr	r2, r2, #1
 1014 001c 1A70     		strb	r2, [r3]
1008:.\Generated_Source\PSoC5/SPIM.c ****     SPIM_AUX_CONTROL_DP0_REG &= ((uint8) ~SPIM_TX_FIFO_CLR);
 1015              		.loc 1 1008 0
 1016 001e 1A78     		ldrb	r2, [r3]	@ zero_extendqisi2
 1017 0020 02F0FE02 		and	r2, r2, #254
 1018 0024 1A70     		strb	r2, [r3]
1009:.\Generated_Source\PSoC5/SPIM.c **** 
1010:.\Generated_Source\PSoC5/SPIM.c ****     #if(SPIM_USE_SECOND_DATAPATH)
1011:.\Generated_Source\PSoC5/SPIM.c ****         /* Clear TX FIFO for 2nd Datapath */
1012:.\Generated_Source\PSoC5/SPIM.c ****         SPIM_AUX_CONTROL_DP1_REG |= ((uint8)  SPIM_TX_FIFO_CLR);
1013:.\Generated_Source\PSoC5/SPIM.c ****         SPIM_AUX_CONTROL_DP1_REG &= ((uint8) ~SPIM_TX_FIFO_CLR);
1014:.\Generated_Source\PSoC5/SPIM.c ****     #endif /* (SPIM_USE_SECOND_DATAPATH) */
1015:.\Generated_Source\PSoC5/SPIM.c ****     CyExitCriticalSection(enableInterrupts);
1016:.\Generated_Source\PSoC5/SPIM.c **** }
 1019              		.loc 1 1016 0
 1020 0026 BDE80840 		pop	{r3, lr}
 1021              		.cfi_restore 14
 1022              		.cfi_restore 3
 1023              		.cfi_def_cfa_offset 0
1015:.\Generated_Source\PSoC5/SPIM.c **** }
 1024              		.loc 1 1015 0
 1025 002a FFF7FEBF 		b	CyExitCriticalSection
 1026              	.LVL37:
 1027              	.L86:
 1028 002e 00BF     		.align	2
 1029              	.L85:
 1030 0030 65650040 		.word	1073767781
 1031 0034 56650040 		.word	1073767766
 1032 0038 96650040 		.word	1073767830
 1033              		.cfi_endproc
 1034              	.LFE19:
 1035              		.size	SPIM_ClearFIFO, .-SPIM_ClearFIFO
 1036              		.section	.text.SPIM_Init,"ax",%progbits
 1037              		.align	1
 1038              		.global	SPIM_Init
 1039              		.thumb
 1040              		.thumb_func
 1041              		.type	SPIM_Init, %function
 1042              	SPIM_Init:
 1043              	.LFB0:
  64:.\Generated_Source\PSoC5/SPIM.c ****     /* Initialize the Bit counter */
 1044              		.loc 1 64 0
 1045              		.cfi_startproc
 1046              		@ args = 0, pretend = 0, frame = 0
 1047              		@ frame_needed = 0, uses_anonymous_args = 0
ARM GAS  C:\Users\jthem\AppData\Local\Temp\ccojL8Uh.s 			page 38


  66:.\Generated_Source\PSoC5/SPIM.c **** 
 1048              		.loc 1 66 0
 1049 0000 184B     		ldr	r3, .L88
  64:.\Generated_Source\PSoC5/SPIM.c ****     /* Initialize the Bit counter */
 1050              		.loc 1 64 0
 1051 0002 10B5     		push	{r4, lr}
 1052              		.cfi_def_cfa_offset 8
 1053              		.cfi_offset 4, -8
 1054              		.cfi_offset 14, -4
  66:.\Generated_Source\PSoC5/SPIM.c **** 
 1055              		.loc 1 66 0
 1056 0004 0F22     		movs	r2, #15
  70:.\Generated_Source\PSoC5/SPIM.c ****         CyIntSetPriority     (SPIM_TX_ISR_NUMBER,  SPIM_TX_ISR_PRIORITY);
 1057              		.loc 1 70 0
 1058 0006 184C     		ldr	r4, .L88+4
  66:.\Generated_Source\PSoC5/SPIM.c **** 
 1059              		.loc 1 66 0
 1060 0008 1A70     		strb	r2, [r3]
  70:.\Generated_Source\PSoC5/SPIM.c ****         CyIntSetPriority     (SPIM_TX_ISR_NUMBER,  SPIM_TX_ISR_PRIORITY);
 1061              		.loc 1 70 0
 1062 000a 0223     		movs	r3, #2
 1063 000c 2360     		str	r3, [r4]
  71:.\Generated_Source\PSoC5/SPIM.c ****         (void) CyIntSetVector(SPIM_TX_ISR_NUMBER, &SPIM_TX_ISR);
 1064              		.loc 1 71 0
 1065 000e 0120     		movs	r0, #1
 1066 0010 0721     		movs	r1, #7
 1067 0012 FFF7FEFF 		bl	CyIntSetPriority
 1068              	.LVL38:
  72:.\Generated_Source\PSoC5/SPIM.c ****     #endif /* (0u != SPIM_INTERNAL_TX_INT_ENABLED) */
 1069              		.loc 1 72 0
 1070 0016 1549     		ldr	r1, .L88+8
 1071 0018 0120     		movs	r0, #1
 1072 001a FFF7FEFF 		bl	CyIntSetVector
 1073              	.LVL39:
  77:.\Generated_Source\PSoC5/SPIM.c ****         CyIntSetPriority     (SPIM_RX_ISR_NUMBER,  SPIM_RX_ISR_PRIORITY);
 1074              		.loc 1 77 0
 1075 001e 0123     		movs	r3, #1
 1076 0020 2360     		str	r3, [r4]
  78:.\Generated_Source\PSoC5/SPIM.c ****         (void) CyIntSetVector(SPIM_RX_ISR_NUMBER, &SPIM_RX_ISR);
 1077              		.loc 1 78 0
 1078 0022 0020     		movs	r0, #0
 1079 0024 0721     		movs	r1, #7
 1080 0026 FFF7FEFF 		bl	CyIntSetPriority
 1081              	.LVL40:
  79:.\Generated_Source\PSoC5/SPIM.c ****     #endif /* (0u != SPIM_INTERNAL_RX_INT_ENABLED) */
 1082              		.loc 1 79 0
 1083 002a 1149     		ldr	r1, .L88+12
 1084 002c 0020     		movs	r0, #0
 1085 002e FFF7FEFF 		bl	CyIntSetVector
 1086              	.LVL41:
  83:.\Generated_Source\PSoC5/SPIM.c **** 
 1087              		.loc 1 83 0
 1088 0032 FFF7FEFF 		bl	SPIM_ClearFIFO
 1089              	.LVL42:
  86:.\Generated_Source\PSoC5/SPIM.c ****         SPIM_rxBufferRead  = 0u;
 1090              		.loc 1 86 0
 1091 0036 0F4B     		ldr	r3, .L88+16
ARM GAS  C:\Users\jthem\AppData\Local\Temp\ccojL8Uh.s 			page 39


 1092 0038 0024     		movs	r4, #0
 1093 003a 1C70     		strb	r4, [r3]
  87:.\Generated_Source\PSoC5/SPIM.c ****         SPIM_rxBufferWrite = 0u;
 1094              		.loc 1 87 0
 1095 003c 0E4B     		ldr	r3, .L88+20
 1096 003e 1C70     		strb	r4, [r3]
  88:.\Generated_Source\PSoC5/SPIM.c ****     #endif /* (SPIM_RX_SOFTWARE_BUF_ENABLED) */
 1097              		.loc 1 88 0
 1098 0040 0E4B     		ldr	r3, .L88+24
 1099 0042 1C70     		strb	r4, [r3]
  92:.\Generated_Source\PSoC5/SPIM.c ****         SPIM_txBufferRead  = 0u;
 1100              		.loc 1 92 0
 1101 0044 0E4B     		ldr	r3, .L88+28
 1102 0046 1C70     		strb	r4, [r3]
  93:.\Generated_Source\PSoC5/SPIM.c ****         SPIM_txBufferWrite = 0u;
 1103              		.loc 1 93 0
 1104 0048 0E4B     		ldr	r3, .L88+32
 1105 004a 1C70     		strb	r4, [r3]
  94:.\Generated_Source\PSoC5/SPIM.c ****     #endif /* (SPIM_TX_SOFTWARE_BUF_ENABLED) */
 1106              		.loc 1 94 0
 1107 004c 0E4B     		ldr	r3, .L88+36
 1108 004e 1C70     		strb	r4, [r3]
  97:.\Generated_Source\PSoC5/SPIM.c ****     (void) SPIM_ReadRxStatus(); /* Clear Rx status and swStatusRx */
 1109              		.loc 1 97 0
 1110 0050 FFF7FEFF 		bl	SPIM_ReadTxStatus
 1111              	.LVL43:
  98:.\Generated_Source\PSoC5/SPIM.c **** 
 1112              		.loc 1 98 0
 1113 0054 FFF7FEFF 		bl	SPIM_ReadRxStatus
 1114              	.LVL44:
 101:.\Generated_Source\PSoC5/SPIM.c ****     SPIM_RX_STATUS_MASK_REG = SPIM_RX_INIT_INTERRUPTS_MASK;
 1115              		.loc 1 101 0
 1116 0058 0C4B     		ldr	r3, .L88+40
 102:.\Generated_Source\PSoC5/SPIM.c **** }
 1117              		.loc 1 102 0
 1118 005a 2022     		movs	r2, #32
 101:.\Generated_Source\PSoC5/SPIM.c ****     SPIM_RX_STATUS_MASK_REG = SPIM_RX_INIT_INTERRUPTS_MASK;
 1119              		.loc 1 101 0
 1120 005c 1C70     		strb	r4, [r3]
 102:.\Generated_Source\PSoC5/SPIM.c **** }
 1121              		.loc 1 102 0
 1122 005e 03F8022C 		strb	r2, [r3, #-2]
 1123 0062 10BD     		pop	{r4, pc}
 1124              	.L89:
 1125              		.align	2
 1126              	.L88:
 1127 0064 86650040 		.word	1073767814
 1128 0068 80E100E0 		.word	-536813184
 1129 006c 00000000 		.word	SPIM_TX_ISR
 1130 0070 00000000 		.word	SPIM_RX_ISR
 1131 0074 00000000 		.word	SPIM_rxBufferFull
 1132 0078 00000000 		.word	SPIM_rxBufferRead
 1133 007c 00000000 		.word	SPIM_rxBufferWrite
 1134 0080 00000000 		.word	SPIM_txBufferFull
 1135 0084 00000000 		.word	SPIM_txBufferRead
 1136 0088 00000000 		.word	SPIM_txBufferWrite
 1137 008c 87650040 		.word	1073767815
ARM GAS  C:\Users\jthem\AppData\Local\Temp\ccojL8Uh.s 			page 40


 1138              		.cfi_endproc
 1139              	.LFE0:
 1140              		.size	SPIM_Init, .-SPIM_Init
 1141              		.section	.text.SPIM_Start,"ax",%progbits
 1142              		.align	1
 1143              		.global	SPIM_Start
 1144              		.thumb
 1145              		.thumb_func
 1146              		.type	SPIM_Start, %function
 1147              	SPIM_Start:
 1148              	.LFB2:
 164:.\Generated_Source\PSoC5/SPIM.c ****     if(0u == SPIM_initVar)
 1149              		.loc 1 164 0
 1150              		.cfi_startproc
 1151              		@ args = 0, pretend = 0, frame = 0
 1152              		@ frame_needed = 0, uses_anonymous_args = 0
 1153 0000 10B5     		push	{r4, lr}
 1154              		.cfi_def_cfa_offset 8
 1155              		.cfi_offset 4, -8
 1156              		.cfi_offset 14, -4
 165:.\Generated_Source\PSoC5/SPIM.c ****     {
 1157              		.loc 1 165 0
 1158 0002 054C     		ldr	r4, .L92
 1159 0004 2378     		ldrb	r3, [r4]	@ zero_extendqisi2
 1160 0006 1BB9     		cbnz	r3, .L91
 167:.\Generated_Source\PSoC5/SPIM.c ****         SPIM_initVar = 1u;
 1161              		.loc 1 167 0
 1162 0008 FFF7FEFF 		bl	SPIM_Init
 1163              	.LVL45:
 168:.\Generated_Source\PSoC5/SPIM.c ****     }
 1164              		.loc 1 168 0
 1165 000c 0123     		movs	r3, #1
 1166 000e 2370     		strb	r3, [r4]
 1167              	.L91:
 172:.\Generated_Source\PSoC5/SPIM.c **** 
 1168              		.loc 1 172 0
 1169 0010 BDE81040 		pop	{r4, lr}
 1170              		.cfi_restore 14
 1171              		.cfi_restore 4
 1172              		.cfi_def_cfa_offset 0
 171:.\Generated_Source\PSoC5/SPIM.c **** }
 1173              		.loc 1 171 0
 1174 0014 FFF7FEBF 		b	SPIM_Enable
 1175              	.LVL46:
 1176              	.L93:
 1177              		.align	2
 1178              	.L92:
 1179 0018 00000000 		.word	.LANCHOR0
 1180              		.cfi_endproc
 1181              	.LFE2:
 1182              		.size	SPIM_Start, .-SPIM_Start
 1183              		.section	.text.SPIM_EnableInt,"ax",%progbits
 1184              		.align	1
 1185              		.global	SPIM_EnableInt
 1186              		.thumb
 1187              		.thumb_func
 1188              		.type	SPIM_EnableInt, %function
ARM GAS  C:\Users\jthem\AppData\Local\Temp\ccojL8Uh.s 			page 41


 1189              	SPIM_EnableInt:
 1190              	.LFB20:
1017:.\Generated_Source\PSoC5/SPIM.c **** 
1018:.\Generated_Source\PSoC5/SPIM.c **** 
1019:.\Generated_Source\PSoC5/SPIM.c **** /* Following functions are for version Compatibility, they are obsolete.
1020:.\Generated_Source\PSoC5/SPIM.c **** *  Please do not use it in new projects.
1021:.\Generated_Source\PSoC5/SPIM.c **** */
1022:.\Generated_Source\PSoC5/SPIM.c **** 
1023:.\Generated_Source\PSoC5/SPIM.c **** 
1024:.\Generated_Source\PSoC5/SPIM.c **** /*******************************************************************************
1025:.\Generated_Source\PSoC5/SPIM.c **** * Function Name: SPIM_EnableInt
1026:.\Generated_Source\PSoC5/SPIM.c **** ********************************************************************************
1027:.\Generated_Source\PSoC5/SPIM.c **** *
1028:.\Generated_Source\PSoC5/SPIM.c **** * Summary:
1029:.\Generated_Source\PSoC5/SPIM.c **** *  Enable internal interrupt generation.
1030:.\Generated_Source\PSoC5/SPIM.c **** *
1031:.\Generated_Source\PSoC5/SPIM.c **** * Parameters:
1032:.\Generated_Source\PSoC5/SPIM.c **** *  None.
1033:.\Generated_Source\PSoC5/SPIM.c **** *
1034:.\Generated_Source\PSoC5/SPIM.c **** * Return:
1035:.\Generated_Source\PSoC5/SPIM.c **** *  None.
1036:.\Generated_Source\PSoC5/SPIM.c **** *
1037:.\Generated_Source\PSoC5/SPIM.c **** * Theory:
1038:.\Generated_Source\PSoC5/SPIM.c **** *  Enable the internal interrupt output -or- the interrupt component itself.
1039:.\Generated_Source\PSoC5/SPIM.c **** *
1040:.\Generated_Source\PSoC5/SPIM.c **** *******************************************************************************/
1041:.\Generated_Source\PSoC5/SPIM.c **** void SPIM_EnableInt(void) 
1042:.\Generated_Source\PSoC5/SPIM.c **** {
 1191              		.loc 1 1042 0
 1192              		.cfi_startproc
 1193              		@ args = 0, pretend = 0, frame = 0
 1194              		@ frame_needed = 0, uses_anonymous_args = 0
 1195              		@ link register save eliminated.
 1196              	.LBB96:
 1197              	.LBB97:
 255:.\Generated_Source\PSoC5/SPIM.c ****     #endif /* (0u != SPIM_INTERNAL_RX_INT_ENABLED) */
 1198              		.loc 1 255 0
 1199 0000 024B     		ldr	r3, .L95
 1200 0002 0122     		movs	r2, #1
 1201 0004 1A60     		str	r2, [r3]
 1202              	.LBE97:
 1203              	.LBE96:
 1204              	.LBB98:
 1205              	.LBB99:
 230:.\Generated_Source\PSoC5/SPIM.c ****     #endif /* (0u != SPIM_INTERNAL_TX_INT_ENABLED) */
 1206              		.loc 1 230 0
 1207 0006 0222     		movs	r2, #2
 1208 0008 1A60     		str	r2, [r3]
 1209 000a 7047     		bx	lr
 1210              	.L96:
 1211              		.align	2
 1212              	.L95:
 1213 000c 00E100E0 		.word	-536813312
 1214              	.LBE99:
 1215              	.LBE98:
 1216              		.cfi_endproc
 1217              	.LFE20:
ARM GAS  C:\Users\jthem\AppData\Local\Temp\ccojL8Uh.s 			page 42


 1218              		.size	SPIM_EnableInt, .-SPIM_EnableInt
 1219              		.section	.text.SPIM_DisableInt,"ax",%progbits
 1220              		.align	1
 1221              		.global	SPIM_DisableInt
 1222              		.thumb
 1223              		.thumb_func
 1224              		.type	SPIM_DisableInt, %function
 1225              	SPIM_DisableInt:
 1226              	.LFB21:
1043:.\Generated_Source\PSoC5/SPIM.c ****     SPIM_EnableRxInt();
1044:.\Generated_Source\PSoC5/SPIM.c ****     SPIM_EnableTxInt();
1045:.\Generated_Source\PSoC5/SPIM.c **** }
1046:.\Generated_Source\PSoC5/SPIM.c **** 
1047:.\Generated_Source\PSoC5/SPIM.c **** 
1048:.\Generated_Source\PSoC5/SPIM.c **** /*******************************************************************************
1049:.\Generated_Source\PSoC5/SPIM.c **** * Function Name: SPIM_DisableInt
1050:.\Generated_Source\PSoC5/SPIM.c **** ********************************************************************************
1051:.\Generated_Source\PSoC5/SPIM.c **** *
1052:.\Generated_Source\PSoC5/SPIM.c **** * Summary:
1053:.\Generated_Source\PSoC5/SPIM.c **** *  Disable internal interrupt generation.
1054:.\Generated_Source\PSoC5/SPIM.c **** *
1055:.\Generated_Source\PSoC5/SPIM.c **** * Parameters:
1056:.\Generated_Source\PSoC5/SPIM.c **** *  None.
1057:.\Generated_Source\PSoC5/SPIM.c **** *
1058:.\Generated_Source\PSoC5/SPIM.c **** * Return:
1059:.\Generated_Source\PSoC5/SPIM.c **** *  None.
1060:.\Generated_Source\PSoC5/SPIM.c **** *
1061:.\Generated_Source\PSoC5/SPIM.c **** * Theory:
1062:.\Generated_Source\PSoC5/SPIM.c **** *  Disable the internal interrupt output -or- the interrupt component itself.
1063:.\Generated_Source\PSoC5/SPIM.c **** *
1064:.\Generated_Source\PSoC5/SPIM.c **** *******************************************************************************/
1065:.\Generated_Source\PSoC5/SPIM.c **** void SPIM_DisableInt(void) 
1066:.\Generated_Source\PSoC5/SPIM.c **** {
 1227              		.loc 1 1066 0
 1228              		.cfi_startproc
 1229              		@ args = 0, pretend = 0, frame = 0
 1230              		@ frame_needed = 0, uses_anonymous_args = 0
 1231              		@ link register save eliminated.
 1232              	.LBB100:
 1233              	.LBB101:
 280:.\Generated_Source\PSoC5/SPIM.c ****     #endif /* (0u != SPIM_INTERNAL_TX_INT_ENABLED) */
 1234              		.loc 1 280 0
 1235 0000 024B     		ldr	r3, .L98
 1236 0002 0222     		movs	r2, #2
 1237 0004 1A60     		str	r2, [r3]
 1238              	.LBE101:
 1239              	.LBE100:
 1240              	.LBB102:
 1241              	.LBB103:
 305:.\Generated_Source\PSoC5/SPIM.c ****     #endif /* (0u != SPIM_INTERNAL_RX_INT_ENABLED) */
 1242              		.loc 1 305 0
 1243 0006 0122     		movs	r2, #1
 1244 0008 1A60     		str	r2, [r3]
 1245 000a 7047     		bx	lr
 1246              	.L99:
 1247              		.align	2
 1248              	.L98:
ARM GAS  C:\Users\jthem\AppData\Local\Temp\ccojL8Uh.s 			page 43


 1249 000c 80E100E0 		.word	-536813184
 1250              	.LBE103:
 1251              	.LBE102:
 1252              		.cfi_endproc
 1253              	.LFE21:
 1254              		.size	SPIM_DisableInt, .-SPIM_DisableInt
 1255              		.section	.text.SPIM_SetInterruptMode,"ax",%progbits
 1256              		.align	1
 1257              		.global	SPIM_SetInterruptMode
 1258              		.thumb
 1259              		.thumb_func
 1260              		.type	SPIM_SetInterruptMode, %function
 1261              	SPIM_SetInterruptMode:
 1262              	.LFB22:
1067:.\Generated_Source\PSoC5/SPIM.c ****     SPIM_DisableTxInt();
1068:.\Generated_Source\PSoC5/SPIM.c ****     SPIM_DisableRxInt();
1069:.\Generated_Source\PSoC5/SPIM.c **** }
1070:.\Generated_Source\PSoC5/SPIM.c **** 
1071:.\Generated_Source\PSoC5/SPIM.c **** 
1072:.\Generated_Source\PSoC5/SPIM.c **** /*******************************************************************************
1073:.\Generated_Source\PSoC5/SPIM.c **** * Function Name: SPIM_SetInterruptMode
1074:.\Generated_Source\PSoC5/SPIM.c **** ********************************************************************************
1075:.\Generated_Source\PSoC5/SPIM.c **** *
1076:.\Generated_Source\PSoC5/SPIM.c **** * Summary:
1077:.\Generated_Source\PSoC5/SPIM.c **** *  Configure which status bits trigger an interrupt event.
1078:.\Generated_Source\PSoC5/SPIM.c **** *
1079:.\Generated_Source\PSoC5/SPIM.c **** * Parameters:
1080:.\Generated_Source\PSoC5/SPIM.c **** *  intSrc: An or'd combination of the desired status bit masks (defined in the
1081:.\Generated_Source\PSoC5/SPIM.c **** *  header file).
1082:.\Generated_Source\PSoC5/SPIM.c **** *
1083:.\Generated_Source\PSoC5/SPIM.c **** * Return:
1084:.\Generated_Source\PSoC5/SPIM.c **** *  None.
1085:.\Generated_Source\PSoC5/SPIM.c **** *
1086:.\Generated_Source\PSoC5/SPIM.c **** * Theory:
1087:.\Generated_Source\PSoC5/SPIM.c **** *  Enables the output of specific status bits to the interrupt controller.
1088:.\Generated_Source\PSoC5/SPIM.c **** *
1089:.\Generated_Source\PSoC5/SPIM.c **** *******************************************************************************/
1090:.\Generated_Source\PSoC5/SPIM.c **** void SPIM_SetInterruptMode(uint8 intSrc) 
1091:.\Generated_Source\PSoC5/SPIM.c **** {
 1263              		.loc 1 1091 0
 1264              		.cfi_startproc
 1265              		@ args = 0, pretend = 0, frame = 0
 1266              		@ frame_needed = 0, uses_anonymous_args = 0
 1267              		@ link register save eliminated.
 1268              	.LVL47:
1092:.\Generated_Source\PSoC5/SPIM.c ****     SPIM_TX_STATUS_MASK_REG  = (intSrc & ((uint8) ~SPIM_STS_SPI_IDLE));
 1269              		.loc 1 1092 0
 1270 0000 034B     		ldr	r3, .L101
 1271 0002 00F0EF02 		and	r2, r0, #239
 1272 0006 1A70     		strb	r2, [r3]
1093:.\Generated_Source\PSoC5/SPIM.c ****     SPIM_RX_STATUS_MASK_REG  =  intSrc;
 1273              		.loc 1 1093 0
 1274 0008 03F8020C 		strb	r0, [r3, #-2]
 1275 000c 7047     		bx	lr
 1276              	.L102:
 1277 000e 00BF     		.align	2
 1278              	.L101:
ARM GAS  C:\Users\jthem\AppData\Local\Temp\ccojL8Uh.s 			page 44


 1279 0010 87650040 		.word	1073767815
 1280              		.cfi_endproc
 1281              	.LFE22:
 1282              		.size	SPIM_SetInterruptMode, .-SPIM_SetInterruptMode
 1283              		.section	.text.SPIM_ReadStatus,"ax",%progbits
 1284              		.align	1
 1285              		.global	SPIM_ReadStatus
 1286              		.thumb
 1287              		.thumb_func
 1288              		.type	SPIM_ReadStatus, %function
 1289              	SPIM_ReadStatus:
 1290              	.LFB23:
1094:.\Generated_Source\PSoC5/SPIM.c **** }
1095:.\Generated_Source\PSoC5/SPIM.c **** 
1096:.\Generated_Source\PSoC5/SPIM.c **** 
1097:.\Generated_Source\PSoC5/SPIM.c **** /*******************************************************************************
1098:.\Generated_Source\PSoC5/SPIM.c **** * Function Name: SPIM_ReadStatus
1099:.\Generated_Source\PSoC5/SPIM.c **** ********************************************************************************
1100:.\Generated_Source\PSoC5/SPIM.c **** *
1101:.\Generated_Source\PSoC5/SPIM.c **** * Summary:
1102:.\Generated_Source\PSoC5/SPIM.c **** *  Read the status register for the component.
1103:.\Generated_Source\PSoC5/SPIM.c **** *
1104:.\Generated_Source\PSoC5/SPIM.c **** * Parameters:
1105:.\Generated_Source\PSoC5/SPIM.c **** *  None.
1106:.\Generated_Source\PSoC5/SPIM.c **** *
1107:.\Generated_Source\PSoC5/SPIM.c **** * Return:
1108:.\Generated_Source\PSoC5/SPIM.c **** *  Contents of the status register.
1109:.\Generated_Source\PSoC5/SPIM.c **** *
1110:.\Generated_Source\PSoC5/SPIM.c **** * Global variables:
1111:.\Generated_Source\PSoC5/SPIM.c **** *  SPIM_swStatus - used to store in software status register,
1112:.\Generated_Source\PSoC5/SPIM.c **** *  modified every function call - resets to zero.
1113:.\Generated_Source\PSoC5/SPIM.c **** *
1114:.\Generated_Source\PSoC5/SPIM.c **** * Theory:
1115:.\Generated_Source\PSoC5/SPIM.c **** *  Allows the user and the API to read the status register for error detection
1116:.\Generated_Source\PSoC5/SPIM.c **** *  and flow control.
1117:.\Generated_Source\PSoC5/SPIM.c **** *
1118:.\Generated_Source\PSoC5/SPIM.c **** * Side Effects:
1119:.\Generated_Source\PSoC5/SPIM.c **** *  Clear status register of the component.
1120:.\Generated_Source\PSoC5/SPIM.c **** *
1121:.\Generated_Source\PSoC5/SPIM.c **** * Reentrant:
1122:.\Generated_Source\PSoC5/SPIM.c **** *  No.
1123:.\Generated_Source\PSoC5/SPIM.c **** *
1124:.\Generated_Source\PSoC5/SPIM.c **** *******************************************************************************/
1125:.\Generated_Source\PSoC5/SPIM.c **** uint8 SPIM_ReadStatus(void) 
1126:.\Generated_Source\PSoC5/SPIM.c **** {
 1291              		.loc 1 1126 0
 1292              		.cfi_startproc
 1293              		@ args = 0, pretend = 0, frame = 0
 1294              		@ frame_needed = 0, uses_anonymous_args = 0
 1295 0000 70B5     		push	{r4, r5, r6, lr}
 1296              		.cfi_def_cfa_offset 16
 1297              		.cfi_offset 4, -16
 1298              		.cfi_offset 5, -12
 1299              		.cfi_offset 6, -8
 1300              		.cfi_offset 14, -4
1127:.\Generated_Source\PSoC5/SPIM.c ****     uint8 tmpStatus;
1128:.\Generated_Source\PSoC5/SPIM.c **** 
ARM GAS  C:\Users\jthem\AppData\Local\Temp\ccojL8Uh.s 			page 45


1129:.\Generated_Source\PSoC5/SPIM.c ****     #if(SPIM_TX_SOFTWARE_BUF_ENABLED || SPIM_RX_SOFTWARE_BUF_ENABLED)
1130:.\Generated_Source\PSoC5/SPIM.c **** 
1131:.\Generated_Source\PSoC5/SPIM.c ****         SPIM_DisableInt();
 1301              		.loc 1 1131 0
 1302 0002 FFF7FEFF 		bl	SPIM_DisableInt
 1303              	.LVL48:
1132:.\Generated_Source\PSoC5/SPIM.c **** 
1133:.\Generated_Source\PSoC5/SPIM.c ****         tmpStatus  = SPIM_GET_STATUS_RX(SPIM_swStatusRx);
 1304              		.loc 1 1133 0
 1305 0006 0B4D     		ldr	r5, .L104
 1306 0008 0B4B     		ldr	r3, .L104+4
1134:.\Generated_Source\PSoC5/SPIM.c ****         tmpStatus |= SPIM_GET_STATUS_TX(SPIM_swStatusTx);
 1307              		.loc 1 1134 0
 1308 000a 0C4E     		ldr	r6, .L104+8
1133:.\Generated_Source\PSoC5/SPIM.c ****         tmpStatus |= SPIM_GET_STATUS_TX(SPIM_swStatusTx);
 1309              		.loc 1 1133 0
 1310 000c 1978     		ldrb	r1, [r3]	@ zero_extendqisi2
 1311 000e 2A78     		ldrb	r2, [r5]	@ zero_extendqisi2
 1312              	.LVL49:
 1313              		.loc 1 1134 0
 1314 0010 9C78     		ldrb	r4, [r3, #2]	@ zero_extendqisi2
 1315 0012 3378     		ldrb	r3, [r6]	@ zero_extendqisi2
 1316 0014 0C43     		orrs	r4, r4, r1
1133:.\Generated_Source\PSoC5/SPIM.c ****         tmpStatus |= SPIM_GET_STATUS_TX(SPIM_swStatusTx);
 1317              		.loc 1 1133 0
 1318 0016 02F04002 		and	r2, r2, #64
 1319              	.LVL50:
 1320 001a 1443     		orrs	r4, r4, r2
 1321              		.loc 1 1134 0
 1322 001c 03F00903 		and	r3, r3, #9
 1323 0020 1C43     		orrs	r4, r4, r3
 1324              	.LVL51:
1135:.\Generated_Source\PSoC5/SPIM.c ****         tmpStatus &= ((uint8) ~SPIM_STS_SPI_IDLE);
1136:.\Generated_Source\PSoC5/SPIM.c **** 
1137:.\Generated_Source\PSoC5/SPIM.c ****         SPIM_swStatusTx = 0u;
 1325              		.loc 1 1137 0
 1326 0022 0023     		movs	r3, #0
 1327 0024 3370     		strb	r3, [r6]
1138:.\Generated_Source\PSoC5/SPIM.c ****         SPIM_swStatusRx = 0u;
 1328              		.loc 1 1138 0
 1329 0026 2B70     		strb	r3, [r5]
1139:.\Generated_Source\PSoC5/SPIM.c **** 
1140:.\Generated_Source\PSoC5/SPIM.c ****         SPIM_EnableInt();
 1330              		.loc 1 1140 0
 1331 0028 FFF7FEFF 		bl	SPIM_EnableInt
 1332              	.LVL52:
1141:.\Generated_Source\PSoC5/SPIM.c **** 
1142:.\Generated_Source\PSoC5/SPIM.c ****     #else
1143:.\Generated_Source\PSoC5/SPIM.c **** 
1144:.\Generated_Source\PSoC5/SPIM.c ****         tmpStatus  = SPIM_RX_STATUS_REG;
1145:.\Generated_Source\PSoC5/SPIM.c ****         tmpStatus |= SPIM_TX_STATUS_REG;
1146:.\Generated_Source\PSoC5/SPIM.c ****         tmpStatus &= ((uint8) ~SPIM_STS_SPI_IDLE);
1147:.\Generated_Source\PSoC5/SPIM.c **** 
1148:.\Generated_Source\PSoC5/SPIM.c ****     #endif /* (SPIM_TX_SOFTWARE_BUF_ENABLED || SPIM_RX_SOFTWARE_BUF_ENABLED) */
1149:.\Generated_Source\PSoC5/SPIM.c **** 
1150:.\Generated_Source\PSoC5/SPIM.c ****     return(tmpStatus);
1151:.\Generated_Source\PSoC5/SPIM.c **** }
ARM GAS  C:\Users\jthem\AppData\Local\Temp\ccojL8Uh.s 			page 46


 1333              		.loc 1 1151 0
 1334 002c 04F0EF00 		and	r0, r4, #239
 1335 0030 70BD     		pop	{r4, r5, r6, pc}
 1336              	.LVL53:
 1337              	.L105:
 1338 0032 00BF     		.align	2
 1339              	.L104:
 1340 0034 00000000 		.word	SPIM_swStatusRx
 1341 0038 65650040 		.word	1073767781
 1342 003c 00000000 		.word	SPIM_swStatusTx
 1343              		.cfi_endproc
 1344              	.LFE23:
 1345              		.size	SPIM_ReadStatus, .-SPIM_ReadStatus
 1346              		.comm	SPIM_swStatusRx,1,1
 1347              		.comm	SPIM_swStatusTx,1,1
 1348              		.global	SPIM_initVar
 1349              		.comm	SPIM_rxBufferWrite,1,1
 1350              		.comm	SPIM_rxBufferRead,1,1
 1351              		.comm	SPIM_rxBufferFull,1,1
 1352              		.comm	SPIM_rxBuffer,8,1
 1353              		.comm	SPIM_txBufferWrite,1,1
 1354              		.comm	SPIM_txBufferRead,1,1
 1355              		.comm	SPIM_txBufferFull,1,1
 1356              		.comm	SPIM_txBuffer,8,1
 1357              		.bss
 1358              		.set	.LANCHOR0,. + 0
 1359              		.type	SPIM_initVar, %object
 1360              		.size	SPIM_initVar, 1
 1361              	SPIM_initVar:
 1362 0000 00       		.space	1
 1363              		.text
 1364              	.Letext0:
 1365              		.file 2 ".\\Generated_Source\\PSoC5\\cytypes.h"
 1366              		.file 3 ".\\Generated_Source\\PSoC5\\CyLib.h"