ARM GAS  C:\Users\jthem\AppData\Local\Temp\ccAl6Vzs.s 			page 1


   1              		.syntax unified
   2              		.cpu cortex-m3
   3              		.fpu softvfp
   4              		.eabi_attribute 20, 1
   5              		.eabi_attribute 21, 1
   6              		.eabi_attribute 23, 3
   7              		.eabi_attribute 24, 1
   8              		.eabi_attribute 25, 1
   9              		.eabi_attribute 26, 1
  10              		.eabi_attribute 30, 6
  11              		.eabi_attribute 34, 1
  12              		.eabi_attribute 18, 4
  13              		.thumb
  14              		.file	"cyfitter_cfg.c"
  15              		.text
  16              	.Ltext0:
  17              		.cfi_sections	.debug_frame
  18              		.section	.text.CYMEMZERO,"ax",%progbits
  19              		.align	2
  20              		.thumb
  21              		.thumb_func
  22              		.type	CYMEMZERO, %function
  23              	CYMEMZERO:
  24              	.LFB0:
  25              		.file 1 ".\\Generated_Source\\PSoC5\\cyfitter_cfg.c"
   1:.\Generated_Source\PSoC5/cyfitter_cfg.c **** /*******************************************************************************
   2:.\Generated_Source\PSoC5/cyfitter_cfg.c **** * File Name: cyfitter_cfg.c
   3:.\Generated_Source\PSoC5/cyfitter_cfg.c **** * 
   4:.\Generated_Source\PSoC5/cyfitter_cfg.c **** * PSoC Creator  3.3 CP2
   5:.\Generated_Source\PSoC5/cyfitter_cfg.c **** *
   6:.\Generated_Source\PSoC5/cyfitter_cfg.c **** * Description:
   7:.\Generated_Source\PSoC5/cyfitter_cfg.c **** * This file contains device initialization code.
   8:.\Generated_Source\PSoC5/cyfitter_cfg.c **** * Except for the user defined sections in CyClockStartupError(), this file should not be modified.
   9:.\Generated_Source\PSoC5/cyfitter_cfg.c **** * This file is automatically generated by PSoC Creator.
  10:.\Generated_Source\PSoC5/cyfitter_cfg.c **** *
  11:.\Generated_Source\PSoC5/cyfitter_cfg.c **** ********************************************************************************
  12:.\Generated_Source\PSoC5/cyfitter_cfg.c **** * Copyright (c) 2007-2015 Cypress Semiconductor.  All rights reserved.
  13:.\Generated_Source\PSoC5/cyfitter_cfg.c **** * You may use this file only in accordance with the license, terms, conditions, 
  14:.\Generated_Source\PSoC5/cyfitter_cfg.c **** * disclaimers, and limitations in the end user license agreement accompanying 
  15:.\Generated_Source\PSoC5/cyfitter_cfg.c **** * the software package with which this file was provided.
  16:.\Generated_Source\PSoC5/cyfitter_cfg.c **** ********************************************************************************/
  17:.\Generated_Source\PSoC5/cyfitter_cfg.c **** 
  18:.\Generated_Source\PSoC5/cyfitter_cfg.c **** #include <string.h>
  19:.\Generated_Source\PSoC5/cyfitter_cfg.c **** #include "cytypes.h"
  20:.\Generated_Source\PSoC5/cyfitter_cfg.c **** #include "cydevice_trm.h"
  21:.\Generated_Source\PSoC5/cyfitter_cfg.c **** #include "cyfitter.h"
  22:.\Generated_Source\PSoC5/cyfitter_cfg.c **** #include "CyLib.h"
  23:.\Generated_Source\PSoC5/cyfitter_cfg.c **** #include "cyfitter_cfg.h"
  24:.\Generated_Source\PSoC5/cyfitter_cfg.c **** 
  25:.\Generated_Source\PSoC5/cyfitter_cfg.c **** #define CY_NEED_CYCLOCKSTARTUPERROR 1
  26:.\Generated_Source\PSoC5/cyfitter_cfg.c **** 
  27:.\Generated_Source\PSoC5/cyfitter_cfg.c **** 
  28:.\Generated_Source\PSoC5/cyfitter_cfg.c **** #if defined(__GNUC__) || defined(__ARMCC_VERSION)
  29:.\Generated_Source\PSoC5/cyfitter_cfg.c ****     #define CYPACKED 
  30:.\Generated_Source\PSoC5/cyfitter_cfg.c ****     #define CYPACKED_ATTR __attribute__ ((packed))
  31:.\Generated_Source\PSoC5/cyfitter_cfg.c ****     #define CYALIGNED __attribute__ ((aligned))
  32:.\Generated_Source\PSoC5/cyfitter_cfg.c ****     #define CY_CFG_UNUSED __attribute__ ((unused))
ARM GAS  C:\Users\jthem\AppData\Local\Temp\ccAl6Vzs.s 			page 2


  33:.\Generated_Source\PSoC5/cyfitter_cfg.c ****     #ifndef CY_CFG_SECTION
  34:.\Generated_Source\PSoC5/cyfitter_cfg.c ****         #define CY_CFG_SECTION __attribute__ ((section(".psocinit")))
  35:.\Generated_Source\PSoC5/cyfitter_cfg.c ****     #endif
  36:.\Generated_Source\PSoC5/cyfitter_cfg.c ****     
  37:.\Generated_Source\PSoC5/cyfitter_cfg.c ****     #if CYDEV_CONFIGURATION_DMA
  38:.\Generated_Source\PSoC5/cyfitter_cfg.c ****         #if (defined(__ARMCC_VERSION) || defined(__GNUC__))
  39:.\Generated_Source\PSoC5/cyfitter_cfg.c ****             #ifndef DMAINITSEC
  40:.\Generated_Source\PSoC5/cyfitter_cfg.c ****                 #define DMAINITSEC __attribute__ ((section(".dma_init")))
  41:.\Generated_Source\PSoC5/cyfitter_cfg.c ****             #endif
  42:.\Generated_Source\PSoC5/cyfitter_cfg.c ****         #elif defined(__ICCARM__)
  43:.\Generated_Source\PSoC5/cyfitter_cfg.c ****             #define DMAINITSEC _Pragma("location=\".dma_init\"")
  44:.\Generated_Source\PSoC5/cyfitter_cfg.c ****         #endif
  45:.\Generated_Source\PSoC5/cyfitter_cfg.c ****     #else
  46:.\Generated_Source\PSoC5/cyfitter_cfg.c ****         #define DMAINITSEC
  47:.\Generated_Source\PSoC5/cyfitter_cfg.c ****     #endif
  48:.\Generated_Source\PSoC5/cyfitter_cfg.c **** 
  49:.\Generated_Source\PSoC5/cyfitter_cfg.c ****     #if defined(__ARMCC_VERSION)
  50:.\Generated_Source\PSoC5/cyfitter_cfg.c ****         #define CY_CFG_MEMORY_BARRIER() __memory_changed()
  51:.\Generated_Source\PSoC5/cyfitter_cfg.c ****     #else
  52:.\Generated_Source\PSoC5/cyfitter_cfg.c ****         #define CY_CFG_MEMORY_BARRIER() __sync_synchronize()
  53:.\Generated_Source\PSoC5/cyfitter_cfg.c ****     #endif
  54:.\Generated_Source\PSoC5/cyfitter_cfg.c ****     
  55:.\Generated_Source\PSoC5/cyfitter_cfg.c **** #elif defined(__ICCARM__)
  56:.\Generated_Source\PSoC5/cyfitter_cfg.c ****     #include <intrinsics.h>
  57:.\Generated_Source\PSoC5/cyfitter_cfg.c **** 
  58:.\Generated_Source\PSoC5/cyfitter_cfg.c ****     #define CYPACKED __packed
  59:.\Generated_Source\PSoC5/cyfitter_cfg.c ****     #define CYPACKED_ATTR 
  60:.\Generated_Source\PSoC5/cyfitter_cfg.c ****     #define CYALIGNED _Pragma("data_alignment=4")
  61:.\Generated_Source\PSoC5/cyfitter_cfg.c ****     #define CY_CFG_UNUSED _Pragma("diag_suppress=Pe177")
  62:.\Generated_Source\PSoC5/cyfitter_cfg.c ****     #define CY_CFG_SECTION _Pragma("location=\".psocinit\"")
  63:.\Generated_Source\PSoC5/cyfitter_cfg.c ****     
  64:.\Generated_Source\PSoC5/cyfitter_cfg.c ****     #if CYDEV_CONFIGURATION_DMA
  65:.\Generated_Source\PSoC5/cyfitter_cfg.c ****         #if (defined(__ARMCC_VERSION) || defined(__GNUC__))
  66:.\Generated_Source\PSoC5/cyfitter_cfg.c ****             #ifndef DMAINITSEC
  67:.\Generated_Source\PSoC5/cyfitter_cfg.c ****                 #define DMAINITSEC __attribute__ ((section(".dma_init")))
  68:.\Generated_Source\PSoC5/cyfitter_cfg.c ****             #endif
  69:.\Generated_Source\PSoC5/cyfitter_cfg.c ****         #elif defined(__ICCARM__)
  70:.\Generated_Source\PSoC5/cyfitter_cfg.c ****             #define DMAINITSEC _Pragma("location=\".dma_init\"")
  71:.\Generated_Source\PSoC5/cyfitter_cfg.c ****         #endif
  72:.\Generated_Source\PSoC5/cyfitter_cfg.c ****     #else
  73:.\Generated_Source\PSoC5/cyfitter_cfg.c ****         #define DMAINITSEC
  74:.\Generated_Source\PSoC5/cyfitter_cfg.c ****     #endif
  75:.\Generated_Source\PSoC5/cyfitter_cfg.c **** 
  76:.\Generated_Source\PSoC5/cyfitter_cfg.c ****     #define CY_CFG_MEMORY_BARRIER() __DMB()
  77:.\Generated_Source\PSoC5/cyfitter_cfg.c ****     
  78:.\Generated_Source\PSoC5/cyfitter_cfg.c **** #else
  79:.\Generated_Source\PSoC5/cyfitter_cfg.c ****     #error Unsupported toolchain
  80:.\Generated_Source\PSoC5/cyfitter_cfg.c **** #endif
  81:.\Generated_Source\PSoC5/cyfitter_cfg.c **** 
  82:.\Generated_Source\PSoC5/cyfitter_cfg.c **** 
  83:.\Generated_Source\PSoC5/cyfitter_cfg.c **** CY_CFG_UNUSED
  84:.\Generated_Source\PSoC5/cyfitter_cfg.c **** static void CYMEMZERO(void *s, size_t n);
  85:.\Generated_Source\PSoC5/cyfitter_cfg.c **** CY_CFG_UNUSED
  86:.\Generated_Source\PSoC5/cyfitter_cfg.c **** static void CYMEMZERO(void *s, size_t n)
  87:.\Generated_Source\PSoC5/cyfitter_cfg.c **** {
  26              		.loc 1 87 0
  27              		.cfi_startproc
ARM GAS  C:\Users\jthem\AppData\Local\Temp\ccAl6Vzs.s 			page 3


  28              		@ args = 0, pretend = 0, frame = 8
  29              		@ frame_needed = 1, uses_anonymous_args = 0
  30 0000 80B5     		push	{r7, lr}
  31              		.cfi_def_cfa_offset 8
  32              		.cfi_offset 7, -8
  33              		.cfi_offset 14, -4
  34 0002 82B0     		sub	sp, sp, #8
  35              		.cfi_def_cfa_offset 16
  36 0004 00AF     		add	r7, sp, #0
  37              		.cfi_def_cfa_register 7
  38 0006 7860     		str	r0, [r7, #4]
  39 0008 3960     		str	r1, [r7]
  88:.\Generated_Source\PSoC5/cyfitter_cfg.c **** 	(void)memset(s, 0, n);
  40              		.loc 1 88 0
  41 000a 7868     		ldr	r0, [r7, #4]
  42 000c 0021     		movs	r1, #0
  43 000e 3A68     		ldr	r2, [r7]
  44 0010 FFF7FEFF 		bl	memset
  89:.\Generated_Source\PSoC5/cyfitter_cfg.c **** }
  45              		.loc 1 89 0
  46 0014 0837     		adds	r7, r7, #8
  47              		.cfi_def_cfa_offset 8
  48 0016 BD46     		mov	sp, r7
  49              		.cfi_def_cfa_register 13
  50              		@ sp needed
  51 0018 80BD     		pop	{r7, pc}
  52              		.cfi_endproc
  53              	.LFE0:
  54              		.size	CYMEMZERO, .-CYMEMZERO
  55 001a 00BF     		.section	.text.CYCONFIGCPY,"ax",%progbits
  56              		.align	2
  57              		.thumb
  58              		.thumb_func
  59              		.type	CYCONFIGCPY, %function
  60              	CYCONFIGCPY:
  61              	.LFB1:
  90:.\Generated_Source\PSoC5/cyfitter_cfg.c **** CY_CFG_UNUSED
  91:.\Generated_Source\PSoC5/cyfitter_cfg.c **** static void CYCONFIGCPY(void *dest, const void *src, size_t n);
  92:.\Generated_Source\PSoC5/cyfitter_cfg.c **** CY_CFG_UNUSED
  93:.\Generated_Source\PSoC5/cyfitter_cfg.c **** static void CYCONFIGCPY(void *dest, const void *src, size_t n)
  94:.\Generated_Source\PSoC5/cyfitter_cfg.c **** {
  62              		.loc 1 94 0
  63              		.cfi_startproc
  64              		@ args = 0, pretend = 0, frame = 16
  65              		@ frame_needed = 1, uses_anonymous_args = 0
  66 0000 80B5     		push	{r7, lr}
  67              		.cfi_def_cfa_offset 8
  68              		.cfi_offset 7, -8
  69              		.cfi_offset 14, -4
  70 0002 84B0     		sub	sp, sp, #16
  71              		.cfi_def_cfa_offset 24
  72 0004 00AF     		add	r7, sp, #0
  73              		.cfi_def_cfa_register 7
  74 0006 F860     		str	r0, [r7, #12]
  75 0008 B960     		str	r1, [r7, #8]
  76 000a 7A60     		str	r2, [r7, #4]
  95:.\Generated_Source\PSoC5/cyfitter_cfg.c **** 	(void)memcpy(dest, src, n);
ARM GAS  C:\Users\jthem\AppData\Local\Temp\ccAl6Vzs.s 			page 4


  77              		.loc 1 95 0
  78 000c F868     		ldr	r0, [r7, #12]
  79 000e B968     		ldr	r1, [r7, #8]
  80 0010 7A68     		ldr	r2, [r7, #4]
  81 0012 FFF7FEFF 		bl	memcpy
  96:.\Generated_Source\PSoC5/cyfitter_cfg.c **** }
  82              		.loc 1 96 0
  83 0016 1037     		adds	r7, r7, #16
  84              		.cfi_def_cfa_offset 8
  85 0018 BD46     		mov	sp, r7
  86              		.cfi_def_cfa_register 13
  87              		@ sp needed
  88 001a 80BD     		pop	{r7, pc}
  89              		.cfi_endproc
  90              	.LFE1:
  91              		.size	CYCONFIGCPY, .-CYCONFIGCPY
  92              		.section	.text.CYCONFIGCPYCODE,"ax",%progbits
  93              		.align	2
  94              		.thumb
  95              		.thumb_func
  96              		.type	CYCONFIGCPYCODE, %function
  97              	CYCONFIGCPYCODE:
  98              	.LFB2:
  97:.\Generated_Source\PSoC5/cyfitter_cfg.c **** CY_CFG_UNUSED
  98:.\Generated_Source\PSoC5/cyfitter_cfg.c **** static void CYCONFIGCPYCODE(void *dest, const void *src, size_t n);
  99:.\Generated_Source\PSoC5/cyfitter_cfg.c **** CY_CFG_UNUSED
 100:.\Generated_Source\PSoC5/cyfitter_cfg.c **** static void CYCONFIGCPYCODE(void *dest, const void *src, size_t n)
 101:.\Generated_Source\PSoC5/cyfitter_cfg.c **** {
  99              		.loc 1 101 0
 100              		.cfi_startproc
 101              		@ args = 0, pretend = 0, frame = 16
 102              		@ frame_needed = 1, uses_anonymous_args = 0
 103 0000 80B5     		push	{r7, lr}
 104              		.cfi_def_cfa_offset 8
 105              		.cfi_offset 7, -8
 106              		.cfi_offset 14, -4
 107 0002 84B0     		sub	sp, sp, #16
 108              		.cfi_def_cfa_offset 24
 109 0004 00AF     		add	r7, sp, #0
 110              		.cfi_def_cfa_register 7
 111 0006 F860     		str	r0, [r7, #12]
 112 0008 B960     		str	r1, [r7, #8]
 113 000a 7A60     		str	r2, [r7, #4]
 102:.\Generated_Source\PSoC5/cyfitter_cfg.c **** 	(void)memcpy(dest, src, n);
 114              		.loc 1 102 0
 115 000c F868     		ldr	r0, [r7, #12]
 116 000e B968     		ldr	r1, [r7, #8]
 117 0010 7A68     		ldr	r2, [r7, #4]
 118 0012 FFF7FEFF 		bl	memcpy
 103:.\Generated_Source\PSoC5/cyfitter_cfg.c **** }
 119              		.loc 1 103 0
 120 0016 1037     		adds	r7, r7, #16
 121              		.cfi_def_cfa_offset 8
 122 0018 BD46     		mov	sp, r7
 123              		.cfi_def_cfa_register 13
 124              		@ sp needed
 125 001a 80BD     		pop	{r7, pc}
ARM GAS  C:\Users\jthem\AppData\Local\Temp\ccAl6Vzs.s 			page 5


 126              		.cfi_endproc
 127              	.LFE2:
 128              		.size	CYCONFIGCPYCODE, .-CYCONFIGCPYCODE
 129              		.section	.text.CyClockStartupError,"ax",%progbits
 130              		.align	2
 131              		.thumb
 132              		.thumb_func
 133              		.type	CyClockStartupError, %function
 134              	CyClockStartupError:
 135              	.LFB3:
 104:.\Generated_Source\PSoC5/cyfitter_cfg.c **** 
 105:.\Generated_Source\PSoC5/cyfitter_cfg.c **** 
 106:.\Generated_Source\PSoC5/cyfitter_cfg.c **** 
 107:.\Generated_Source\PSoC5/cyfitter_cfg.c **** /* Clock startup error codes                                                   */
 108:.\Generated_Source\PSoC5/cyfitter_cfg.c **** #define CYCLOCKSTART_NO_ERROR    0u
 109:.\Generated_Source\PSoC5/cyfitter_cfg.c **** #define CYCLOCKSTART_XTAL_ERROR  1u
 110:.\Generated_Source\PSoC5/cyfitter_cfg.c **** #define CYCLOCKSTART_32KHZ_ERROR 2u
 111:.\Generated_Source\PSoC5/cyfitter_cfg.c **** #define CYCLOCKSTART_PLL_ERROR   3u
 112:.\Generated_Source\PSoC5/cyfitter_cfg.c **** 
 113:.\Generated_Source\PSoC5/cyfitter_cfg.c **** #ifdef CY_NEED_CYCLOCKSTARTUPERROR
 114:.\Generated_Source\PSoC5/cyfitter_cfg.c **** /*******************************************************************************
 115:.\Generated_Source\PSoC5/cyfitter_cfg.c **** * Function Name: CyClockStartupError
 116:.\Generated_Source\PSoC5/cyfitter_cfg.c **** ********************************************************************************
 117:.\Generated_Source\PSoC5/cyfitter_cfg.c **** * Summary:
 118:.\Generated_Source\PSoC5/cyfitter_cfg.c **** *  If an error is encountered during clock configuration (crystal startup error,
 119:.\Generated_Source\PSoC5/cyfitter_cfg.c **** *  PLL lock error, etc.), the system will end up here.  Unless reimplemented by
 120:.\Generated_Source\PSoC5/cyfitter_cfg.c **** *  the customer, this function will stop in an infinite loop.
 121:.\Generated_Source\PSoC5/cyfitter_cfg.c **** *
 122:.\Generated_Source\PSoC5/cyfitter_cfg.c **** * Parameters:
 123:.\Generated_Source\PSoC5/cyfitter_cfg.c **** *   void
 124:.\Generated_Source\PSoC5/cyfitter_cfg.c **** *
 125:.\Generated_Source\PSoC5/cyfitter_cfg.c **** * Return:
 126:.\Generated_Source\PSoC5/cyfitter_cfg.c **** *   void
 127:.\Generated_Source\PSoC5/cyfitter_cfg.c **** *
 128:.\Generated_Source\PSoC5/cyfitter_cfg.c **** *******************************************************************************/
 129:.\Generated_Source\PSoC5/cyfitter_cfg.c **** CY_CFG_UNUSED
 130:.\Generated_Source\PSoC5/cyfitter_cfg.c **** static void CyClockStartupError(uint8 errorCode);
 131:.\Generated_Source\PSoC5/cyfitter_cfg.c **** CY_CFG_UNUSED
 132:.\Generated_Source\PSoC5/cyfitter_cfg.c **** static void CyClockStartupError(uint8 errorCode)
 133:.\Generated_Source\PSoC5/cyfitter_cfg.c **** {
 136              		.loc 1 133 0
 137              		.cfi_startproc
 138              		@ args = 0, pretend = 0, frame = 8
 139              		@ frame_needed = 1, uses_anonymous_args = 0
 140              		@ link register save eliminated.
 141 0000 80B4     		push	{r7}
 142              		.cfi_def_cfa_offset 4
 143              		.cfi_offset 7, -4
 144 0002 83B0     		sub	sp, sp, #12
 145              		.cfi_def_cfa_offset 16
 146 0004 00AF     		add	r7, sp, #0
 147              		.cfi_def_cfa_register 7
 148 0006 0346     		mov	r3, r0
 149 0008 FB71     		strb	r3, [r7, #7]
 150              	.L5:
 134:.\Generated_Source\PSoC5/cyfitter_cfg.c ****     /* To remove the compiler warning if errorCode not used.                */
 135:.\Generated_Source\PSoC5/cyfitter_cfg.c ****     errorCode = errorCode;
ARM GAS  C:\Users\jthem\AppData\Local\Temp\ccAl6Vzs.s 			page 6


 136:.\Generated_Source\PSoC5/cyfitter_cfg.c **** 
 137:.\Generated_Source\PSoC5/cyfitter_cfg.c ****     /* `#START CyClockStartupError` */
 138:.\Generated_Source\PSoC5/cyfitter_cfg.c **** 
 139:.\Generated_Source\PSoC5/cyfitter_cfg.c ****     /* If we have a clock startup error (bad MHz crystal, PLL lock, etc.),  */
 140:.\Generated_Source\PSoC5/cyfitter_cfg.c ****     /* we will end up here to allow the customer to implement something to  */
 141:.\Generated_Source\PSoC5/cyfitter_cfg.c ****     /* deal with the clock condition.                                       */
 142:.\Generated_Source\PSoC5/cyfitter_cfg.c **** 
 143:.\Generated_Source\PSoC5/cyfitter_cfg.c ****     /* `#END` */
 144:.\Generated_Source\PSoC5/cyfitter_cfg.c **** 
 145:.\Generated_Source\PSoC5/cyfitter_cfg.c ****     /* If nothing else, stop here since the clocks have not started         */
 146:.\Generated_Source\PSoC5/cyfitter_cfg.c ****     /* correctly.                                                           */
 147:.\Generated_Source\PSoC5/cyfitter_cfg.c ****     while(1) {}
 151              		.loc 1 147 0 discriminator 1
 152 000a FEE7     		b	.L5
 153              		.cfi_endproc
 154              	.LFE3:
 155              		.size	CyClockStartupError, .-CyClockStartupError
 156              		.section	.text.cfg_dma_init,"ax",%progbits
 157              		.align	2
 158              		.thumb
 159              		.thumb_func
 160              		.type	cfg_dma_init, %function
 161              	cfg_dma_init:
 162              	.LFB4:
 148:.\Generated_Source\PSoC5/cyfitter_cfg.c **** }
 149:.\Generated_Source\PSoC5/cyfitter_cfg.c **** #endif
 150:.\Generated_Source\PSoC5/cyfitter_cfg.c **** 
 151:.\Generated_Source\PSoC5/cyfitter_cfg.c **** /* IDMUX Address: CYREG_IDMUX_DRQ_CTL0 Size (bytes): 6 */
 152:.\Generated_Source\PSoC5/cyfitter_cfg.c **** #define BS_IDMUX_VAL ((const uint8 CYFAR *)0x48000000u)
 153:.\Generated_Source\PSoC5/cyfitter_cfg.c **** 
 154:.\Generated_Source\PSoC5/cyfitter_cfg.c **** /* IOPORT_5 Address: CYDEV_PRTDSI_PRT5_BASE Size (bytes): 7 */
 155:.\Generated_Source\PSoC5/cyfitter_cfg.c **** #define BS_IOPORT_5_VAL ((const uint8 CYFAR *)0x48000008u)
 156:.\Generated_Source\PSoC5/cyfitter_cfg.c **** 
 157:.\Generated_Source\PSoC5/cyfitter_cfg.c **** /* UDB_0_1_0_CONFIG Address: CYDEV_UCFG_B1_P4_U1_BASE Size (bytes): 128 */
 158:.\Generated_Source\PSoC5/cyfitter_cfg.c **** #define BS_UDB_0_1_0_CONFIG_VAL ((const uint8 CYFAR *)0x48000010u)
 159:.\Generated_Source\PSoC5/cyfitter_cfg.c **** 
 160:.\Generated_Source\PSoC5/cyfitter_cfg.c **** /* UDB_0_0_0_CONFIG Address: CYDEV_UCFG_B1_P5_U0_BASE Size (bytes): 128 */
 161:.\Generated_Source\PSoC5/cyfitter_cfg.c **** #define BS_UDB_0_0_0_CONFIG_VAL ((const uint8 CYFAR *)0x48000090u)
 162:.\Generated_Source\PSoC5/cyfitter_cfg.c **** 
 163:.\Generated_Source\PSoC5/cyfitter_cfg.c **** /* UDB_0_0_1_CONFIG Address: CYDEV_UCFG_B1_P5_U1_BASE Size (bytes): 128 */
 164:.\Generated_Source\PSoC5/cyfitter_cfg.c **** #define BS_UDB_0_0_1_CONFIG_VAL ((const uint8 CYFAR *)0x48000110u)
 165:.\Generated_Source\PSoC5/cyfitter_cfg.c **** 
 166:.\Generated_Source\PSoC5/cyfitter_cfg.c **** /* UWRK_B1_WRK_STATCTL_BITS Address: CYDEV_UWRK_UWRK8_B1_BASE + 0x00000070u Size (bytes): 32 */
 167:.\Generated_Source\PSoC5/cyfitter_cfg.c **** #define BS_UWRK_B1_WRK_STATCTL_BITS_VAL ((const uint8 CYFAR *)0x48000190u)
 168:.\Generated_Source\PSoC5/cyfitter_cfg.c **** 
 169:.\Generated_Source\PSoC5/cyfitter_cfg.c **** /* UCFG_BCTL1 Address: CYREG_BCTL1_MDCLK_EN Size (bytes): 16 */
 170:.\Generated_Source\PSoC5/cyfitter_cfg.c **** #define BS_UCFG_BCTL1_VAL ((const uint8 CYFAR *)0x480001B0u)
 171:.\Generated_Source\PSoC5/cyfitter_cfg.c **** 
 172:.\Generated_Source\PSoC5/cyfitter_cfg.c **** /* DSISWITCH_0_0 Address: CYDEV_UCFG_DSI13_BASE Size (bytes): 128 */
 173:.\Generated_Source\PSoC5/cyfitter_cfg.c **** #define BS_DSISWITCH_0_0_VAL ((const uint8 CYFAR *)0x480001C0u)
 174:.\Generated_Source\PSoC5/cyfitter_cfg.c **** 
 175:.\Generated_Source\PSoC5/cyfitter_cfg.c **** /* DSI0_0_HV_ROUTING Address: CYDEV_UCFG_DSI13_BASE + 0x00000080u Size (bytes): 128 */
 176:.\Generated_Source\PSoC5/cyfitter_cfg.c **** #define BS_DSI0_0_HV_ROUTING_VAL ((const uint8 CYFAR *)0x48000240u)
 177:.\Generated_Source\PSoC5/cyfitter_cfg.c **** 
 178:.\Generated_Source\PSoC5/cyfitter_cfg.c **** /* DSI0_1_HV_ROUTING Address: CYDEV_UCFG_DSI12_BASE + 0x00000080u Size (bytes): 128 */
 179:.\Generated_Source\PSoC5/cyfitter_cfg.c **** #define BS_DSI0_1_HV_ROUTING_VAL ((const uint8 CYFAR *)0x480002C0u)
 180:.\Generated_Source\PSoC5/cyfitter_cfg.c **** 
ARM GAS  C:\Users\jthem\AppData\Local\Temp\ccAl6Vzs.s 			page 7


 181:.\Generated_Source\PSoC5/cyfitter_cfg.c **** /* UDBSWITCH_0_0 Address: CYDEV_UCFG_B1_P5_ROUTE_BASE Size (bytes): 128 */
 182:.\Generated_Source\PSoC5/cyfitter_cfg.c **** #define BS_UDBSWITCH_0_0_VAL ((const uint8 CYFAR *)0x48000340u)
 183:.\Generated_Source\PSoC5/cyfitter_cfg.c **** 
 184:.\Generated_Source\PSoC5/cyfitter_cfg.c **** /* UDB_1_0_HV_ROUTING Address: CYDEV_UCFG_B1_P5_ROUTE_BASE + 0x00000080u Size (bytes): 128 */
 185:.\Generated_Source\PSoC5/cyfitter_cfg.c **** #define BS_UDB_1_0_HV_ROUTING_VAL ((const uint8 CYFAR *)0x480003C0u)
 186:.\Generated_Source\PSoC5/cyfitter_cfg.c **** 
 187:.\Generated_Source\PSoC5/cyfitter_cfg.c **** /* UDB_2_0_HV_ROUTING Address: CYDEV_UCFG_B1_P2_ROUTE_BASE + 0x00000080u Size (bytes): 128 */
 188:.\Generated_Source\PSoC5/cyfitter_cfg.c **** #define BS_UDB_2_0_HV_ROUTING_VAL ((const uint8 CYFAR *)0x48000440u)
 189:.\Generated_Source\PSoC5/cyfitter_cfg.c **** 
 190:.\Generated_Source\PSoC5/cyfitter_cfg.c **** /* UDBSWITCH_0_1 Address: CYDEV_UCFG_B1_P4_ROUTE_BASE Size (bytes): 128 */
 191:.\Generated_Source\PSoC5/cyfitter_cfg.c **** #define BS_UDBSWITCH_0_1_VAL ((const uint8 CYFAR *)0x480004C0u)
 192:.\Generated_Source\PSoC5/cyfitter_cfg.c **** 
 193:.\Generated_Source\PSoC5/cyfitter_cfg.c **** /* UDB_1_1_HV_ROUTING Address: CYDEV_UCFG_B1_P4_ROUTE_BASE + 0x00000080u Size (bytes): 128 */
 194:.\Generated_Source\PSoC5/cyfitter_cfg.c **** #define BS_UDB_1_1_HV_ROUTING_VAL ((const uint8 CYFAR *)0x48000540u)
 195:.\Generated_Source\PSoC5/cyfitter_cfg.c **** 
 196:.\Generated_Source\PSoC5/cyfitter_cfg.c **** /* UDB_2_1_HV_ROUTING Address: CYDEV_UCFG_B1_P3_ROUTE_BASE + 0x00000080u Size (bytes): 128 */
 197:.\Generated_Source\PSoC5/cyfitter_cfg.c **** #define BS_UDB_2_1_HV_ROUTING_VAL ((const uint8 CYFAR *)0x480005C0u)
 198:.\Generated_Source\PSoC5/cyfitter_cfg.c **** 
 199:.\Generated_Source\PSoC5/cyfitter_cfg.c **** /* DSI3_0_HV_ROUTING Address: CYDEV_UCFG_DSI9_BASE + 0x00000080u Size (bytes): 128 */
 200:.\Generated_Source\PSoC5/cyfitter_cfg.c **** #define BS_DSI3_0_HV_ROUTING_VAL ((const uint8 CYFAR *)0x48000640u)
 201:.\Generated_Source\PSoC5/cyfitter_cfg.c **** 
 202:.\Generated_Source\PSoC5/cyfitter_cfg.c **** /* DSI3_1_HV_ROUTING Address: CYDEV_UCFG_DSI8_BASE + 0x00000080u Size (bytes): 128 */
 203:.\Generated_Source\PSoC5/cyfitter_cfg.c **** #define BS_DSI3_1_HV_ROUTING_VAL ((const uint8 CYFAR *)0x480006C0u)
 204:.\Generated_Source\PSoC5/cyfitter_cfg.c **** 
 205:.\Generated_Source\PSoC5/cyfitter_cfg.c **** /* DSI3_2_HV_ROUTING Address: CYDEV_UCFG_DSI3_BASE + 0x00000080u Size (bytes): 128 */
 206:.\Generated_Source\PSoC5/cyfitter_cfg.c **** #define BS_DSI3_2_HV_ROUTING_VAL ((const uint8 CYFAR *)0x48000740u)
 207:.\Generated_Source\PSoC5/cyfitter_cfg.c **** 
 208:.\Generated_Source\PSoC5/cyfitter_cfg.c **** /* DSI3_3_HV_ROUTING Address: CYDEV_UCFG_DSI2_BASE + 0x00000080u Size (bytes): 128 */
 209:.\Generated_Source\PSoC5/cyfitter_cfg.c **** #define BS_DSI3_3_HV_ROUTING_VAL ((const uint8 CYFAR *)0x480007C0u)
 210:.\Generated_Source\PSoC5/cyfitter_cfg.c **** 
 211:.\Generated_Source\PSoC5/cyfitter_cfg.c **** /* DSI3_4_HV_ROUTING Address: CYDEV_UCFG_DSI1_BASE + 0x00000080u Size (bytes): 128 */
 212:.\Generated_Source\PSoC5/cyfitter_cfg.c **** #define BS_DSI3_4_HV_ROUTING_VAL ((const uint8 CYFAR *)0x48000840u)
 213:.\Generated_Source\PSoC5/cyfitter_cfg.c **** 
 214:.\Generated_Source\PSoC5/cyfitter_cfg.c **** /* DSISWITCH_1_5 Address: CYDEV_UCFG_DSI0_BASE Size (bytes): 128 */
 215:.\Generated_Source\PSoC5/cyfitter_cfg.c **** #define BS_DSISWITCH_1_5_VAL ((const uint8 CYFAR *)0x480008C0u)
 216:.\Generated_Source\PSoC5/cyfitter_cfg.c **** 
 217:.\Generated_Source\PSoC5/cyfitter_cfg.c **** /* DSI3_5_HV_ROUTING Address: CYDEV_UCFG_DSI0_BASE + 0x00000080u Size (bytes): 128 */
 218:.\Generated_Source\PSoC5/cyfitter_cfg.c **** #define BS_DSI3_5_HV_ROUTING_VAL ((const uint8 CYFAR *)0x48000940u)
 219:.\Generated_Source\PSoC5/cyfitter_cfg.c **** 
 220:.\Generated_Source\PSoC5/cyfitter_cfg.c **** /* IOPINS0_2 Address: CYREG_PRT2_DM0 Size (bytes): 8 */
 221:.\Generated_Source\PSoC5/cyfitter_cfg.c **** #define BS_IOPINS0_2_VAL ((const uint8 CYFAR *)0x480009C0u)
 222:.\Generated_Source\PSoC5/cyfitter_cfg.c **** 
 223:.\Generated_Source\PSoC5/cyfitter_cfg.c **** /* IOPINS0_5 Address: CYREG_PRT5_DM0 Size (bytes): 8 */
 224:.\Generated_Source\PSoC5/cyfitter_cfg.c **** #define BS_IOPINS0_5_VAL ((const uint8 CYFAR *)0x480009C8u)
 225:.\Generated_Source\PSoC5/cyfitter_cfg.c **** 
 226:.\Generated_Source\PSoC5/cyfitter_cfg.c **** 
 227:.\Generated_Source\PSoC5/cyfitter_cfg.c **** /*******************************************************************************
 228:.\Generated_Source\PSoC5/cyfitter_cfg.c **** * Function Name: cfg_dma_init
 229:.\Generated_Source\PSoC5/cyfitter_cfg.c **** ********************************************************************************
 230:.\Generated_Source\PSoC5/cyfitter_cfg.c **** * Summary:
 231:.\Generated_Source\PSoC5/cyfitter_cfg.c **** *  This function is used to copy device configuration data from constant values
 232:.\Generated_Source\PSoC5/cyfitter_cfg.c **** *  stored in memory into the proper chip configuration registers using DMA.  It
 233:.\Generated_Source\PSoC5/cyfitter_cfg.c **** *  pulls data out of the CFG_TD_LISTs to know exactly how/what to configure.
 234:.\Generated_Source\PSoC5/cyfitter_cfg.c **** *
 235:.\Generated_Source\PSoC5/cyfitter_cfg.c **** * Parameters:  
 236:.\Generated_Source\PSoC5/cyfitter_cfg.c **** *   void
 237:.\Generated_Source\PSoC5/cyfitter_cfg.c **** *
ARM GAS  C:\Users\jthem\AppData\Local\Temp\ccAl6Vzs.s 			page 8


 238:.\Generated_Source\PSoC5/cyfitter_cfg.c **** * Return:
 239:.\Generated_Source\PSoC5/cyfitter_cfg.c **** *   void
 240:.\Generated_Source\PSoC5/cyfitter_cfg.c **** *
 241:.\Generated_Source\PSoC5/cyfitter_cfg.c **** *******************************************************************************/
 242:.\Generated_Source\PSoC5/cyfitter_cfg.c **** static void cfg_dma_init(void);
 243:.\Generated_Source\PSoC5/cyfitter_cfg.c **** static void cfg_dma_init(void)
 244:.\Generated_Source\PSoC5/cyfitter_cfg.c **** {
 163              		.loc 1 244 0
 164              		.cfi_startproc
 165              		@ args = 0, pretend = 0, frame = 8
 166              		@ frame_needed = 1, uses_anonymous_args = 0
 167 0000 80B5     		push	{r7, lr}
 168              		.cfi_def_cfa_offset 8
 169              		.cfi_offset 7, -8
 170              		.cfi_offset 14, -4
 171 0002 82B0     		sub	sp, sp, #8
 172              		.cfi_def_cfa_offset 16
 173 0004 00AF     		add	r7, sp, #0
 174              		.cfi_def_cfa_register 7
 245:.\Generated_Source\PSoC5/cyfitter_cfg.c **** 	/* TD structure for little-endian systems. Does not require endian swap */
 246:.\Generated_Source\PSoC5/cyfitter_cfg.c **** 	CYPACKED struct td_t {
 247:.\Generated_Source\PSoC5/cyfitter_cfg.c **** 		uint16 size;
 248:.\Generated_Source\PSoC5/cyfitter_cfg.c **** 		uint8 next_td_ptr;
 249:.\Generated_Source\PSoC5/cyfitter_cfg.c **** 		uint8 flags;
 250:.\Generated_Source\PSoC5/cyfitter_cfg.c **** 		uint16 src;
 251:.\Generated_Source\PSoC5/cyfitter_cfg.c **** 		uint16 dest;
 252:.\Generated_Source\PSoC5/cyfitter_cfg.c **** 	} CYPACKED_ATTR;
 253:.\Generated_Source\PSoC5/cyfitter_cfg.c **** 
 254:.\Generated_Source\PSoC5/cyfitter_cfg.c **** 	/* PHUB_CH1_CFGMEM_CFG0/1 initialization data */
 255:.\Generated_Source\PSoC5/cyfitter_cfg.c **** 	DMAINITSEC static const uint8 CYCODE CH1_ADDR_DATA0[] = { 0x01u, 0x00u, 0x00u, 0x00u, 0x00u, 0x20u
 256:.\Generated_Source\PSoC5/cyfitter_cfg.c **** 
 257:.\Generated_Source\PSoC5/cyfitter_cfg.c **** 	/* PHUB_CH2_CFGMEM_CFG0/1 initialization data */
 258:.\Generated_Source\PSoC5/cyfitter_cfg.c **** 	DMAINITSEC static const uint8 CYCODE CH2_ADDR_DATA0[] = { 0x01u, 0x00u, 0x00u, 0x00u, 0x00u, 0x20u
 259:.\Generated_Source\PSoC5/cyfitter_cfg.c **** 
 260:.\Generated_Source\PSoC5/cyfitter_cfg.c **** 	/* PHUB_CH5_CFGMEM_CFG0/1 initialization data */
 261:.\Generated_Source\PSoC5/cyfitter_cfg.c **** 	DMAINITSEC static const uint8 CYCODE CH5_ADDR_DATA0[] = { 0x01u, 0x00u, 0x00u, 0x00u, 0x00u, 0x48u
 262:.\Generated_Source\PSoC5/cyfitter_cfg.c **** 
 263:.\Generated_Source\PSoC5/cyfitter_cfg.c **** 	/* PHUB_CH6_CFGMEM_CFG0/1 initialization data */
 264:.\Generated_Source\PSoC5/cyfitter_cfg.c **** 	DMAINITSEC static const uint8 CYCODE CH6_ADDR_DATA0[] = { 0x01u, 0x00u, 0x00u, 0x00u, 0x00u, 0x48u
 265:.\Generated_Source\PSoC5/cyfitter_cfg.c **** 
 266:.\Generated_Source\PSoC5/cyfitter_cfg.c **** 	/* Initialization data for each DMA channel's TD registers */
 267:.\Generated_Source\PSoC5/cyfitter_cfg.c **** 	DMAINITSEC static const uint8 CYCODE DMA_TD_START_CMD[] = { 0x01u, 0x00u, 0x00u, 0x00u, 0x01u };
 268:.\Generated_Source\PSoC5/cyfitter_cfg.c **** 
 269:.\Generated_Source\PSoC5/cyfitter_cfg.c **** 	CYALIGNED static uint32 CYXDATA DMA_ZERO_VAL;
 270:.\Generated_Source\PSoC5/cyfitter_cfg.c **** 
 271:.\Generated_Source\PSoC5/cyfitter_cfg.c **** 	/* This table holds all of the initialization data necessary for the DMA
 272:.\Generated_Source\PSoC5/cyfitter_cfg.c **** 	   process to transfer data from the source location to the destination. */
 273:.\Generated_Source\PSoC5/cyfitter_cfg.c **** 	/* Source addresses can be relocated, but only when in 32bit addresses.
 274:.\Generated_Source\PSoC5/cyfitter_cfg.c **** 	   Because the standard TD table only has 16bit addresses, we generate a
 275:.\Generated_Source\PSoC5/cyfitter_cfg.c **** 	   separate CFG_TD_ADDR table for the source addresses that supports 32bit
 276:.\Generated_Source\PSoC5/cyfitter_cfg.c **** 	   addresses. */
 277:.\Generated_Source\PSoC5/cyfitter_cfg.c **** 	DMAINITSEC static const struct td_t CYCODE CFG_TD_LIST0[] = {
 278:.\Generated_Source\PSoC5/cyfitter_cfg.c **** 		/* Size, Next, Flags, Source, Destination */
 279:.\Generated_Source\PSoC5/cyfitter_cfg.c **** 		{ 8u, 0x02u, 0x23u, (uint16)(uint32)(0u), (uint16)(CYREG_PHUB_CFGMEM1_CFG0) },	/* TD 1 */
 280:.\Generated_Source\PSoC5/cyfitter_cfg.c **** 		{ 8u, 0x03u, 0x23u, (uint16)(uint32)(0u), (uint16)(CYREG_PHUB_CFGMEM2_CFG0) },	/* TD 2 */
 281:.\Generated_Source\PSoC5/cyfitter_cfg.c **** 		{ 8u, 0x04u, 0x23u, (uint16)(uint32)(0u), (uint16)(CYREG_PHUB_CFGMEM5_CFG0) },	/* TD 3 */
 282:.\Generated_Source\PSoC5/cyfitter_cfg.c **** 		{ 8u, 0x05u, 0x23u, (uint16)(uint32)(0u), (uint16)(CYREG_PHUB_CFGMEM6_CFG0) },	/* TD 4 */
ARM GAS  C:\Users\jthem\AppData\Local\Temp\ccAl6Vzs.s 			page 9


 283:.\Generated_Source\PSoC5/cyfitter_cfg.c **** 		{ 5u, 0x06u, 0x23u, (uint16)(uint32)(0u), (uint16)(CYREG_PHUB_CH1_BASIC_CFG) },	/* TD 5 */
 284:.\Generated_Source\PSoC5/cyfitter_cfg.c **** 		{ 5u, 0x07u, 0x23u, (uint16)(uint32)(0u), (uint16)(CYREG_PHUB_CH2_BASIC_CFG) },	/* TD 6 */
 285:.\Generated_Source\PSoC5/cyfitter_cfg.c **** 		{ 5u, 0x08u, 0x23u, (uint16)(uint32)(0u), (uint16)(CYREG_PHUB_CH5_BASIC_CFG) },	/* TD 7 */
 286:.\Generated_Source\PSoC5/cyfitter_cfg.c **** 		{ 5u, 0xFEu, 0x23u, (uint16)(uint32)(0u), (uint16)(CYREG_PHUB_CH6_BASIC_CFG) },	/* TD 8 */
 287:.\Generated_Source\PSoC5/cyfitter_cfg.c **** 		{ 32u, 0x0Au, 0x22u, (uint16)(uint32)(0u), (uint16)(CYREG_PRT0_DR) },	/* TD 9 */
 288:.\Generated_Source\PSoC5/cyfitter_cfg.c **** 		{ 32u, 0x0Bu, 0x22u, (uint16)(uint32)(0u), (uint16)(CYREG_PRT3_DR) },	/* TD 10 */
 289:.\Generated_Source\PSoC5/cyfitter_cfg.c **** 		{ 16u, 0x0Cu, 0x22u, (uint16)(uint32)(0u), (uint16)(CYREG_PRT6_DR) },	/* TD 11 */
 290:.\Generated_Source\PSoC5/cyfitter_cfg.c **** 		{ 16u, 0x0Du, 0x22u, (uint16)(uint32)(0u), (uint16)(CYREG_PRT12_DR) },	/* TD 12 */
 291:.\Generated_Source\PSoC5/cyfitter_cfg.c **** 		{ 16u, 0xFEu, 0x22u, (uint16)(uint32)(0u), (uint16)(CYREG_PRT15_DR) },	/* TD 13 */
 292:.\Generated_Source\PSoC5/cyfitter_cfg.c **** 		{ 4095u, 0x0Fu, 0x22u, (uint16)(uint32)(0u), (uint16)(CYDEV_UCFG_B0_P0_U0_BASE) },	/* TD 14 */
 293:.\Generated_Source\PSoC5/cyfitter_cfg.c **** 		{ 1u, 0x10u, 0x22u, (uint16)(uint32)(0u), (uint16)(CYDEV_UCFG_B0_P7_ROUTE_BASE + 0x00000080u + 0x
 294:.\Generated_Source\PSoC5/cyfitter_cfg.c **** 		{ 384u, 0x11u, 0x22u, (uint16)(uint32)(0u), (uint16)(CYDEV_UCFG_B1_P2_U0_BASE) },	/* TD 16 */
 295:.\Generated_Source\PSoC5/cyfitter_cfg.c **** 		{ 384u, 0x12u, 0x22u, (uint16)(uint32)(0u), (uint16)(CYDEV_UCFG_B1_P3_U0_BASE) },	/* TD 17 */
 296:.\Generated_Source\PSoC5/cyfitter_cfg.c **** 		{ 128u, 0x13u, 0x22u, (uint16)(uint32)(0u), (uint16)(CYDEV_UCFG_B1_P4_U0_BASE) },	/* TD 18 */
 297:.\Generated_Source\PSoC5/cyfitter_cfg.c **** 		{ 128u, 0x14u, 0x22u, (uint16)(uint32)(0u), (uint16)(CYDEV_UCFG_DSI1_BASE) },	/* TD 19 */
 298:.\Generated_Source\PSoC5/cyfitter_cfg.c **** 		{ 128u, 0x15u, 0x22u, (uint16)(uint32)(0u), (uint16)(CYDEV_UCFG_DSI2_BASE) },	/* TD 20 */
 299:.\Generated_Source\PSoC5/cyfitter_cfg.c **** 		{ 128u, 0x16u, 0x22u, (uint16)(uint32)(0u), (uint16)(CYDEV_UCFG_DSI3_BASE) },	/* TD 21 */
 300:.\Generated_Source\PSoC5/cyfitter_cfg.c **** 		{ 1152u, 0x17u, 0x22u, (uint16)(uint32)(0u), (uint16)(CYDEV_UCFG_DSI4_BASE) },	/* TD 22 */
 301:.\Generated_Source\PSoC5/cyfitter_cfg.c **** 		{ 128u, 0x18u, 0x22u, (uint16)(uint32)(0u), (uint16)(CYDEV_UCFG_DSI9_BASE) },	/* TD 23 */
 302:.\Generated_Source\PSoC5/cyfitter_cfg.c **** 		{ 128u, 0x19u, 0x22u, (uint16)(uint32)(0u), (uint16)(CYDEV_UCFG_DSI12_BASE) },	/* TD 24 */
 303:.\Generated_Source\PSoC5/cyfitter_cfg.c **** 		{ 16u, 0xFEu, 0x22u, (uint16)(uint32)(0u), (uint16)(CYREG_BCTL0_MDCLK_EN) },	/* TD 25 */
 304:.\Generated_Source\PSoC5/cyfitter_cfg.c **** 		{ 7u, 0x1Bu, 0x23u, (uint16)(uint32)(0u), (uint16)(CYDEV_PRTDSI_PRT5_BASE) },	/* TD 26 */
 305:.\Generated_Source\PSoC5/cyfitter_cfg.c **** 		{ 32u, 0xFEu, 0x23u, (uint16)(uint32)(0u), (uint16)(CYDEV_UWRK_UWRK8_B1_BASE + 0x00000070u) },	/*
 306:.\Generated_Source\PSoC5/cyfitter_cfg.c **** 		{ 128u, 0x1Du, 0x23u, (uint16)(uint32)(0u), (uint16)(CYDEV_UCFG_B1_P4_U1_BASE) },	/* TD 28 */
 307:.\Generated_Source\PSoC5/cyfitter_cfg.c **** 		{ 128u, 0x1Eu, 0x23u, (uint16)(uint32)(0u), (uint16)(CYDEV_UCFG_B1_P5_U0_BASE) },	/* TD 29 */
 308:.\Generated_Source\PSoC5/cyfitter_cfg.c **** 		{ 128u, 0x1Fu, 0x23u, (uint16)(uint32)(0u), (uint16)(CYDEV_UCFG_B1_P5_U1_BASE) },	/* TD 30 */
 309:.\Generated_Source\PSoC5/cyfitter_cfg.c **** 		{ 16u, 0x20u, 0x23u, (uint16)(uint32)(0u), (uint16)(CYREG_BCTL1_MDCLK_EN) },	/* TD 31 */
 310:.\Generated_Source\PSoC5/cyfitter_cfg.c **** 		{ 128u, 0x21u, 0x23u, (uint16)(uint32)(0u), (uint16)(CYDEV_UCFG_DSI13_BASE) },	/* TD 32 */
 311:.\Generated_Source\PSoC5/cyfitter_cfg.c **** 		{ 128u, 0x22u, 0x23u, (uint16)(uint32)(0u), (uint16)(CYDEV_UCFG_DSI13_BASE + 0x00000080u) },	/* T
 312:.\Generated_Source\PSoC5/cyfitter_cfg.c **** 		{ 128u, 0x23u, 0x23u, (uint16)(uint32)(0u), (uint16)(CYDEV_UCFG_DSI12_BASE + 0x00000080u) },	/* T
 313:.\Generated_Source\PSoC5/cyfitter_cfg.c **** 		{ 128u, 0x24u, 0x23u, (uint16)(uint32)(0u), (uint16)(CYDEV_UCFG_B1_P5_ROUTE_BASE) },	/* TD 35 */
 314:.\Generated_Source\PSoC5/cyfitter_cfg.c **** 		{ 128u, 0x25u, 0x23u, (uint16)(uint32)(0u), (uint16)(CYDEV_UCFG_B1_P5_ROUTE_BASE + 0x00000080u) }
 315:.\Generated_Source\PSoC5/cyfitter_cfg.c **** 		{ 128u, 0x26u, 0x23u, (uint16)(uint32)(0u), (uint16)(CYDEV_UCFG_B1_P2_ROUTE_BASE + 0x00000080u) }
 316:.\Generated_Source\PSoC5/cyfitter_cfg.c **** 		{ 128u, 0x27u, 0x23u, (uint16)(uint32)(0u), (uint16)(CYDEV_UCFG_B1_P4_ROUTE_BASE) },	/* TD 38 */
 317:.\Generated_Source\PSoC5/cyfitter_cfg.c **** 		{ 128u, 0x28u, 0x23u, (uint16)(uint32)(0u), (uint16)(CYDEV_UCFG_B1_P4_ROUTE_BASE + 0x00000080u) }
 318:.\Generated_Source\PSoC5/cyfitter_cfg.c **** 		{ 128u, 0x29u, 0x23u, (uint16)(uint32)(0u), (uint16)(CYDEV_UCFG_B1_P3_ROUTE_BASE + 0x00000080u) }
 319:.\Generated_Source\PSoC5/cyfitter_cfg.c **** 		{ 128u, 0x2Au, 0x23u, (uint16)(uint32)(0u), (uint16)(CYDEV_UCFG_DSI9_BASE + 0x00000080u) },	/* TD
 320:.\Generated_Source\PSoC5/cyfitter_cfg.c **** 		{ 128u, 0x2Bu, 0x23u, (uint16)(uint32)(0u), (uint16)(CYDEV_UCFG_DSI8_BASE + 0x00000080u) },	/* TD
 321:.\Generated_Source\PSoC5/cyfitter_cfg.c **** 		{ 128u, 0x2Cu, 0x23u, (uint16)(uint32)(0u), (uint16)(CYDEV_UCFG_DSI3_BASE + 0x00000080u) },	/* TD
 322:.\Generated_Source\PSoC5/cyfitter_cfg.c **** 		{ 128u, 0x2Du, 0x23u, (uint16)(uint32)(0u), (uint16)(CYDEV_UCFG_DSI2_BASE + 0x00000080u) },	/* TD
 323:.\Generated_Source\PSoC5/cyfitter_cfg.c **** 		{ 128u, 0x2Eu, 0x23u, (uint16)(uint32)(0u), (uint16)(CYDEV_UCFG_DSI1_BASE + 0x00000080u) },	/* TD
 324:.\Generated_Source\PSoC5/cyfitter_cfg.c **** 		{ 128u, 0x2Fu, 0x23u, (uint16)(uint32)(0u), (uint16)(CYDEV_UCFG_DSI0_BASE) },	/* TD 46 */
 325:.\Generated_Source\PSoC5/cyfitter_cfg.c **** 		{ 128u, 0xFEu, 0x23u, (uint16)(uint32)(0u), (uint16)(CYDEV_UCFG_DSI0_BASE + 0x00000080u) },	/* TD
 326:.\Generated_Source\PSoC5/cyfitter_cfg.c **** 	};
 327:.\Generated_Source\PSoC5/cyfitter_cfg.c **** 
 328:.\Generated_Source\PSoC5/cyfitter_cfg.c **** 	/* Source addresses can be relocated, but only when in 32bit addresses.
 329:.\Generated_Source\PSoC5/cyfitter_cfg.c **** 	   Because the standard TD table only has 16bit addresses, we generate a
 330:.\Generated_Source\PSoC5/cyfitter_cfg.c **** 	   separate table for the source addresses that does use 32bit addresses. This
 331:.\Generated_Source\PSoC5/cyfitter_cfg.c **** 	   table will be re-merged with the corresponding CFG_TD_LIST table during
 332:.\Generated_Source\PSoC5/cyfitter_cfg.c **** 	   initialization. */
 333:.\Generated_Source\PSoC5/cyfitter_cfg.c **** 	static const void * const CFG_TD_ADDR0[] = {
 334:.\Generated_Source\PSoC5/cyfitter_cfg.c **** 		(const void *)(CH1_ADDR_DATA0),	/* TD 1 */
 335:.\Generated_Source\PSoC5/cyfitter_cfg.c **** 		(const void *)(CH2_ADDR_DATA0),	/* TD 2 */
 336:.\Generated_Source\PSoC5/cyfitter_cfg.c **** 		(const void *)(CH5_ADDR_DATA0),	/* TD 3 */
 337:.\Generated_Source\PSoC5/cyfitter_cfg.c **** 		(const void *)(CH6_ADDR_DATA0),	/* TD 4 */
 338:.\Generated_Source\PSoC5/cyfitter_cfg.c **** 		(const void *)(DMA_TD_START_CMD),	/* TD 5 */
 339:.\Generated_Source\PSoC5/cyfitter_cfg.c **** 		(const void *)(DMA_TD_START_CMD),	/* TD 6 */
ARM GAS  C:\Users\jthem\AppData\Local\Temp\ccAl6Vzs.s 			page 10


 340:.\Generated_Source\PSoC5/cyfitter_cfg.c **** 		(const void *)(DMA_TD_START_CMD),	/* TD 7 */
 341:.\Generated_Source\PSoC5/cyfitter_cfg.c **** 		(const void *)(DMA_TD_START_CMD),	/* TD 8 */
 342:.\Generated_Source\PSoC5/cyfitter_cfg.c **** 		(const void *)(&DMA_ZERO_VAL),	/* TD 9 */
 343:.\Generated_Source\PSoC5/cyfitter_cfg.c **** 		(const void *)(&DMA_ZERO_VAL),	/* TD 10 */
 344:.\Generated_Source\PSoC5/cyfitter_cfg.c **** 		(const void *)(&DMA_ZERO_VAL),	/* TD 11 */
 345:.\Generated_Source\PSoC5/cyfitter_cfg.c **** 		(const void *)(&DMA_ZERO_VAL),	/* TD 12 */
 346:.\Generated_Source\PSoC5/cyfitter_cfg.c **** 		(const void *)(&DMA_ZERO_VAL),	/* TD 13 */
 347:.\Generated_Source\PSoC5/cyfitter_cfg.c **** 		(const void *)(&DMA_ZERO_VAL),	/* TD 14 */
 348:.\Generated_Source\PSoC5/cyfitter_cfg.c **** 		(const void *)(&DMA_ZERO_VAL),	/* TD 15 */
 349:.\Generated_Source\PSoC5/cyfitter_cfg.c **** 		(const void *)(&DMA_ZERO_VAL),	/* TD 16 */
 350:.\Generated_Source\PSoC5/cyfitter_cfg.c **** 		(const void *)(&DMA_ZERO_VAL),	/* TD 17 */
 351:.\Generated_Source\PSoC5/cyfitter_cfg.c **** 		(const void *)(&DMA_ZERO_VAL),	/* TD 18 */
 352:.\Generated_Source\PSoC5/cyfitter_cfg.c **** 		(const void *)(&DMA_ZERO_VAL),	/* TD 19 */
 353:.\Generated_Source\PSoC5/cyfitter_cfg.c **** 		(const void *)(&DMA_ZERO_VAL),	/* TD 20 */
 354:.\Generated_Source\PSoC5/cyfitter_cfg.c **** 		(const void *)(&DMA_ZERO_VAL),	/* TD 21 */
 355:.\Generated_Source\PSoC5/cyfitter_cfg.c **** 		(const void *)(&DMA_ZERO_VAL),	/* TD 22 */
 356:.\Generated_Source\PSoC5/cyfitter_cfg.c **** 		(const void *)(&DMA_ZERO_VAL),	/* TD 23 */
 357:.\Generated_Source\PSoC5/cyfitter_cfg.c **** 		(const void *)(&DMA_ZERO_VAL),	/* TD 24 */
 358:.\Generated_Source\PSoC5/cyfitter_cfg.c **** 		(const void *)(&DMA_ZERO_VAL),	/* TD 25 */
 359:.\Generated_Source\PSoC5/cyfitter_cfg.c **** 		(const void *)(BS_IOPORT_5_VAL),	/* TD 26 */
 360:.\Generated_Source\PSoC5/cyfitter_cfg.c **** 		(const void *)(BS_UWRK_B1_WRK_STATCTL_BITS_VAL),	/* TD 27 */
 361:.\Generated_Source\PSoC5/cyfitter_cfg.c **** 		(const void *)(BS_UDB_0_1_0_CONFIG_VAL),	/* TD 28 */
 362:.\Generated_Source\PSoC5/cyfitter_cfg.c **** 		(const void *)(BS_UDB_0_0_0_CONFIG_VAL),	/* TD 29 */
 363:.\Generated_Source\PSoC5/cyfitter_cfg.c **** 		(const void *)(BS_UDB_0_0_1_CONFIG_VAL),	/* TD 30 */
 364:.\Generated_Source\PSoC5/cyfitter_cfg.c **** 		(const void *)(BS_UCFG_BCTL1_VAL),	/* TD 31 */
 365:.\Generated_Source\PSoC5/cyfitter_cfg.c **** 		(const void *)(BS_DSISWITCH_0_0_VAL),	/* TD 32 */
 366:.\Generated_Source\PSoC5/cyfitter_cfg.c **** 		(const void *)(BS_DSI0_0_HV_ROUTING_VAL),	/* TD 33 */
 367:.\Generated_Source\PSoC5/cyfitter_cfg.c **** 		(const void *)(BS_DSI0_1_HV_ROUTING_VAL),	/* TD 34 */
 368:.\Generated_Source\PSoC5/cyfitter_cfg.c **** 		(const void *)(BS_UDBSWITCH_0_0_VAL),	/* TD 35 */
 369:.\Generated_Source\PSoC5/cyfitter_cfg.c **** 		(const void *)(BS_UDB_1_0_HV_ROUTING_VAL),	/* TD 36 */
 370:.\Generated_Source\PSoC5/cyfitter_cfg.c **** 		(const void *)(BS_UDB_2_0_HV_ROUTING_VAL),	/* TD 37 */
 371:.\Generated_Source\PSoC5/cyfitter_cfg.c **** 		(const void *)(BS_UDBSWITCH_0_1_VAL),	/* TD 38 */
 372:.\Generated_Source\PSoC5/cyfitter_cfg.c **** 		(const void *)(BS_UDB_1_1_HV_ROUTING_VAL),	/* TD 39 */
 373:.\Generated_Source\PSoC5/cyfitter_cfg.c **** 		(const void *)(BS_UDB_2_1_HV_ROUTING_VAL),	/* TD 40 */
 374:.\Generated_Source\PSoC5/cyfitter_cfg.c **** 		(const void *)(BS_DSI3_0_HV_ROUTING_VAL),	/* TD 41 */
 375:.\Generated_Source\PSoC5/cyfitter_cfg.c **** 		(const void *)(BS_DSI3_1_HV_ROUTING_VAL),	/* TD 42 */
 376:.\Generated_Source\PSoC5/cyfitter_cfg.c **** 		(const void *)(BS_DSI3_2_HV_ROUTING_VAL),	/* TD 43 */
 377:.\Generated_Source\PSoC5/cyfitter_cfg.c **** 		(const void *)(BS_DSI3_3_HV_ROUTING_VAL),	/* TD 44 */
 378:.\Generated_Source\PSoC5/cyfitter_cfg.c **** 		(const void *)(BS_DSI3_4_HV_ROUTING_VAL),	/* TD 45 */
 379:.\Generated_Source\PSoC5/cyfitter_cfg.c **** 		(const void *)(BS_DSISWITCH_1_5_VAL),	/* TD 46 */
 380:.\Generated_Source\PSoC5/cyfitter_cfg.c **** 		(const void *)(BS_DSI3_5_HV_ROUTING_VAL),	/* TD 47 */
 381:.\Generated_Source\PSoC5/cyfitter_cfg.c **** 	};
 382:.\Generated_Source\PSoC5/cyfitter_cfg.c **** 
 383:.\Generated_Source\PSoC5/cyfitter_cfg.c **** 
 384:.\Generated_Source\PSoC5/cyfitter_cfg.c **** 	uint32 i;
 385:.\Generated_Source\PSoC5/cyfitter_cfg.c **** 
 386:.\Generated_Source\PSoC5/cyfitter_cfg.c **** 	DMA_ZERO_VAL = 0u;
 175              		.loc 1 386 0
 176 0006 454B     		ldr	r3, .L15
 177 0008 0022     		movs	r2, #0
 178 000a 1A60     		str	r2, [r3]
 387:.\Generated_Source\PSoC5/cyfitter_cfg.c **** 	CY_SET_REG8((void CYXDATA *)CYREG_PHUB_CFGMEM0_CFG0, 0x10u);	/* set burstcnt */
 179              		.loc 1 387 0
 180 000c 444B     		ldr	r3, .L15+4
 181 000e 1022     		movs	r2, #16
 182 0010 1A70     		strb	r2, [r3]
 388:.\Generated_Source\PSoC5/cyfitter_cfg.c **** 	CY_SET_REG8((void CYXDATA *)CYREG_PHUB_CH0_BASIC_CFG, 0x01u);	/* enable ch0 */
ARM GAS  C:\Users\jthem\AppData\Local\Temp\ccAl6Vzs.s 			page 11


 183              		.loc 1 388 0
 184 0012 444B     		ldr	r3, .L15+8
 185 0014 0122     		movs	r2, #1
 186 0016 1A70     		strb	r2, [r3]
 389:.\Generated_Source\PSoC5/cyfitter_cfg.c **** 	CY_SET_REG8((void CYXDATA *)(CYREG_PHUB_CH0_BASIC_STATUS+1u), 0x00u);	/* set first TD to 0 */
 187              		.loc 1 389 0
 188 0018 434B     		ldr	r3, .L15+12
 189 001a 0022     		movs	r2, #0
 190 001c 1A70     		strb	r2, [r3]
 390:.\Generated_Source\PSoC5/cyfitter_cfg.c **** 	CY_SET_REG16((void CYXDATA *)CYREG_PHUB_TDMEM0_ORIG_TD0, 47u*8u);	/* transfer size */
 191              		.loc 1 390 0
 192 001e 434B     		ldr	r3, .L15+16
 193 0020 4FF4BC72 		mov	r2, #376
 194 0024 1A80     		strh	r2, [r3]	@ movhi
 391:.\Generated_Source\PSoC5/cyfitter_cfg.c **** 	CY_SET_REG8((void CYXDATA *)(CYREG_PHUB_TDMEM0_ORIG_TD0+2u), 0x01u);	/* set next TD to 1 */
 195              		.loc 1 391 0
 196 0026 424B     		ldr	r3, .L15+20
 197 0028 0122     		movs	r2, #1
 198 002a 1A70     		strb	r2, [r3]
 392:.\Generated_Source\PSoC5/cyfitter_cfg.c **** 	CY_SET_REG8((void CYXDATA *)(CYREG_PHUB_TDMEM0_ORIG_TD0+3u), 0x03u);	/* set TD flags */
 199              		.loc 1 392 0
 200 002c 414B     		ldr	r3, .L15+24
 201 002e 0322     		movs	r2, #3
 202 0030 1A70     		strb	r2, [r3]
 393:.\Generated_Source\PSoC5/cyfitter_cfg.c **** 	CY_SET_REG16((void CYXDATA *)CYREG_PHUB_TDMEM0_ORIG_TD1, (uint16)((uint32)CFG_TD_LIST0 & 0x0000FFF
 203              		.loc 1 393 0
 204 0032 414B     		ldr	r3, .L15+28
 205 0034 414A     		ldr	r2, .L15+32
 206 0036 92B2     		uxth	r2, r2
 207 0038 1A80     		strh	r2, [r3]	@ movhi
 394:.\Generated_Source\PSoC5/cyfitter_cfg.c **** 	CY_SET_REG16((void CYXDATA *)(CYREG_PHUB_TDMEM0_ORIG_TD1+2u), CYDEV_PHUB_TDMEM1_BASE);	/* set td0'
 208              		.loc 1 394 0
 209 003a 414B     		ldr	r3, .L15+36
 210 003c 47F60802 		movw	r2, #30728
 211 0040 1A80     		strh	r2, [r3]	@ movhi
 395:.\Generated_Source\PSoC5/cyfitter_cfg.c **** 	CY_SET_REG16((void CYXDATA *)CYREG_PHUB_CFGMEM0_CFG1, (uint16)(CYDEV_FLASH_BASE >> 16));	/* set ch
 212              		.loc 1 395 0
 213 0042 404B     		ldr	r3, .L15+40
 214 0044 0022     		movs	r2, #0
 215 0046 1A80     		strh	r2, [r3]	@ movhi
 396:.\Generated_Source\PSoC5/cyfitter_cfg.c **** 	CY_SET_REG16((void CYXDATA *)(CYREG_PHUB_CFGMEM0_CFG1+2u), (uint16)(CYDEV_PHUB_TDMEM1_BASE >> 16))
 216              		.loc 1 396 0
 217 0048 3F4B     		ldr	r3, .L15+44
 218 004a 4FF48042 		mov	r2, #16384
 219 004e 1A80     		strh	r2, [r3]	@ movhi
 397:.\Generated_Source\PSoC5/cyfitter_cfg.c **** 	CY_SET_REG8((void CYXDATA *)(CYREG_PHUB_CH1_BASIC_STATUS+1u), 0x09u);	/* ch1 first TD: 9 */
 220              		.loc 1 397 0
 221 0050 3E4B     		ldr	r3, .L15+48
 222 0052 0922     		movs	r2, #9
 223 0054 1A70     		strb	r2, [r3]
 398:.\Generated_Source\PSoC5/cyfitter_cfg.c **** 	CY_SET_REG8((void CYXDATA *)(CYREG_PHUB_CH2_BASIC_STATUS+1u), 0x0Eu);	/* ch2 first TD: 14 */
 224              		.loc 1 398 0
 225 0056 3E4B     		ldr	r3, .L15+52
 226 0058 0E22     		movs	r2, #14
 227 005a 1A70     		strb	r2, [r3]
 399:.\Generated_Source\PSoC5/cyfitter_cfg.c **** 	CY_SET_REG8((void CYXDATA *)(CYREG_PHUB_CH5_BASIC_STATUS+1u), 0x1Au);	/* ch5 first TD: 26 */
 228              		.loc 1 399 0
ARM GAS  C:\Users\jthem\AppData\Local\Temp\ccAl6Vzs.s 			page 12


 229 005c 3D4B     		ldr	r3, .L15+56
 230 005e 1A22     		movs	r2, #26
 231 0060 1A70     		strb	r2, [r3]
 400:.\Generated_Source\PSoC5/cyfitter_cfg.c **** 	CY_SET_REG8((void CYXDATA *)(CYREG_PHUB_CH6_BASIC_STATUS+1u), 0x1Cu);	/* ch6 first TD: 28 */
 232              		.loc 1 400 0
 233 0062 3D4B     		ldr	r3, .L15+60
 234 0064 1C22     		movs	r2, #28
 235 0066 1A70     		strb	r2, [r3]
 401:.\Generated_Source\PSoC5/cyfitter_cfg.c **** 
 402:.\Generated_Source\PSoC5/cyfitter_cfg.c **** 	CY_CFG_MEMORY_BARRIER();
 236              		.loc 1 402 0
 237 0068 BFF35F8F 		dmb	sy
 403:.\Generated_Source\PSoC5/cyfitter_cfg.c **** 	CY_SET_REG8((void CYXDATA *)CYREG_PHUB_CH0_ACTION, 0x01u); /* cpu_req */
 238              		.loc 1 403 0
 239 006c 3B4B     		ldr	r3, .L15+64
 240 006e 0122     		movs	r2, #1
 241 0070 1A70     		strb	r2, [r3]
 404:.\Generated_Source\PSoC5/cyfitter_cfg.c **** 	CY_CFG_MEMORY_BARRIER();
 242              		.loc 1 404 0
 243 0072 BFF35F8F 		dmb	sy
 405:.\Generated_Source\PSoC5/cyfitter_cfg.c **** 
 406:.\Generated_Source\PSoC5/cyfitter_cfg.c **** 	/* Wait for TDs to be copied into TDMEM */
 407:.\Generated_Source\PSoC5/cyfitter_cfg.c **** 	while (CY_GET_REG16((void CYXDATA *)CYREG_PHUB_TDMEM0_ORIG_TD0) != 0u) { }
 244              		.loc 1 407 0
 245 0076 00BF     		nop
 246              	.L7:
 247              		.loc 1 407 0 is_stmt 0 discriminator 1
 248 0078 2C4B     		ldr	r3, .L15+16
 249 007a 1B88     		ldrh	r3, [r3]	@ movhi
 250 007c 9BB2     		uxth	r3, r3
 251 007e 002B     		cmp	r3, #0
 252 0080 FAD1     		bne	.L7
 408:.\Generated_Source\PSoC5/cyfitter_cfg.c **** 
 409:.\Generated_Source\PSoC5/cyfitter_cfg.c **** 	/* Recombine TD source table (CFG_TD_ADDR0) with full TD table (CFG_TD_LIST0) */
 410:.\Generated_Source\PSoC5/cyfitter_cfg.c **** 	for (i = 0u; i < 47u; i++)
 253              		.loc 1 410 0 is_stmt 1
 254 0082 0023     		movs	r3, #0
 255 0084 7B60     		str	r3, [r7, #4]
 256 0086 0DE0     		b	.L8
 257              	.L9:
 411:.\Generated_Source\PSoC5/cyfitter_cfg.c **** 	{
 412:.\Generated_Source\PSoC5/cyfitter_cfg.c **** 		CY_SET_REG16((void CYXDATA *)(CYREG_PHUB_TDMEM1_ORIG_TD1 + (sizeof(struct td_t)*i)), (uint16)(uin
 258              		.loc 1 412 0 discriminator 3
 259 0088 7B68     		ldr	r3, [r7, #4]
 260 008a DA00     		lsls	r2, r3, #3
 261 008c 344B     		ldr	r3, .L15+68
 262 008e 1344     		add	r3, r3, r2
 263 0090 1946     		mov	r1, r3
 264 0092 344A     		ldr	r2, .L15+72
 265 0094 7B68     		ldr	r3, [r7, #4]
 266 0096 52F82330 		ldr	r3, [r2, r3, lsl #2]
 267 009a 9BB2     		uxth	r3, r3
 268 009c 0B80     		strh	r3, [r1]	@ movhi
 410:.\Generated_Source\PSoC5/cyfitter_cfg.c **** 	{
 269              		.loc 1 410 0 discriminator 3
 270 009e 7B68     		ldr	r3, [r7, #4]
 271 00a0 0133     		adds	r3, r3, #1
ARM GAS  C:\Users\jthem\AppData\Local\Temp\ccAl6Vzs.s 			page 13


 272 00a2 7B60     		str	r3, [r7, #4]
 273              	.L8:
 410:.\Generated_Source\PSoC5/cyfitter_cfg.c **** 	{
 274              		.loc 1 410 0 is_stmt 0 discriminator 1
 275 00a4 7B68     		ldr	r3, [r7, #4]
 276 00a6 2E2B     		cmp	r3, #46
 277 00a8 EED9     		bls	.L9
 413:.\Generated_Source\PSoC5/cyfitter_cfg.c **** 	}
 414:.\Generated_Source\PSoC5/cyfitter_cfg.c **** 
 415:.\Generated_Source\PSoC5/cyfitter_cfg.c **** 	CY_CFG_MEMORY_BARRIER();
 278              		.loc 1 415 0 is_stmt 1
 279 00aa BFF35F8F 		dmb	sy
 416:.\Generated_Source\PSoC5/cyfitter_cfg.c **** 	CY_SET_REG8((void CYXDATA *)CYREG_PHUB_CH0_ACTION, 0x01u); /* cpu_req */
 280              		.loc 1 416 0
 281 00ae 2B4B     		ldr	r3, .L15+64
 282 00b0 0122     		movs	r2, #1
 283 00b2 1A70     		strb	r2, [r3]
 417:.\Generated_Source\PSoC5/cyfitter_cfg.c **** 	CY_CFG_MEMORY_BARRIER();
 284              		.loc 1 417 0
 285 00b4 BFF35F8F 		dmb	sy
 418:.\Generated_Source\PSoC5/cyfitter_cfg.c **** 
 419:.\Generated_Source\PSoC5/cyfitter_cfg.c **** 	/* Wait for all DMA transfers to complete */
 420:.\Generated_Source\PSoC5/cyfitter_cfg.c **** 	while(0u != (CY_GET_REG8((void CYXDATA *)CYREG_PHUB_CH0_BASIC_STATUS) & 0x01u)){}
 286              		.loc 1 420 0
 287 00b8 00BF     		nop
 288              	.L10:
 289              		.loc 1 420 0 is_stmt 0 discriminator 1
 290 00ba 2B4B     		ldr	r3, .L15+76
 291 00bc 1B78     		ldrb	r3, [r3]
 292 00be DBB2     		uxtb	r3, r3
 293 00c0 03F00103 		and	r3, r3, #1
 294 00c4 002B     		cmp	r3, #0
 295 00c6 F8D1     		bne	.L10
 421:.\Generated_Source\PSoC5/cyfitter_cfg.c **** 	while(0u != (CY_GET_REG8((void CYXDATA *)CYREG_PHUB_CH1_BASIC_STATUS) & 0x01u)){}
 296              		.loc 1 421 0 is_stmt 1
 297 00c8 00BF     		nop
 298              	.L11:
 299              		.loc 1 421 0 is_stmt 0 discriminator 1
 300 00ca 284B     		ldr	r3, .L15+80
 301 00cc 1B78     		ldrb	r3, [r3]
 302 00ce DBB2     		uxtb	r3, r3
 303 00d0 03F00103 		and	r3, r3, #1
 304 00d4 002B     		cmp	r3, #0
 305 00d6 F8D1     		bne	.L11
 422:.\Generated_Source\PSoC5/cyfitter_cfg.c **** 	while(0u != (CY_GET_REG8((void CYXDATA *)CYREG_PHUB_CH2_BASIC_STATUS) & 0x01u)){}
 306              		.loc 1 422 0 is_stmt 1
 307 00d8 00BF     		nop
 308              	.L12:
 309              		.loc 1 422 0 is_stmt 0 discriminator 1
 310 00da 254B     		ldr	r3, .L15+84
 311 00dc 1B78     		ldrb	r3, [r3]
 312 00de DBB2     		uxtb	r3, r3
 313 00e0 03F00103 		and	r3, r3, #1
 314 00e4 002B     		cmp	r3, #0
 315 00e6 F8D1     		bne	.L12
 423:.\Generated_Source\PSoC5/cyfitter_cfg.c **** 	while(0u != (CY_GET_REG8((void CYXDATA *)CYREG_PHUB_CH5_BASIC_STATUS) & 0x01u)){}
 316              		.loc 1 423 0 is_stmt 1
ARM GAS  C:\Users\jthem\AppData\Local\Temp\ccAl6Vzs.s 			page 14


 317 00e8 00BF     		nop
 318              	.L13:
 319              		.loc 1 423 0 is_stmt 0 discriminator 1
 320 00ea 224B     		ldr	r3, .L15+88
 321 00ec 1B78     		ldrb	r3, [r3]
 322 00ee DBB2     		uxtb	r3, r3
 323 00f0 03F00103 		and	r3, r3, #1
 324 00f4 002B     		cmp	r3, #0
 325 00f6 F8D1     		bne	.L13
 424:.\Generated_Source\PSoC5/cyfitter_cfg.c **** 	while(0u != (CY_GET_REG8((void CYXDATA *)CYREG_PHUB_CH6_BASIC_STATUS) & 0x01u)){}
 326              		.loc 1 424 0 is_stmt 1
 327 00f8 00BF     		nop
 328              	.L14:
 329              		.loc 1 424 0 is_stmt 0 discriminator 1
 330 00fa 1F4B     		ldr	r3, .L15+92
 331 00fc 1B78     		ldrb	r3, [r3]
 332 00fe DBB2     		uxtb	r3, r3
 333 0100 03F00103 		and	r3, r3, #1
 334 0104 002B     		cmp	r3, #0
 335 0106 F8D1     		bne	.L14
 425:.\Generated_Source\PSoC5/cyfitter_cfg.c **** 
 426:.\Generated_Source\PSoC5/cyfitter_cfg.c **** 
 427:.\Generated_Source\PSoC5/cyfitter_cfg.c **** 	CYCONFIGCPY((void CYFAR *)(CYREG_IDMUX_DRQ_CTL0), (const void CYFAR *)(BS_IDMUX_VAL), 6u);
 336              		.loc 1 427 0 is_stmt 1
 337 0108 1C48     		ldr	r0, .L15+96
 338 010a 4FF09041 		mov	r1, #1207959552
 339 010e 0622     		movs	r2, #6
 340 0110 FFF7FEFF 		bl	CYCONFIGCPY
 428:.\Generated_Source\PSoC5/cyfitter_cfg.c **** 
 429:.\Generated_Source\PSoC5/cyfitter_cfg.c **** }
 341              		.loc 1 429 0
 342 0114 0837     		adds	r7, r7, #8
 343              		.cfi_def_cfa_offset 8
 344 0116 BD46     		mov	sp, r7
 345              		.cfi_def_cfa_register 13
 346              		@ sp needed
 347 0118 80BD     		pop	{r7, pc}
 348              	.L16:
 349 011a 00BF     		.align	2
 350              	.L15:
 351 011c 00000000 		.word	DMA_ZERO_VAL.4848
 352 0120 00760040 		.word	1073772032
 353 0124 10700040 		.word	1073770512
 354 0128 19700040 		.word	1073770521
 355 012c 00780040 		.word	1073772544
 356 0130 02780040 		.word	1073772546
 357 0134 03780040 		.word	1073772547
 358 0138 04780040 		.word	1073772548
 359 013c 00000000 		.word	CFG_TD_LIST0.4849
 360 0140 06780040 		.word	1073772550
 361 0144 04760040 		.word	1073772036
 362 0148 06760040 		.word	1073772038
 363 014c 29700040 		.word	1073770537
 364 0150 39700040 		.word	1073770553
 365 0154 69700040 		.word	1073770601
 366 0158 79700040 		.word	1073770617
 367 015c 14700040 		.word	1073770516
ARM GAS  C:\Users\jthem\AppData\Local\Temp\ccAl6Vzs.s 			page 15


 368 0160 0C780040 		.word	1073772556
 369 0164 00000000 		.word	CFG_TD_ADDR0.4850
 370 0168 18700040 		.word	1073770520
 371 016c 28700040 		.word	1073770536
 372 0170 38700040 		.word	1073770552
 373 0174 68700040 		.word	1073770600
 374 0178 78700040 		.word	1073770616
 375 017c 10510140 		.word	1073828112
 376              		.cfi_endproc
 377              	.LFE4:
 378              		.size	cfg_dma_init, .-cfg_dma_init
 379              		.section	.text.ClockSetup,"ax",%progbits
 380              		.align	2
 381              		.thumb
 382              		.thumb_func
 383              		.type	ClockSetup, %function
 384              	ClockSetup:
 385              	.LFB5:
 430:.\Generated_Source\PSoC5/cyfitter_cfg.c **** /*******************************************************************************
 431:.\Generated_Source\PSoC5/cyfitter_cfg.c **** * Function Name: ClockSetup
 432:.\Generated_Source\PSoC5/cyfitter_cfg.c **** ********************************************************************************
 433:.\Generated_Source\PSoC5/cyfitter_cfg.c **** *
 434:.\Generated_Source\PSoC5/cyfitter_cfg.c **** * Summary:
 435:.\Generated_Source\PSoC5/cyfitter_cfg.c **** *  Performs the initialization of all of the clocks in the device based on the
 436:.\Generated_Source\PSoC5/cyfitter_cfg.c **** *  settings in the Clock tab of the DWR.  This includes enabling the requested
 437:.\Generated_Source\PSoC5/cyfitter_cfg.c **** *  clocks and setting the necessary dividers to produce the desired frequency. 
 438:.\Generated_Source\PSoC5/cyfitter_cfg.c **** *
 439:.\Generated_Source\PSoC5/cyfitter_cfg.c **** * Parameters:
 440:.\Generated_Source\PSoC5/cyfitter_cfg.c **** *  void
 441:.\Generated_Source\PSoC5/cyfitter_cfg.c **** *
 442:.\Generated_Source\PSoC5/cyfitter_cfg.c **** * Return:
 443:.\Generated_Source\PSoC5/cyfitter_cfg.c **** *  void
 444:.\Generated_Source\PSoC5/cyfitter_cfg.c **** *
 445:.\Generated_Source\PSoC5/cyfitter_cfg.c **** *******************************************************************************/
 446:.\Generated_Source\PSoC5/cyfitter_cfg.c **** static void ClockSetup(void);
 447:.\Generated_Source\PSoC5/cyfitter_cfg.c **** static void ClockSetup(void)
 448:.\Generated_Source\PSoC5/cyfitter_cfg.c **** {
 386              		.loc 1 448 0
 387              		.cfi_startproc
 388              		@ args = 0, pretend = 0, frame = 8
 389              		@ frame_needed = 1, uses_anonymous_args = 0
 390 0000 80B5     		push	{r7, lr}
 391              		.cfi_def_cfa_offset 8
 392              		.cfi_offset 7, -8
 393              		.cfi_offset 14, -4
 394 0002 82B0     		sub	sp, sp, #8
 395              		.cfi_def_cfa_offset 16
 396 0004 00AF     		add	r7, sp, #0
 397              		.cfi_def_cfa_register 7
 449:.\Generated_Source\PSoC5/cyfitter_cfg.c **** 	uint32 timeout;
 450:.\Generated_Source\PSoC5/cyfitter_cfg.c **** 	uint8 pllLock;
 451:.\Generated_Source\PSoC5/cyfitter_cfg.c **** 
 452:.\Generated_Source\PSoC5/cyfitter_cfg.c **** 
 453:.\Generated_Source\PSoC5/cyfitter_cfg.c **** 	/* Configure Digital Clocks based on settings from Clock DWR */
 454:.\Generated_Source\PSoC5/cyfitter_cfg.c **** 	CY_SET_XTND_REG16((void CYFAR *)(CYREG_CLKDIST_DCFG0_CFG0), 0x000Bu);
 398              		.loc 1 454 0
 399 0006 2F4B     		ldr	r3, .L22
ARM GAS  C:\Users\jthem\AppData\Local\Temp\ccAl6Vzs.s 			page 16


 400 0008 0B22     		movs	r2, #11
 401 000a 1A80     		strh	r2, [r3]	@ movhi
 455:.\Generated_Source\PSoC5/cyfitter_cfg.c **** 	CY_SET_XTND_REG8((void CYFAR *)(CYREG_CLKDIST_DCFG0_CFG0 + 0x2u), 0x18u);
 402              		.loc 1 455 0
 403 000c 2E4B     		ldr	r3, .L22+4
 404 000e 1822     		movs	r2, #24
 405 0010 1A70     		strb	r2, [r3]
 456:.\Generated_Source\PSoC5/cyfitter_cfg.c **** 
 457:.\Generated_Source\PSoC5/cyfitter_cfg.c **** 	/* Configure ILO based on settings from Clock DWR */
 458:.\Generated_Source\PSoC5/cyfitter_cfg.c **** 	CY_SET_XTND_REG8((void CYFAR *)(CYREG_SLOWCLK_ILO_CR0), 0x02u);
 406              		.loc 1 458 0
 407 0012 2E4B     		ldr	r3, .L22+8
 408 0014 0222     		movs	r2, #2
 409 0016 1A70     		strb	r2, [r3]
 459:.\Generated_Source\PSoC5/cyfitter_cfg.c **** 	CY_SET_XTND_REG8((void CYFAR *)(CYREG_CLKDIST_CR), 0x08u);
 410              		.loc 1 459 0
 411 0018 4FF04023 		mov	r3, #1073758208
 412 001c 0822     		movs	r2, #8
 413 001e 1A70     		strb	r2, [r3]
 460:.\Generated_Source\PSoC5/cyfitter_cfg.c **** 
 461:.\Generated_Source\PSoC5/cyfitter_cfg.c **** 	/* Configure IMO based on settings from Clock DWR */
 462:.\Generated_Source\PSoC5/cyfitter_cfg.c **** 	CY_SET_XTND_REG8((void CYFAR *)(CYREG_FASTCLK_IMO_CR), 0x03u);
 414              		.loc 1 462 0
 415 0020 2B4B     		ldr	r3, .L22+12
 416 0022 0322     		movs	r2, #3
 417 0024 1A70     		strb	r2, [r3]
 463:.\Generated_Source\PSoC5/cyfitter_cfg.c **** 	CY_SET_XTND_REG8((void CYFAR *)(CYREG_IMO_TR1), (CY_GET_XTND_REG8((void CYFAR *)CYREG_FLSHID_CUST_
 418              		.loc 1 463 0
 419 0026 2B4B     		ldr	r3, .L22+16
 420 0028 2B4A     		ldr	r2, .L22+20
 421 002a 1278     		ldrb	r2, [r2]
 422 002c D2B2     		uxtb	r2, r2
 423 002e 1A70     		strb	r2, [r3]
 464:.\Generated_Source\PSoC5/cyfitter_cfg.c **** 
 465:.\Generated_Source\PSoC5/cyfitter_cfg.c **** 	/* Configure PLL based on settings from Clock DWR */
 466:.\Generated_Source\PSoC5/cyfitter_cfg.c **** 	CY_SET_XTND_REG16((void CYFAR *)(CYREG_FASTCLK_PLL_P), 0x0008u);
 424              		.loc 1 466 0
 425 0030 2A4B     		ldr	r3, .L22+24
 426 0032 0822     		movs	r2, #8
 427 0034 1A80     		strh	r2, [r3]	@ movhi
 467:.\Generated_Source\PSoC5/cyfitter_cfg.c **** 	CY_SET_XTND_REG16((void CYFAR *)(CYREG_FASTCLK_PLL_CFG0), 0x1251u);
 428              		.loc 1 467 0
 429 0036 2A4B     		ldr	r3, .L22+28
 430 0038 41F25122 		movw	r2, #4689
 431 003c 1A80     		strh	r2, [r3]	@ movhi
 468:.\Generated_Source\PSoC5/cyfitter_cfg.c **** 	/* Wait up to 250us for the PLL to lock */
 469:.\Generated_Source\PSoC5/cyfitter_cfg.c **** 	pllLock = 0u;
 432              		.loc 1 469 0
 433 003e 0023     		movs	r3, #0
 434 0040 FB70     		strb	r3, [r7, #3]
 470:.\Generated_Source\PSoC5/cyfitter_cfg.c **** 	for (timeout = 250u / 10u; (timeout > 0u) && (pllLock != 0x03u); timeout--)
 435              		.loc 1 470 0
 436 0042 1923     		movs	r3, #25
 437 0044 7B60     		str	r3, [r7, #4]
 438 0046 13E0     		b	.L18
 439              	.L20:
 471:.\Generated_Source\PSoC5/cyfitter_cfg.c **** 	{ 
ARM GAS  C:\Users\jthem\AppData\Local\Temp\ccAl6Vzs.s 			page 17


 472:.\Generated_Source\PSoC5/cyfitter_cfg.c **** 		pllLock = 0x03u & ((uint8)((uint8)pllLock << 1) | ((CY_GET_XTND_REG8((void CYFAR *)CYREG_FASTCLK_
 440              		.loc 1 472 0 discriminator 4
 441 0048 FB78     		ldrb	r3, [r7, #3]
 442 004a 5B00     		lsls	r3, r3, #1
 443 004c DAB2     		uxtb	r2, r3
 444 004e 254B     		ldr	r3, .L22+32
 445 0050 1B78     		ldrb	r3, [r3]
 446 0052 DBB2     		uxtb	r3, r3
 447 0054 03F00103 		and	r3, r3, #1
 448 0058 DBB2     		uxtb	r3, r3
 449 005a 1343     		orrs	r3, r3, r2
 450 005c DBB2     		uxtb	r3, r3
 451 005e 03F00303 		and	r3, r3, #3
 452 0062 FB70     		strb	r3, [r7, #3]
 473:.\Generated_Source\PSoC5/cyfitter_cfg.c **** 		CyDelayCycles(10u * 12u); /* Delay 10us based on 12MHz clock */
 453              		.loc 1 473 0 discriminator 4
 454 0064 7820     		movs	r0, #120
 455 0066 FFF7FEFF 		bl	CyDelayCycles
 470:.\Generated_Source\PSoC5/cyfitter_cfg.c **** 	for (timeout = 250u / 10u; (timeout > 0u) && (pllLock != 0x03u); timeout--)
 456              		.loc 1 470 0 discriminator 4
 457 006a 7B68     		ldr	r3, [r7, #4]
 458 006c 013B     		subs	r3, r3, #1
 459 006e 7B60     		str	r3, [r7, #4]
 460              	.L18:
 470:.\Generated_Source\PSoC5/cyfitter_cfg.c **** 	for (timeout = 250u / 10u; (timeout > 0u) && (pllLock != 0x03u); timeout--)
 461              		.loc 1 470 0 is_stmt 0 discriminator 1
 462 0070 7B68     		ldr	r3, [r7, #4]
 463 0072 002B     		cmp	r3, #0
 464 0074 02D0     		beq	.L19
 470:.\Generated_Source\PSoC5/cyfitter_cfg.c **** 	for (timeout = 250u / 10u; (timeout > 0u) && (pllLock != 0x03u); timeout--)
 465              		.loc 1 470 0 discriminator 3
 466 0076 FB78     		ldrb	r3, [r7, #3]	@ zero_extendqisi2
 467 0078 032B     		cmp	r3, #3
 468 007a E5D1     		bne	.L20
 469              	.L19:
 474:.\Generated_Source\PSoC5/cyfitter_cfg.c **** 	}
 475:.\Generated_Source\PSoC5/cyfitter_cfg.c **** 	/* If we ran out of time the PLL didn't lock so go to the error function */
 476:.\Generated_Source\PSoC5/cyfitter_cfg.c **** 	if (timeout == 0u)
 470              		.loc 1 476 0 is_stmt 1
 471 007c 7B68     		ldr	r3, [r7, #4]
 472 007e 002B     		cmp	r3, #0
 473 0080 02D1     		bne	.L21
 477:.\Generated_Source\PSoC5/cyfitter_cfg.c **** 	{
 478:.\Generated_Source\PSoC5/cyfitter_cfg.c **** 		CyClockStartupError(CYCLOCKSTART_PLL_ERROR);
 474              		.loc 1 478 0
 475 0082 0320     		movs	r0, #3
 476 0084 FFF7FEFF 		bl	CyClockStartupError
 477              	.L21:
 479:.\Generated_Source\PSoC5/cyfitter_cfg.c **** 	}
 480:.\Generated_Source\PSoC5/cyfitter_cfg.c **** 
 481:.\Generated_Source\PSoC5/cyfitter_cfg.c **** 	/* Configure Bus/Master Clock based on settings from Clock DWR */
 482:.\Generated_Source\PSoC5/cyfitter_cfg.c **** 	CY_SET_XTND_REG16((void CYFAR *)(CYREG_CLKDIST_MSTR0), 0x0100u);
 478              		.loc 1 482 0
 479 0088 174B     		ldr	r3, .L22+36
 480 008a 4FF48072 		mov	r2, #256
 481 008e 1A80     		strh	r2, [r3]	@ movhi
 483:.\Generated_Source\PSoC5/cyfitter_cfg.c **** 	CY_SET_XTND_REG8((void CYFAR *)(CYREG_CLKDIST_MSTR0), 0x07u);
ARM GAS  C:\Users\jthem\AppData\Local\Temp\ccAl6Vzs.s 			page 18


 482              		.loc 1 483 0
 483 0090 154B     		ldr	r3, .L22+36
 484 0092 0722     		movs	r2, #7
 485 0094 1A70     		strb	r2, [r3]
 484:.\Generated_Source\PSoC5/cyfitter_cfg.c **** 	CY_SET_XTND_REG8((void CYFAR *)(CYREG_CLKDIST_BCFG0), 0x00u);
 486              		.loc 1 484 0
 487 0096 154B     		ldr	r3, .L22+40
 488 0098 0022     		movs	r2, #0
 489 009a 1A70     		strb	r2, [r3]
 485:.\Generated_Source\PSoC5/cyfitter_cfg.c **** 	CY_SET_XTND_REG8((void CYFAR *)(CYREG_CLKDIST_BCFG2), 0x48u);
 490              		.loc 1 485 0
 491 009c 144B     		ldr	r3, .L22+44
 492 009e 4822     		movs	r2, #72
 493 00a0 1A70     		strb	r2, [r3]
 486:.\Generated_Source\PSoC5/cyfitter_cfg.c **** 	CY_SET_XTND_REG8((void CYFAR *)(CYREG_CLKDIST_MSTR0), 0x00u);
 494              		.loc 1 486 0
 495 00a2 114B     		ldr	r3, .L22+36
 496 00a4 0022     		movs	r2, #0
 497 00a6 1A70     		strb	r2, [r3]
 487:.\Generated_Source\PSoC5/cyfitter_cfg.c **** 	CY_SET_XTND_REG8((void CYFAR *)(CYREG_CLKDIST_LD), 0x02u);
 498              		.loc 1 487 0
 499 00a8 124B     		ldr	r3, .L22+48
 500 00aa 0222     		movs	r2, #2
 501 00ac 1A70     		strb	r2, [r3]
 488:.\Generated_Source\PSoC5/cyfitter_cfg.c **** 
 489:.\Generated_Source\PSoC5/cyfitter_cfg.c **** 	CY_SET_XTND_REG8((void CYFAR *)(CYREG_PM_ACT_CFG2), ((CY_GET_XTND_REG8((void CYFAR *)CYREG_PM_ACT_
 502              		.loc 1 489 0
 503 00ae 124A     		ldr	r2, .L22+52
 504 00b0 114B     		ldr	r3, .L22+52
 505 00b2 1B78     		ldrb	r3, [r3]
 506 00b4 DBB2     		uxtb	r3, r3
 507 00b6 43F00103 		orr	r3, r3, #1
 508 00ba DBB2     		uxtb	r3, r3
 509 00bc 1370     		strb	r3, [r2]
 490:.\Generated_Source\PSoC5/cyfitter_cfg.c **** }
 510              		.loc 1 490 0
 511 00be 0837     		adds	r7, r7, #8
 512              		.cfi_def_cfa_offset 8
 513 00c0 BD46     		mov	sp, r7
 514              		.cfi_def_cfa_register 13
 515              		@ sp needed
 516 00c2 80BD     		pop	{r7, pc}
 517              	.L23:
 518              		.align	2
 519              	.L22:
 520 00c4 80400040 		.word	1073758336
 521 00c8 82400040 		.word	1073758338
 522 00cc 00430040 		.word	1073758976
 523 00d0 00420040 		.word	1073758720
 524 00d4 A1460040 		.word	1073759905
 525 00d8 08010049 		.word	1224737032
 526 00dc 22420040 		.word	1073758754
 527 00e0 20420040 		.word	1073758752
 528 00e4 25420040 		.word	1073758757
 529 00e8 04400040 		.word	1073758212
 530 00ec 06400040 		.word	1073758214
 531 00f0 08400040 		.word	1073758216
ARM GAS  C:\Users\jthem\AppData\Local\Temp\ccAl6Vzs.s 			page 19


 532 00f4 01400040 		.word	1073758209
 533 00f8 A2430040 		.word	1073759138
 534              		.cfi_endproc
 535              	.LFE5:
 536              		.size	ClockSetup, .-ClockSetup
 537              		.section	.text.AnalogSetDefault,"ax",%progbits
 538              		.align	2
 539              		.thumb
 540              		.thumb_func
 541              		.type	AnalogSetDefault, %function
 542              	AnalogSetDefault:
 543              	.LFB6:
 491:.\Generated_Source\PSoC5/cyfitter_cfg.c **** 
 492:.\Generated_Source\PSoC5/cyfitter_cfg.c **** 
 493:.\Generated_Source\PSoC5/cyfitter_cfg.c **** /* Analog API Functions */
 494:.\Generated_Source\PSoC5/cyfitter_cfg.c **** 
 495:.\Generated_Source\PSoC5/cyfitter_cfg.c **** 
 496:.\Generated_Source\PSoC5/cyfitter_cfg.c **** /*******************************************************************************
 497:.\Generated_Source\PSoC5/cyfitter_cfg.c **** * Function Name: AnalogSetDefault
 498:.\Generated_Source\PSoC5/cyfitter_cfg.c **** ********************************************************************************
 499:.\Generated_Source\PSoC5/cyfitter_cfg.c **** *
 500:.\Generated_Source\PSoC5/cyfitter_cfg.c **** * Summary:
 501:.\Generated_Source\PSoC5/cyfitter_cfg.c **** *  Sets up the analog portions of the chip to default values based on chip
 502:.\Generated_Source\PSoC5/cyfitter_cfg.c **** *  configuration options from the project.
 503:.\Generated_Source\PSoC5/cyfitter_cfg.c **** *
 504:.\Generated_Source\PSoC5/cyfitter_cfg.c **** * Parameters:
 505:.\Generated_Source\PSoC5/cyfitter_cfg.c **** *  void
 506:.\Generated_Source\PSoC5/cyfitter_cfg.c **** *
 507:.\Generated_Source\PSoC5/cyfitter_cfg.c **** * Return:
 508:.\Generated_Source\PSoC5/cyfitter_cfg.c **** *  void
 509:.\Generated_Source\PSoC5/cyfitter_cfg.c **** *
 510:.\Generated_Source\PSoC5/cyfitter_cfg.c **** *******************************************************************************/
 511:.\Generated_Source\PSoC5/cyfitter_cfg.c **** static void AnalogSetDefault(void);
 512:.\Generated_Source\PSoC5/cyfitter_cfg.c **** static void AnalogSetDefault(void)
 513:.\Generated_Source\PSoC5/cyfitter_cfg.c **** {
 544              		.loc 1 513 0
 545              		.cfi_startproc
 546              		@ args = 0, pretend = 0, frame = 8
 547              		@ frame_needed = 1, uses_anonymous_args = 0
 548              		@ link register save eliminated.
 549 0000 80B4     		push	{r7}
 550              		.cfi_def_cfa_offset 4
 551              		.cfi_offset 7, -4
 552 0002 83B0     		sub	sp, sp, #12
 553              		.cfi_def_cfa_offset 16
 554 0004 00AF     		add	r7, sp, #0
 555              		.cfi_def_cfa_register 7
 514:.\Generated_Source\PSoC5/cyfitter_cfg.c **** 	uint8 bg_xover_inl_trim = CY_GET_XTND_REG8((void CYFAR *)(CYREG_FLSHID_MFG_CFG_BG_XOVER_INL_TRIM +
 556              		.loc 1 514 0
 557 0006 0B4B     		ldr	r3, .L25
 558 0008 1B78     		ldrb	r3, [r3]
 559 000a FB71     		strb	r3, [r7, #7]
 515:.\Generated_Source\PSoC5/cyfitter_cfg.c **** 	CY_SET_XTND_REG8((void CYFAR *)(CYREG_BG_DFT0), (bg_xover_inl_trim & 0x07u));
 560              		.loc 1 515 0
 561 000c 0A4A     		ldr	r2, .L25+4
 562 000e FB79     		ldrb	r3, [r7, #7]
 563 0010 03F00703 		and	r3, r3, #7
ARM GAS  C:\Users\jthem\AppData\Local\Temp\ccAl6Vzs.s 			page 20


 564 0014 DBB2     		uxtb	r3, r3
 565 0016 1370     		strb	r3, [r2]
 516:.\Generated_Source\PSoC5/cyfitter_cfg.c **** 	CY_SET_XTND_REG8((void CYFAR *)(CYREG_BG_DFT1), ((bg_xover_inl_trim >> 4) & 0x0Fu));
 566              		.loc 1 516 0
 567 0018 084A     		ldr	r2, .L25+8
 568 001a FB79     		ldrb	r3, [r7, #7]	@ zero_extendqisi2
 569 001c 1B09     		lsrs	r3, r3, #4
 570 001e DBB2     		uxtb	r3, r3
 571 0020 1370     		strb	r3, [r2]
 517:.\Generated_Source\PSoC5/cyfitter_cfg.c **** 	CY_SET_XTND_REG8((void CYFAR *)CYREG_PUMP_CR0, 0x44u);
 572              		.loc 1 517 0
 573 0022 074B     		ldr	r3, .L25+12
 574 0024 4422     		movs	r2, #68
 575 0026 1A70     		strb	r2, [r3]
 518:.\Generated_Source\PSoC5/cyfitter_cfg.c **** }
 576              		.loc 1 518 0
 577 0028 0C37     		adds	r7, r7, #12
 578              		.cfi_def_cfa_offset 4
 579 002a BD46     		mov	sp, r7
 580              		.cfi_def_cfa_register 13
 581              		@ sp needed
 582 002c 5DF8047B 		ldr	r7, [sp], #4
 583              		.cfi_restore 7
 584              		.cfi_def_cfa_offset 0
 585 0030 7047     		bx	lr
 586              	.L26:
 587 0032 00BF     		.align	2
 588              	.L25:
 589 0034 CF010049 		.word	1224737231
 590 0038 6E580040 		.word	1073764462
 591 003c 6F580040 		.word	1073764463
 592 0040 76580040 		.word	1073764470
 593              		.cfi_endproc
 594              	.LFE6:
 595              		.size	AnalogSetDefault, .-AnalogSetDefault
 596              		.section	.text.SetAnalogRoutingPumps,"ax",%progbits
 597              		.align	2
 598              		.global	SetAnalogRoutingPumps
 599              		.thumb
 600              		.thumb_func
 601              		.type	SetAnalogRoutingPumps, %function
 602              	SetAnalogRoutingPumps:
 603              	.LFB7:
 519:.\Generated_Source\PSoC5/cyfitter_cfg.c **** 
 520:.\Generated_Source\PSoC5/cyfitter_cfg.c **** 
 521:.\Generated_Source\PSoC5/cyfitter_cfg.c **** /*******************************************************************************
 522:.\Generated_Source\PSoC5/cyfitter_cfg.c **** * Function Name: SetAnalogRoutingPumps
 523:.\Generated_Source\PSoC5/cyfitter_cfg.c **** ********************************************************************************
 524:.\Generated_Source\PSoC5/cyfitter_cfg.c **** *
 525:.\Generated_Source\PSoC5/cyfitter_cfg.c **** * Summary:
 526:.\Generated_Source\PSoC5/cyfitter_cfg.c **** * Enables or disables the analog pumps feeding analog routing switches.
 527:.\Generated_Source\PSoC5/cyfitter_cfg.c **** * Intended to be called at startup, based on the Vdda system configuration;
 528:.\Generated_Source\PSoC5/cyfitter_cfg.c **** * may be called during operation when the user informs us that the Vdda voltage
 529:.\Generated_Source\PSoC5/cyfitter_cfg.c **** * crossed the pump threshold.
 530:.\Generated_Source\PSoC5/cyfitter_cfg.c **** *
 531:.\Generated_Source\PSoC5/cyfitter_cfg.c **** * Parameters:
 532:.\Generated_Source\PSoC5/cyfitter_cfg.c **** *  enabled - 1 to enable the pumps, 0 to disable the pumps
ARM GAS  C:\Users\jthem\AppData\Local\Temp\ccAl6Vzs.s 			page 21


 533:.\Generated_Source\PSoC5/cyfitter_cfg.c **** *
 534:.\Generated_Source\PSoC5/cyfitter_cfg.c **** * Return:
 535:.\Generated_Source\PSoC5/cyfitter_cfg.c **** *  void
 536:.\Generated_Source\PSoC5/cyfitter_cfg.c **** *
 537:.\Generated_Source\PSoC5/cyfitter_cfg.c **** *******************************************************************************/
 538:.\Generated_Source\PSoC5/cyfitter_cfg.c **** void SetAnalogRoutingPumps(uint8 enabled)
 539:.\Generated_Source\PSoC5/cyfitter_cfg.c **** {
 604              		.loc 1 539 0
 605              		.cfi_startproc
 606              		@ args = 0, pretend = 0, frame = 16
 607              		@ frame_needed = 1, uses_anonymous_args = 0
 608              		@ link register save eliminated.
 609 0000 80B4     		push	{r7}
 610              		.cfi_def_cfa_offset 4
 611              		.cfi_offset 7, -4
 612 0002 85B0     		sub	sp, sp, #20
 613              		.cfi_def_cfa_offset 24
 614 0004 00AF     		add	r7, sp, #0
 615              		.cfi_def_cfa_register 7
 616 0006 0346     		mov	r3, r0
 617 0008 FB71     		strb	r3, [r7, #7]
 540:.\Generated_Source\PSoC5/cyfitter_cfg.c **** 	uint8 regValue = CY_GET_XTND_REG8((void CYFAR *)CYREG_PUMP_CR0);
 618              		.loc 1 540 0
 619 000a 064B     		ldr	r3, .L30
 620 000c 1B78     		ldrb	r3, [r3]
 621 000e FB73     		strb	r3, [r7, #15]
 541:.\Generated_Source\PSoC5/cyfitter_cfg.c **** 	if (enabled != 0u)
 622              		.loc 1 541 0
 623 0010 FB79     		ldrb	r3, [r7, #7]	@ zero_extendqisi2
 624 0012 002B     		cmp	r3, #0
 542:.\Generated_Source\PSoC5/cyfitter_cfg.c **** 	{
 543:.\Generated_Source\PSoC5/cyfitter_cfg.c **** 		regValue |= 0x00u;
 544:.\Generated_Source\PSoC5/cyfitter_cfg.c **** 	}
 545:.\Generated_Source\PSoC5/cyfitter_cfg.c **** 	else
 546:.\Generated_Source\PSoC5/cyfitter_cfg.c **** 	{
 547:.\Generated_Source\PSoC5/cyfitter_cfg.c **** 		regValue &= (uint8)~0x00u;
 548:.\Generated_Source\PSoC5/cyfitter_cfg.c **** 	}
 549:.\Generated_Source\PSoC5/cyfitter_cfg.c **** 	CY_SET_XTND_REG8((void CYFAR *)CYREG_PUMP_CR0, regValue);
 625              		.loc 1 549 0
 626 0014 034A     		ldr	r2, .L30
 627 0016 FB7B     		ldrb	r3, [r7, #15]
 628 0018 1370     		strb	r3, [r2]
 550:.\Generated_Source\PSoC5/cyfitter_cfg.c **** }
 629              		.loc 1 550 0
 630 001a 1437     		adds	r7, r7, #20
 631              		.cfi_def_cfa_offset 4
 632 001c BD46     		mov	sp, r7
 633              		.cfi_def_cfa_register 13
 634              		@ sp needed
 635 001e 5DF8047B 		ldr	r7, [sp], #4
 636              		.cfi_restore 7
 637              		.cfi_def_cfa_offset 0
 638 0022 7047     		bx	lr
 639              	.L31:
 640              		.align	2
 641              	.L30:
 642 0024 76580040 		.word	1073764470
ARM GAS  C:\Users\jthem\AppData\Local\Temp\ccAl6Vzs.s 			page 22


 643              		.cfi_endproc
 644              	.LFE7:
 645              		.size	SetAnalogRoutingPumps, .-SetAnalogRoutingPumps
 646              		.section	.text.cyfitter_cfg,"ax",%progbits
 647              		.align	2
 648              		.global	cyfitter_cfg
 649              		.thumb
 650              		.thumb_func
 651              		.type	cyfitter_cfg, %function
 652              	cyfitter_cfg:
 653              	.LFB8:
 551:.\Generated_Source\PSoC5/cyfitter_cfg.c **** 
 552:.\Generated_Source\PSoC5/cyfitter_cfg.c **** #define CY_AMUX_UNUSED CYREG_BOOST_SR
 553:.\Generated_Source\PSoC5/cyfitter_cfg.c **** 
 554:.\Generated_Source\PSoC5/cyfitter_cfg.c **** 
 555:.\Generated_Source\PSoC5/cyfitter_cfg.c **** /*******************************************************************************
 556:.\Generated_Source\PSoC5/cyfitter_cfg.c **** * Function Name: cyfitter_cfg
 557:.\Generated_Source\PSoC5/cyfitter_cfg.c **** ********************************************************************************
 558:.\Generated_Source\PSoC5/cyfitter_cfg.c **** * Summary:
 559:.\Generated_Source\PSoC5/cyfitter_cfg.c **** *  This function is called by the start-up code for the selected device. It
 560:.\Generated_Source\PSoC5/cyfitter_cfg.c **** *  performs all of the necessary device configuration based on the design
 561:.\Generated_Source\PSoC5/cyfitter_cfg.c **** *  settings.  This includes settings from the Design Wide Resources (DWR) such
 562:.\Generated_Source\PSoC5/cyfitter_cfg.c **** *  as Clocks and Pins as well as any component configuration that is necessary.
 563:.\Generated_Source\PSoC5/cyfitter_cfg.c **** *
 564:.\Generated_Source\PSoC5/cyfitter_cfg.c **** * Parameters:  
 565:.\Generated_Source\PSoC5/cyfitter_cfg.c **** *   void
 566:.\Generated_Source\PSoC5/cyfitter_cfg.c **** *
 567:.\Generated_Source\PSoC5/cyfitter_cfg.c **** * Return:
 568:.\Generated_Source\PSoC5/cyfitter_cfg.c **** *   void
 569:.\Generated_Source\PSoC5/cyfitter_cfg.c **** *
 570:.\Generated_Source\PSoC5/cyfitter_cfg.c **** *******************************************************************************/
 571:.\Generated_Source\PSoC5/cyfitter_cfg.c **** 
 572:.\Generated_Source\PSoC5/cyfitter_cfg.c **** void cyfitter_cfg(void)
 573:.\Generated_Source\PSoC5/cyfitter_cfg.c **** {
 654              		.loc 1 573 0
 655              		.cfi_startproc
 656              		@ args = 0, pretend = 0, frame = 0
 657              		@ frame_needed = 1, uses_anonymous_args = 0
 658 0000 80B5     		push	{r7, lr}
 659              		.cfi_def_cfa_offset 8
 660              		.cfi_offset 7, -8
 661              		.cfi_offset 14, -4
 662 0002 00AF     		add	r7, sp, #0
 663              		.cfi_def_cfa_register 7
 574:.\Generated_Source\PSoC5/cyfitter_cfg.c **** #ifdef CYGlobalIntDisable
 575:.\Generated_Source\PSoC5/cyfitter_cfg.c **** 	/* Disable interrupts by default. Let user enable if/when they want. */
 576:.\Generated_Source\PSoC5/cyfitter_cfg.c **** 	CYGlobalIntDisable
 664              		.loc 1 576 0
 665              	@ 576 ".\Generated_Source\PSoC5\cyfitter_cfg.c" 1
 666 0004 72B6     		CPSID   i
 667              	@ 0 "" 2
 577:.\Generated_Source\PSoC5/cyfitter_cfg.c **** #endif
 578:.\Generated_Source\PSoC5/cyfitter_cfg.c **** 
 579:.\Generated_Source\PSoC5/cyfitter_cfg.c **** 
 580:.\Generated_Source\PSoC5/cyfitter_cfg.c **** 	/* Set Flash Cycles based on max possible frequency in case a glitch occurs during ClockSetup(). *
 581:.\Generated_Source\PSoC5/cyfitter_cfg.c **** 	CY_SET_XTND_REG8((void CYFAR *)(CYREG_CACHE_CC_CTL), (((CYDEV_INSTRUCT_CACHE_ENABLED) != 0) ? 0x01
 668              		.loc 1 581 0
ARM GAS  C:\Users\jthem\AppData\Local\Temp\ccAl6Vzs.s 			page 23


 669              		.thumb
 670 0006 2B4B     		ldr	r3, .L33
 671 0008 0122     		movs	r2, #1
 672 000a 1A70     		strb	r2, [r3]
 582:.\Generated_Source\PSoC5/cyfitter_cfg.c **** 	/* Setup clocks based on selections from Clock DWR */
 583:.\Generated_Source\PSoC5/cyfitter_cfg.c **** 	ClockSetup();
 673              		.loc 1 583 0
 674 000c FFF7FEFF 		bl	ClockSetup
 584:.\Generated_Source\PSoC5/cyfitter_cfg.c **** 	/* Set Flash Cycles based on newly configured 24.00MHz Bus Clock. */
 585:.\Generated_Source\PSoC5/cyfitter_cfg.c **** 	CY_SET_XTND_REG8((void CYFAR *)(CYREG_CACHE_CC_CTL), (((CYDEV_INSTRUCT_CACHE_ENABLED) != 0) ? 0x81
 675              		.loc 1 585 0
 676 0010 284B     		ldr	r3, .L33
 677 0012 8122     		movs	r2, #129
 678 0014 1A70     		strb	r2, [r3]
 586:.\Generated_Source\PSoC5/cyfitter_cfg.c **** 	/* Enable/Disable Debug functionality based on settings from System DWR */
 587:.\Generated_Source\PSoC5/cyfitter_cfg.c **** 	CY_SET_XTND_REG8((void CYFAR *)CYREG_MLOGIC_DEBUG, (CY_GET_XTND_REG8((void CYFAR *)CYREG_MLOGIC_DE
 679              		.loc 1 587 0
 680 0016 284A     		ldr	r2, .L33+4
 681 0018 274B     		ldr	r3, .L33+4
 682 001a 1B78     		ldrb	r3, [r3]
 683 001c DBB2     		uxtb	r3, r3
 684 001e 43F00403 		orr	r3, r3, #4
 685 0022 DBB2     		uxtb	r3, r3
 686 0024 1370     		strb	r3, [r2]
 588:.\Generated_Source\PSoC5/cyfitter_cfg.c **** 
 589:.\Generated_Source\PSoC5/cyfitter_cfg.c **** 	{
 590:.\Generated_Source\PSoC5/cyfitter_cfg.c **** 		cfg_dma_init();
 687              		.loc 1 590 0
 688 0026 FFF7FEFF 		bl	cfg_dma_init
 591:.\Generated_Source\PSoC5/cyfitter_cfg.c **** 
 592:.\Generated_Source\PSoC5/cyfitter_cfg.c **** 		/* Perform normal device configuration. Order is not critical for these items. */
 593:.\Generated_Source\PSoC5/cyfitter_cfg.c **** 		CYMEMZERO((void CYFAR *)(CYREG_PHUB_CFGMEM0_CFG0), 4u);
 689              		.loc 1 593 0
 690 002a 2448     		ldr	r0, .L33+8
 691 002c 0421     		movs	r1, #4
 692 002e FFF7FEFF 		bl	CYMEMZERO
 594:.\Generated_Source\PSoC5/cyfitter_cfg.c **** 		CYMEMZERO((void CYFAR *)(CYREG_PHUB_CFGMEM1_CFG0), 4u);
 693              		.loc 1 594 0
 694 0032 2348     		ldr	r0, .L33+12
 695 0034 0421     		movs	r1, #4
 696 0036 FFF7FEFF 		bl	CYMEMZERO
 595:.\Generated_Source\PSoC5/cyfitter_cfg.c **** 
 596:.\Generated_Source\PSoC5/cyfitter_cfg.c **** 		/* Enable digital routing */
 597:.\Generated_Source\PSoC5/cyfitter_cfg.c **** 		CY_SET_XTND_REG8((void CYFAR *)CYREG_BCTL0_BANK_CTL, CY_GET_XTND_REG8((void CYFAR *)CYREG_BCTL0_B
 697              		.loc 1 597 0
 698 003a 224A     		ldr	r2, .L33+16
 699 003c 214B     		ldr	r3, .L33+16
 700 003e 1B78     		ldrb	r3, [r3]
 701 0040 DBB2     		uxtb	r3, r3
 702 0042 43F00203 		orr	r3, r3, #2
 703 0046 DBB2     		uxtb	r3, r3
 704 0048 1370     		strb	r3, [r2]
 598:.\Generated_Source\PSoC5/cyfitter_cfg.c **** 		CY_SET_XTND_REG8((void CYFAR *)CYREG_BCTL1_BANK_CTL, CY_GET_XTND_REG8((void CYFAR *)CYREG_BCTL1_B
 705              		.loc 1 598 0
 706 004a 1F4A     		ldr	r2, .L33+20
 707 004c 1E4B     		ldr	r3, .L33+20
 708 004e 1B78     		ldrb	r3, [r3]
ARM GAS  C:\Users\jthem\AppData\Local\Temp\ccAl6Vzs.s 			page 24


 709 0050 DBB2     		uxtb	r3, r3
 710 0052 43F00203 		orr	r3, r3, #2
 711 0056 DBB2     		uxtb	r3, r3
 712 0058 1370     		strb	r3, [r2]
 599:.\Generated_Source\PSoC5/cyfitter_cfg.c **** 
 600:.\Generated_Source\PSoC5/cyfitter_cfg.c **** 		/* Enable UDB array */
 601:.\Generated_Source\PSoC5/cyfitter_cfg.c **** 		CY_SET_XTND_REG8((void CYFAR *)CYREG_PM_ACT_CFG0, CY_GET_XTND_REG8((void CYFAR *)CYREG_PM_ACT_CFG
 713              		.loc 1 601 0
 714 005a 1C4A     		ldr	r2, .L33+24
 715 005c 1B4B     		ldr	r3, .L33+24
 716 005e 1B78     		ldrb	r3, [r3]
 717 0060 DBB2     		uxtb	r3, r3
 718 0062 43F04003 		orr	r3, r3, #64
 719 0066 DBB2     		uxtb	r3, r3
 720 0068 1370     		strb	r3, [r2]
 602:.\Generated_Source\PSoC5/cyfitter_cfg.c **** 		CY_SET_XTND_REG8((void CYFAR *)CYREG_PM_AVAIL_CR2, CY_GET_XTND_REG8((void CYFAR *)CYREG_PM_AVAIL_
 721              		.loc 1 602 0
 722 006a 194A     		ldr	r2, .L33+28
 723 006c 184B     		ldr	r3, .L33+28
 724 006e 1B78     		ldrb	r3, [r3]
 725 0070 DBB2     		uxtb	r3, r3
 726 0072 43F01003 		orr	r3, r3, #16
 727 0076 DBB2     		uxtb	r3, r3
 728 0078 1370     		strb	r3, [r2]
 603:.\Generated_Source\PSoC5/cyfitter_cfg.c **** 	}
 604:.\Generated_Source\PSoC5/cyfitter_cfg.c **** 
 605:.\Generated_Source\PSoC5/cyfitter_cfg.c **** 
 606:.\Generated_Source\PSoC5/cyfitter_cfg.c **** 	/* Perform second pass device configuration. These items must be configured in specific order afte
 607:.\Generated_Source\PSoC5/cyfitter_cfg.c **** 	CYCONFIGCPY((void CYFAR *)(CYREG_PRT2_DM0), (const void CYFAR *)(BS_IOPINS0_2_VAL), 8u);
 729              		.loc 1 607 0
 730 007a 1648     		ldr	r0, .L33+32
 731 007c 1649     		ldr	r1, .L33+36
 732 007e 0822     		movs	r2, #8
 733 0080 FFF7FEFF 		bl	CYCONFIGCPY
 608:.\Generated_Source\PSoC5/cyfitter_cfg.c **** 	CYCONFIGCPY((void CYFAR *)(CYREG_PRT5_DM0), (const void CYFAR *)(BS_IOPINS0_5_VAL), 8u);
 734              		.loc 1 608 0
 735 0084 1548     		ldr	r0, .L33+40
 736 0086 1649     		ldr	r1, .L33+44
 737 0088 0822     		movs	r2, #8
 738 008a FFF7FEFF 		bl	CYCONFIGCPY
 609:.\Generated_Source\PSoC5/cyfitter_cfg.c **** 	/* Switch Boost to the precision bandgap reference from its internal reference */
 610:.\Generated_Source\PSoC5/cyfitter_cfg.c **** 	CY_SET_REG8((void CYXDATA *)CYREG_BOOST_CR2, (CY_GET_REG8((void CYXDATA *)CYREG_BOOST_CR2) | 0x08u
 739              		.loc 1 610 0
 740 008e 154A     		ldr	r2, .L33+48
 741 0090 144B     		ldr	r3, .L33+48
 742 0092 1B78     		ldrb	r3, [r3]
 743 0094 DBB2     		uxtb	r3, r3
 744 0096 43F00803 		orr	r3, r3, #8
 745 009a DBB2     		uxtb	r3, r3
 746 009c 1370     		strb	r3, [r2]
 611:.\Generated_Source\PSoC5/cyfitter_cfg.c **** 	CY_SET_XTND_REG8((void CYFAR *)(CYREG_PANTHER_WAITPIPE), 0x01u);
 747              		.loc 1 611 0
 748 009e 124B     		ldr	r3, .L33+52
 749 00a0 0122     		movs	r2, #1
 750 00a2 1A70     		strb	r2, [r3]
 612:.\Generated_Source\PSoC5/cyfitter_cfg.c **** 
 613:.\Generated_Source\PSoC5/cyfitter_cfg.c **** 	/* Perform basic analog initialization to defaults */
ARM GAS  C:\Users\jthem\AppData\Local\Temp\ccAl6Vzs.s 			page 25


 614:.\Generated_Source\PSoC5/cyfitter_cfg.c **** 	AnalogSetDefault();
 751              		.loc 1 614 0
 752 00a4 FFF7FEFF 		bl	AnalogSetDefault
 615:.\Generated_Source\PSoC5/cyfitter_cfg.c **** 
 616:.\Generated_Source\PSoC5/cyfitter_cfg.c **** 	/* Configure alternate active mode */
 617:.\Generated_Source\PSoC5/cyfitter_cfg.c **** 	CYCONFIGCPY((void CYFAR *)CYDEV_PM_STBY_BASE, (const void CYFAR *)CYDEV_PM_ACT_BASE, 14u);
 753              		.loc 1 617 0
 754 00a8 1048     		ldr	r0, .L33+56
 755 00aa 0849     		ldr	r1, .L33+24
 756 00ac 0E22     		movs	r2, #14
 757 00ae FFF7FEFF 		bl	CYCONFIGCPY
 618:.\Generated_Source\PSoC5/cyfitter_cfg.c **** }
 758              		.loc 1 618 0
 759 00b2 80BD     		pop	{r7, pc}
 760              	.L34:
 761              		.align	2
 762              	.L33:
 763 00b4 00480040 		.word	1073760256
 764 00b8 E8460040 		.word	1073759976
 765 00bc 00760040 		.word	1073772032
 766 00c0 08760040 		.word	1073772040
 767 00c4 03500140 		.word	1073827843
 768 00c8 13500140 		.word	1073827859
 769 00cc A0430040 		.word	1073759136
 770 00d0 C2430040 		.word	1073759170
 771 00d4 22510040 		.word	1073762594
 772 00d8 C0090048 		.word	1207962048
 773 00dc 52510040 		.word	1073762642
 774 00e0 C8090048 		.word	1207962056
 775 00e4 22430040 		.word	1073759010
 776 00e8 04000840 		.word	1074266116
 777 00ec B0430040 		.word	1073759152
 778              		.cfi_endproc
 779              	.LFE8:
 780              		.size	cyfitter_cfg, .-cyfitter_cfg
 781              		.bss
 782              		.align	3
 783              	DMA_ZERO_VAL.4848:
 784 0000 00000000 		.space	4
 785 0004 00000000 		.section	.dma_init,"a",%progbits
 786              		.align	2
 787              		.type	CFG_TD_LIST0.4849, %object
 788              		.size	CFG_TD_LIST0.4849, 376
 789              	CFG_TD_LIST0.4849:
 790 0000 0800     		.short	8
 791 0002 02       		.byte	2
 792 0003 23       		.byte	35
 793 0004 0000     		.short	0
 794 0006 0876     		.short	30216
 795 0008 0800     		.short	8
 796 000a 03       		.byte	3
 797 000b 23       		.byte	35
 798 000c 0000     		.short	0
 799 000e 1076     		.short	30224
 800 0010 0800     		.short	8
 801 0012 04       		.byte	4
 802 0013 23       		.byte	35
ARM GAS  C:\Users\jthem\AppData\Local\Temp\ccAl6Vzs.s 			page 26


 803 0014 0000     		.short	0
 804 0016 2876     		.short	30248
 805 0018 0800     		.short	8
 806 001a 05       		.byte	5
 807 001b 23       		.byte	35
 808 001c 0000     		.short	0
 809 001e 3076     		.short	30256
 810 0020 0500     		.short	5
 811 0022 06       		.byte	6
 812 0023 23       		.byte	35
 813 0024 0000     		.short	0
 814 0026 2070     		.short	28704
 815 0028 0500     		.short	5
 816 002a 07       		.byte	7
 817 002b 23       		.byte	35
 818 002c 0000     		.short	0
 819 002e 3070     		.short	28720
 820 0030 0500     		.short	5
 821 0032 08       		.byte	8
 822 0033 23       		.byte	35
 823 0034 0000     		.short	0
 824 0036 6070     		.short	28768
 825 0038 0500     		.short	5
 826 003a FE       		.byte	-2
 827 003b 23       		.byte	35
 828 003c 0000     		.short	0
 829 003e 7070     		.short	28784
 830 0040 2000     		.short	32
 831 0042 0A       		.byte	10
 832 0043 22       		.byte	34
 833 0044 0000     		.short	0
 834 0046 0051     		.short	20736
 835 0048 2000     		.short	32
 836 004a 0B       		.byte	11
 837 004b 22       		.byte	34
 838 004c 0000     		.short	0
 839 004e 3051     		.short	20784
 840 0050 1000     		.short	16
 841 0052 0C       		.byte	12
 842 0053 22       		.byte	34
 843 0054 0000     		.short	0
 844 0056 6051     		.short	20832
 845 0058 1000     		.short	16
 846 005a 0D       		.byte	13
 847 005b 22       		.byte	34
 848 005c 0000     		.short	0
 849 005e C051     		.short	20928
 850 0060 1000     		.short	16
 851 0062 FE       		.byte	-2
 852 0063 22       		.byte	34
 853 0064 0000     		.short	0
 854 0066 F051     		.short	20976
 855 0068 FF0F     		.short	4095
 856 006a 0F       		.byte	15
 857 006b 22       		.byte	34
 858 006c 0000     		.short	0
 859 006e 0000     		.short	0
ARM GAS  C:\Users\jthem\AppData\Local\Temp\ccAl6Vzs.s 			page 27


 860 0070 0100     		.short	1
 861 0072 10       		.byte	16
 862 0073 22       		.byte	34
 863 0074 0000     		.short	0
 864 0076 FF0F     		.short	4095
 865 0078 8001     		.short	384
 866 007a 11       		.byte	17
 867 007b 22       		.byte	34
 868 007c 0000     		.short	0
 869 007e 0014     		.short	5120
 870 0080 8001     		.short	384
 871 0082 12       		.byte	18
 872 0083 22       		.byte	34
 873 0084 0000     		.short	0
 874 0086 0016     		.short	5632
 875 0088 8000     		.short	128
 876 008a 13       		.byte	19
 877 008b 22       		.byte	34
 878 008c 0000     		.short	0
 879 008e 0018     		.short	6144
 880 0090 8000     		.short	128
 881 0092 14       		.byte	20
 882 0093 22       		.byte	34
 883 0094 0000     		.short	0
 884 0096 0041     		.short	16640
 885 0098 8000     		.short	128
 886 009a 15       		.byte	21
 887 009b 22       		.byte	34
 888 009c 0000     		.short	0
 889 009e 0042     		.short	16896
 890 00a0 8000     		.short	128
 891 00a2 16       		.byte	22
 892 00a3 22       		.byte	34
 893 00a4 0000     		.short	0
 894 00a6 0043     		.short	17152
 895 00a8 8004     		.short	1152
 896 00aa 17       		.byte	23
 897 00ab 22       		.byte	34
 898 00ac 0000     		.short	0
 899 00ae 0044     		.short	17408
 900 00b0 8000     		.short	128
 901 00b2 18       		.byte	24
 902 00b3 22       		.byte	34
 903 00b4 0000     		.short	0
 904 00b6 0049     		.short	18688
 905 00b8 8000     		.short	128
 906 00ba 19       		.byte	25
 907 00bb 22       		.byte	34
 908 00bc 0000     		.short	0
 909 00be 004C     		.short	19456
 910 00c0 1000     		.short	16
 911 00c2 FE       		.byte	-2
 912 00c3 22       		.byte	34
 913 00c4 0000     		.short	0
 914 00c6 0050     		.short	20480
 915 00c8 0700     		.short	7
 916 00ca 1B       		.byte	27
ARM GAS  C:\Users\jthem\AppData\Local\Temp\ccAl6Vzs.s 			page 28


 917 00cb 23       		.byte	35
 918 00cc 0000     		.short	0
 919 00ce 2852     		.short	21032
 920 00d0 2000     		.short	32
 921 00d2 FE       		.byte	-2
 922 00d3 23       		.byte	35
 923 00d4 0000     		.short	0
 924 00d6 7065     		.short	25968
 925 00d8 8000     		.short	128
 926 00da 1D       		.byte	29
 927 00db 23       		.byte	35
 928 00dc 0000     		.short	0
 929 00de 8018     		.short	6272
 930 00e0 8000     		.short	128
 931 00e2 1E       		.byte	30
 932 00e3 23       		.byte	35
 933 00e4 0000     		.short	0
 934 00e6 001A     		.short	6656
 935 00e8 8000     		.short	128
 936 00ea 1F       		.byte	31
 937 00eb 23       		.byte	35
 938 00ec 0000     		.short	0
 939 00ee 801A     		.short	6784
 940 00f0 1000     		.short	16
 941 00f2 20       		.byte	32
 942 00f3 23       		.byte	35
 943 00f4 0000     		.short	0
 944 00f6 1050     		.short	20496
 945 00f8 8000     		.short	128
 946 00fa 21       		.byte	33
 947 00fb 23       		.byte	35
 948 00fc 0000     		.short	0
 949 00fe 004D     		.short	19712
 950 0100 8000     		.short	128
 951 0102 22       		.byte	34
 952 0103 23       		.byte	35
 953 0104 0000     		.short	0
 954 0106 804D     		.short	19840
 955 0108 8000     		.short	128
 956 010a 23       		.byte	35
 957 010b 23       		.byte	35
 958 010c 0000     		.short	0
 959 010e 804C     		.short	19584
 960 0110 8000     		.short	128
 961 0112 24       		.byte	36
 962 0113 23       		.byte	35
 963 0114 0000     		.short	0
 964 0116 001B     		.short	6912
 965 0118 8000     		.short	128
 966 011a 25       		.byte	37
 967 011b 23       		.byte	35
 968 011c 0000     		.short	0
 969 011e 801B     		.short	7040
 970 0120 8000     		.short	128
 971 0122 26       		.byte	38
 972 0123 23       		.byte	35
 973 0124 0000     		.short	0
ARM GAS  C:\Users\jthem\AppData\Local\Temp\ccAl6Vzs.s 			page 29


 974 0126 8015     		.short	5504
 975 0128 8000     		.short	128
 976 012a 27       		.byte	39
 977 012b 23       		.byte	35
 978 012c 0000     		.short	0
 979 012e 0019     		.short	6400
 980 0130 8000     		.short	128
 981 0132 28       		.byte	40
 982 0133 23       		.byte	35
 983 0134 0000     		.short	0
 984 0136 8019     		.short	6528
 985 0138 8000     		.short	128
 986 013a 29       		.byte	41
 987 013b 23       		.byte	35
 988 013c 0000     		.short	0
 989 013e 8017     		.short	6016
 990 0140 8000     		.short	128
 991 0142 2A       		.byte	42
 992 0143 23       		.byte	35
 993 0144 0000     		.short	0
 994 0146 8049     		.short	18816
 995 0148 8000     		.short	128
 996 014a 2B       		.byte	43
 997 014b 23       		.byte	35
 998 014c 0000     		.short	0
 999 014e 8048     		.short	18560
 1000 0150 8000     		.short	128
 1001 0152 2C       		.byte	44
 1002 0153 23       		.byte	35
 1003 0154 0000     		.short	0
 1004 0156 8043     		.short	17280
 1005 0158 8000     		.short	128
 1006 015a 2D       		.byte	45
 1007 015b 23       		.byte	35
 1008 015c 0000     		.short	0
 1009 015e 8042     		.short	17024
 1010 0160 8000     		.short	128
 1011 0162 2E       		.byte	46
 1012 0163 23       		.byte	35
 1013 0164 0000     		.short	0
 1014 0166 8041     		.short	16768
 1015 0168 8000     		.short	128
 1016 016a 2F       		.byte	47
 1017 016b 23       		.byte	35
 1018 016c 0000     		.short	0
 1019 016e 0040     		.short	16384
 1020 0170 8000     		.short	128
 1021 0172 FE       		.byte	-2
 1022 0173 23       		.byte	35
 1023 0174 0000     		.short	0
 1024 0176 8040     		.short	16512
 1025              		.section	.rodata
 1026              		.align	2
 1027              		.type	CFG_TD_ADDR0.4850, %object
 1028              		.size	CFG_TD_ADDR0.4850, 188
 1029              	CFG_TD_ADDR0.4850:
 1030 0000 98010000 		.word	CH1_ADDR_DATA0.4843
ARM GAS  C:\Users\jthem\AppData\Local\Temp\ccAl6Vzs.s 			page 30


 1031 0004 90010000 		.word	CH2_ADDR_DATA0.4844
 1032 0008 88010000 		.word	CH5_ADDR_DATA0.4845
 1033 000c 80010000 		.word	CH6_ADDR_DATA0.4846
 1034 0010 78010000 		.word	DMA_TD_START_CMD.4847
 1035 0014 78010000 		.word	DMA_TD_START_CMD.4847
 1036 0018 78010000 		.word	DMA_TD_START_CMD.4847
 1037 001c 78010000 		.word	DMA_TD_START_CMD.4847
 1038 0020 00000000 		.word	DMA_ZERO_VAL.4848
 1039 0024 00000000 		.word	DMA_ZERO_VAL.4848
 1040 0028 00000000 		.word	DMA_ZERO_VAL.4848
 1041 002c 00000000 		.word	DMA_ZERO_VAL.4848
 1042 0030 00000000 		.word	DMA_ZERO_VAL.4848
 1043 0034 00000000 		.word	DMA_ZERO_VAL.4848
 1044 0038 00000000 		.word	DMA_ZERO_VAL.4848
 1045 003c 00000000 		.word	DMA_ZERO_VAL.4848
 1046 0040 00000000 		.word	DMA_ZERO_VAL.4848
 1047 0044 00000000 		.word	DMA_ZERO_VAL.4848
 1048 0048 00000000 		.word	DMA_ZERO_VAL.4848
 1049 004c 00000000 		.word	DMA_ZERO_VAL.4848
 1050 0050 00000000 		.word	DMA_ZERO_VAL.4848
 1051 0054 00000000 		.word	DMA_ZERO_VAL.4848
 1052 0058 00000000 		.word	DMA_ZERO_VAL.4848
 1053 005c 00000000 		.word	DMA_ZERO_VAL.4848
 1054 0060 00000000 		.word	DMA_ZERO_VAL.4848
 1055 0064 08000048 		.word	1207959560
 1056 0068 90010048 		.word	1207959952
 1057 006c 10000048 		.word	1207959568
 1058 0070 90000048 		.word	1207959696
 1059 0074 10010048 		.word	1207959824
 1060 0078 B0010048 		.word	1207959984
 1061 007c C0010048 		.word	1207960000
 1062 0080 40020048 		.word	1207960128
 1063 0084 C0020048 		.word	1207960256
 1064 0088 40030048 		.word	1207960384
 1065 008c C0030048 		.word	1207960512
 1066 0090 40040048 		.word	1207960640
 1067 0094 C0040048 		.word	1207960768
 1068 0098 40050048 		.word	1207960896
 1069 009c C0050048 		.word	1207961024
 1070 00a0 40060048 		.word	1207961152
 1071 00a4 C0060048 		.word	1207961280
 1072 00a8 40070048 		.word	1207961408
 1073 00ac C0070048 		.word	1207961536
 1074 00b0 40080048 		.word	1207961664
 1075 00b4 C0080048 		.word	1207961792
 1076 00b8 40090048 		.word	1207961920
 1077              		.section	.dma_init
 1078              		.align	2
 1079              		.type	DMA_TD_START_CMD.4847, %object
 1080              		.size	DMA_TD_START_CMD.4847, 5
 1081              	DMA_TD_START_CMD.4847:
 1082 0178 01       		.byte	1
 1083 0179 00       		.byte	0
 1084 017a 00       		.byte	0
 1085 017b 00       		.byte	0
 1086 017c 01       		.byte	1
 1087 017d 000000   		.align	2
ARM GAS  C:\Users\jthem\AppData\Local\Temp\ccAl6Vzs.s 			page 31


 1088              		.type	CH6_ADDR_DATA0.4846, %object
 1089              		.size	CH6_ADDR_DATA0.4846, 8
 1090              	CH6_ADDR_DATA0.4846:
 1091 0180 01       		.byte	1
 1092 0181 00       		.byte	0
 1093 0182 00       		.byte	0
 1094 0183 00       		.byte	0
 1095 0184 00       		.byte	0
 1096 0185 48       		.byte	72
 1097 0186 01       		.byte	1
 1098 0187 40       		.byte	64
 1099              		.align	2
 1100              		.type	CH5_ADDR_DATA0.4845, %object
 1101              		.size	CH5_ADDR_DATA0.4845, 8
 1102              	CH5_ADDR_DATA0.4845:
 1103 0188 01       		.byte	1
 1104 0189 00       		.byte	0
 1105 018a 00       		.byte	0
 1106 018b 00       		.byte	0
 1107 018c 00       		.byte	0
 1108 018d 48       		.byte	72
 1109 018e 00       		.byte	0
 1110 018f 40       		.byte	64
 1111              		.align	2
 1112              		.type	CH2_ADDR_DATA0.4844, %object
 1113              		.size	CH2_ADDR_DATA0.4844, 8
 1114              	CH2_ADDR_DATA0.4844:
 1115 0190 01       		.byte	1
 1116 0191 00       		.byte	0
 1117 0192 00       		.byte	0
 1118 0193 00       		.byte	0
 1119 0194 00       		.byte	0
 1120 0195 20       		.byte	32
 1121 0196 01       		.byte	1
 1122 0197 40       		.byte	64
 1123              		.align	2
 1124              		.type	CH1_ADDR_DATA0.4843, %object
 1125              		.size	CH1_ADDR_DATA0.4843, 8
 1126              	CH1_ADDR_DATA0.4843:
 1127 0198 01       		.byte	1
 1128 0199 00       		.byte	0
 1129 019a 00       		.byte	0
 1130 019b 00       		.byte	0
 1131 019c 00       		.byte	0
 1132 019d 20       		.byte	32
 1133 019e 00       		.byte	0
 1134 019f 40       		.byte	64
 1135              		.text
 1136              	.Letext0:
 1137              		.file 2 "c:\\program files (x86)\\cypress\\psoc creator\\3.3\\psoc creator\\import\\gnu\\arm\\4.9.
 1138              		.file 3 ".\\Generated_Source\\PSoC5\\cytypes.h"