ARM GAS  C:\Users\jthem\AppData\Local\Temp\cc0QrIzh.s 			page 1


   1              		.syntax unified
   2              		.cpu cortex-m3
   3              		.fpu softvfp
   4              		.eabi_attribute 20, 1
   5              		.eabi_attribute 21, 1
   6              		.eabi_attribute 23, 3
   7              		.eabi_attribute 24, 1
   8              		.eabi_attribute 25, 1
   9              		.eabi_attribute 26, 1
  10              		.eabi_attribute 30, 4
  11              		.eabi_attribute 34, 1
  12              		.eabi_attribute 18, 4
  13              		.thumb
  14              		.file	"main.c"
  15              		.text
  16              	.Ltext0:
  17              		.cfi_sections	.debug_frame
  18              		.section	.text.MCP41010_Write,"ax",%progbits
  19              		.align	1
  20              		.global	MCP41010_Write
  21              		.thumb
  22              		.thumb_func
  23              		.type	MCP41010_Write, %function
  24              	MCP41010_Write:
  25              	.LFB63:
  26              		.file 1 ".\\main.c"
   1:.\main.c      **** /*******************************************************************************
   2:.\main.c      **** * File Name: main.c
   3:.\main.c      **** *
   4:.\main.c      **** * Version: 1.0
   5:.\main.c      **** *
   6:.\main.c      **** * Description:
   7:.\main.c      **** *  This is source code for example project of the SPI
   8:.\main.c      **** *  (Master, Slave) components.
   9:.\main.c      **** *  Parameters used:
  10:.\main.c      **** *   Mode                0(CPHA ==0, CPOL ==0)                
  11:.\main.c      **** *   Data lines          MOSI+MISO
  12:.\main.c      **** *   Shift direction     MSB First
  13:.\main.c      **** *   DataBits:           8 
  14:.\main.c      **** *   Bit Rate            1Mbit/s
  15:.\main.c      **** *   Clock source        External 
  16:.\main.c      **** *
  17:.\main.c      **** *  SPI communication test using software buffer. 8 bytes are transmitted
  18:.\main.c      **** *  between SPI Master and SPI Slave.
  19:.\main.c      **** *  Received data are displayed on LCD. 
  20:.\main.c      **** *
  21:.\main.c      **** ********************************************************************************
  22:.\main.c      **** * Copyright 2012, Cypress Semiconductor Corporation. All rights reserved.
  23:.\main.c      **** * This software is owned by Cypress Semiconductor Corporation and is protected
  24:.\main.c      **** * by and subject to worldwide patent and copyright laws and treaties.
  25:.\main.c      **** * Therefore, you may use this software only as provided in the license agreement
  26:.\main.c      **** * accompanying the software package from which you obtained this software.
  27:.\main.c      **** * CYPRESS AND ITS SUPPLIERS MAKE NO WARRANTY OF ANY KIND, EXPRESS OR IMPLIED,
  28:.\main.c      **** * WITH REGARD TO THIS SOFTWARE, INCLUDING, BUT NOT LIMITED TO, NONINFRINGEMENT,
  29:.\main.c      **** * IMPLIED WARRANTIES OF MERCHANTABILITY AND FITNESS FOR A PARTICULAR PURPOSE.
  30:.\main.c      **** *******************************************************************************/
  31:.\main.c      **** 
ARM GAS  C:\Users\jthem\AppData\Local\Temp\cc0QrIzh.s 			page 2


  32:.\main.c      **** #include <device.h>
  33:.\main.c      **** 
  34:.\main.c      **** 
  35:.\main.c      **** void MCP41010_Write(unsigned char value) 
  36:.\main.c      **** {
  27              		.loc 1 36 0
  28              		.cfi_startproc
  29              		@ args = 0, pretend = 0, frame = 0
  30              		@ frame_needed = 0, uses_anonymous_args = 0
  31              	.LVL0:
  32 0000 10B5     		push	{r4, lr}
  33              		.cfi_def_cfa_offset 8
  34              		.cfi_offset 4, -8
  35              		.cfi_offset 14, -4
  36              		.loc 1 36 0
  37 0002 0446     		mov	r4, r0
  37:.\main.c      ****   //CS_Write(0);
  38:.\main.c      ****   SPIM_WriteTxData(0b00010001); // This tells the chip to set the pot
  38              		.loc 1 38 0
  39 0004 1120     		movs	r0, #17
  40              	.LVL1:
  41 0006 FFF7FEFF 		bl	SPIM_WriteTxData
  42              	.LVL2:
  39:.\main.c      ****   SPIM_WriteTxData(value);     // This tells it the pot position
  43              		.loc 1 39 0
  44 000a 2046     		mov	r0, r4
  45 000c FFF7FEFF 		bl	SPIM_WriteTxData
  46              	.LVL3:
  40:.\main.c      ****   //CS_Write(1);
  41:.\main.c      ****   LCD_Position(1, 0);
  47              		.loc 1 41 0
  48 0010 0120     		movs	r0, #1
  49 0012 0021     		movs	r1, #0
  50 0014 FFF7FEFF 		bl	LCD_Position
  51              	.LVL4:
  42:.\main.c      ****   LCD_PrintInt8(value);
  52              		.loc 1 42 0
  53 0018 2046     		mov	r0, r4
  43:.\main.c      **** }
  54              		.loc 1 43 0
  55 001a BDE81040 		pop	{r4, lr}
  56              		.cfi_restore 14
  57              		.cfi_restore 4
  58              		.cfi_def_cfa_offset 0
  42:.\main.c      ****   LCD_PrintInt8(value);
  59              		.loc 1 42 0
  60 001e FFF7FEBF 		b	LCD_PrintInt8
  61              	.LVL5:
  62              		.cfi_endproc
  63              	.LFE63:
  64              		.size	MCP41010_Write, .-MCP41010_Write
  65              		.section	.text.startup.main,"ax",%progbits
  66              		.align	1
  67              		.global	main
  68              		.thumb
  69              		.thumb_func
  70              		.type	main, %function
ARM GAS  C:\Users\jthem\AppData\Local\Temp\cc0QrIzh.s 			page 3


  71              	main:
  72              	.LFB64:
  44:.\main.c      **** 
  45:.\main.c      **** 
  46:.\main.c      **** /*******************************************************************************
  47:.\main.c      **** * Function Name: main
  48:.\main.c      **** ********************************************************************************
  49:.\main.c      **** *
  50:.\main.c      **** * Summary:
  51:.\main.c      **** *  Main function performs following functions:
  52:.\main.c      **** *   1. Declares cycle counter variable.
  53:.\main.c      **** *   2. Enables interrupts.
  54:.\main.c      **** *   3. Starts all used components.
  55:.\main.c      **** *   3. Writes values to be sent into the SPI Slave's and Master's input buffers.
  56:.\main.c      **** *   4. Waits for the Slave's SPI Done state generation.
  57:.\main.c      **** *   5. Displays SPI Master and Slave received data.
  58:.\main.c      **** *
  59:.\main.c      **** * Parameters:
  60:.\main.c      **** *  None.
  61:.\main.c      **** *
  62:.\main.c      **** * Return:
  63:.\main.c      **** *  None.
  64:.\main.c      **** *
  65:.\main.c      **** *******************************************************************************/
  66:.\main.c      **** int main()
  67:.\main.c      **** {
  73              		.loc 1 67 0
  74              		.cfi_startproc
  75              		@ args = 0, pretend = 0, frame = 0
  76              		@ frame_needed = 0, uses_anonymous_args = 0
  77              	.LVL6:
  78 0000 10B5     		push	{r4, lr}
  79              		.cfi_def_cfa_offset 8
  80              		.cfi_offset 4, -8
  81              		.cfi_offset 14, -4
  68:.\main.c      ****     uint8 i = 0u;
  69:.\main.c      ****     
  70:.\main.c      ****     /* Software buffers use internal interrupt functionality to interact with
  71:.\main.c      ****     * hardware buffers. Thus global interrupt enable command should be called 
  72:.\main.c      ****     */
  73:.\main.c      ****     CyGlobalIntEnable;
  82              		.loc 1 73 0
  83              	@ 73 ".\main.c" 1
  84 0002 62B6     		CPSIE   i
  85              	@ 0 "" 2
  74:.\main.c      ****     
  75:.\main.c      ****     /* We need to start Character LCD, SPI Master and Slave components */
  76:.\main.c      ****     LCD_Start();
  86              		.loc 1 76 0
  87              		.thumb
  88 0004 FFF7FEFF 		bl	LCD_Start
  89              	.LVL7:
  77:.\main.c      ****     SPIM_Start();
  90              		.loc 1 77 0
  91 0008 FFF7FEFF 		bl	SPIM_Start
  92              	.LVL8:
  78:.\main.c      ****     
ARM GAS  C:\Users\jthem\AppData\Local\Temp\cc0QrIzh.s 			page 4


  79:.\main.c      ****     LCD_ClearDisplay();
  93              		.loc 1 79 0
  94 000c 0120     		movs	r0, #1
  95 000e FFF7FEFF 		bl	LCD_WriteControl
  96              	.LVL9:
  80:.\main.c      ****     LCD_Position(0u,0u);
  97              		.loc 1 80 0
  98 0012 0020     		movs	r0, #0
  99 0014 0146     		mov	r1, r0
 100 0016 FFF7FEFF 		bl	LCD_Position
 101              	.LVL10:
  81:.\main.c      ****     LCD_PrintString("value:");
 102              		.loc 1 81 0
 103 001a 1148     		ldr	r0, .L9
 104 001c FFF7FEFF 		bl	LCD_PrintString
 105              	.LVL11:
  82:.\main.c      ****     LCD_Position(1u,0u);
 106              		.loc 1 82 0
 107 0020 0120     		movs	r0, #1
 108 0022 0021     		movs	r1, #0
 109 0024 FFF7FEFF 		bl	LCD_Position
 110              	.LVL12:
 111              	.L5:
 112              	.LBB2:
  83:.\main.c      ****     
  84:.\main.c      ****     while(1) {
  85:.\main.c      ****        // move the potentiometer in one direction
  86:.\main.c      ****         int level;
  87:.\main.c      ****           for (level = 0; level < 255; level++) 
 113              		.loc 1 87 0
 114 0028 0024     		movs	r4, #0
 115              	.LVL13:
 116              	.L3:
  88:.\main.c      ****           {
  89:.\main.c      ****             MCP41010_Write(level);
 117              		.loc 1 89 0 discriminator 3
 118 002a E0B2     		uxtb	r0, r4
 119 002c FFF7FEFF 		bl	MCP41010_Write
 120              	.LVL14:
  87:.\main.c      ****           {
 121              		.loc 1 87 0 discriminator 3
 122 0030 0134     		adds	r4, r4, #1
 123              	.LVL15:
  90:.\main.c      ****             CyDelay(100); //delay(100);
 124              		.loc 1 90 0 discriminator 3
 125 0032 6420     		movs	r0, #100
 126 0034 FFF7FEFF 		bl	CyDelay
 127              	.LVL16:
  87:.\main.c      ****           {
 128              		.loc 1 87 0 discriminator 3
 129 0038 FF2C     		cmp	r4, #255
 130 003a F6D1     		bne	.L3
  91:.\main.c      ****           }
  92:.\main.c      ****           CyDelay(2000); //delay(2000);  // wait a couple seconds
 131              		.loc 1 92 0
 132 003c 4FF4FA60 		mov	r0, #2000
 133 0040 FFF7FEFF 		bl	CyDelay
ARM GAS  C:\Users\jthem\AppData\Local\Temp\cc0QrIzh.s 			page 5


 134              	.LVL17:
 135              	.L4:
  93:.\main.c      ****           // Now mover potentiometer in other directions
  94:.\main.c      ****           
  95:.\main.c      ****           for (level = 255; level > 0; level--) 
  96:.\main.c      ****           {
  97:.\main.c      ****             MCP41010_Write(level);
 136              		.loc 1 97 0 discriminator 3
 137 0044 E0B2     		uxtb	r0, r4
 138 0046 FFF7FEFF 		bl	MCP41010_Write
 139              	.LVL18:
  98:.\main.c      ****             CyDelay(100); //delay(100);
 140              		.loc 1 98 0 discriminator 3
 141 004a 6420     		movs	r0, #100
 142 004c FFF7FEFF 		bl	CyDelay
 143              	.LVL19:
  95:.\main.c      ****           {
 144              		.loc 1 95 0 discriminator 3
 145 0050 013C     		subs	r4, r4, #1
 146              	.LVL20:
 147 0052 F7D1     		bne	.L4
  99:.\main.c      ****           }
 100:.\main.c      ****           CyDelay(2000); //delay(2000);
 148              		.loc 1 100 0
 149 0054 4FF4FA60 		mov	r0, #2000
 150 0058 FFF7FEFF 		bl	CyDelay
 151              	.LVL21:
 152              	.LBE2:
 101:.\main.c      ****         }   
 153              		.loc 1 101 0
 154 005c E4E7     		b	.L5
 155              	.L10:
 156 005e 00BF     		.align	2
 157              	.L9:
 158 0060 00000000 		.word	.LC0
 159              		.cfi_endproc
 160              	.LFE64:
 161              		.size	main, .-main
 162              		.section	.rodata.str1.1,"aMS",%progbits,1
 163              	.LC0:
 164 0000 76616C75 		.ascii	"value:\000"
 164      653A00
 165              		.text
 166              	.Letext0:
 167              		.file 2 "c:\\program files (x86)\\cypress\\psoc creator\\3.3\\psoc creator\\import\\gnu\\arm\\4.9.
 168              		.file 3 "c:\\program files (x86)\\cypress\\psoc creator\\3.3\\psoc creator\\import\\gnu\\arm\\4.9.
 169              		.file 4 "Generated_Source\\PSoC5/cytypes.h"
 170              		.file 5 "Generated_Source\\PSoC5/SPIM.h"
 171              		.file 6 "Generated_Source\\PSoC5/LCD.h"
 172              		.file 7 "Generated_Source\\PSoC5/CyLib.h"
 173              		.file 8 "Generated_Source\\PSoC5/core_cm3.h"