ARM GAS  C:\Users\jthem\AppData\Local\Temp\ccPWahqz.s 			page 1


   1              		.syntax unified
   2              		.cpu cortex-m3
   3              		.fpu softvfp
   4              		.eabi_attribute 20, 1
   5              		.eabi_attribute 21, 1
   6              		.eabi_attribute 23, 3
   7              		.eabi_attribute 24, 1
   8              		.eabi_attribute 25, 1
   9              		.eabi_attribute 26, 1
  10              		.eabi_attribute 30, 4
  11              		.eabi_attribute 34, 1
  12              		.eabi_attribute 18, 4
  13              		.thumb
  14              		.file	"SPIS_INT.c"
  15              		.text
  16              	.Ltext0:
  17              		.cfi_sections	.debug_frame
  18              		.section	.text.SPIS_TX_ISR,"ax",%progbits
  19              		.align	1
  20              		.global	SPIS_TX_ISR
  21              		.thumb
  22              		.thumb_func
  23              		.type	SPIS_TX_ISR, %function
  24              	SPIS_TX_ISR:
  25              	.LFB0:
  26              		.file 1 ".\\Generated_Source\\PSoC5\\SPIS_INT.c"
   1:.\Generated_Source\PSoC5/SPIS_INT.c **** /*******************************************************************************
   2:.\Generated_Source\PSoC5/SPIS_INT.c **** * File Name: SPIS_INT.c
   3:.\Generated_Source\PSoC5/SPIS_INT.c **** * Version 2.70
   4:.\Generated_Source\PSoC5/SPIS_INT.c **** *
   5:.\Generated_Source\PSoC5/SPIS_INT.c **** * Description:
   6:.\Generated_Source\PSoC5/SPIS_INT.c **** *  This file provides all Interrupt Service Routine (ISR) for the SPI Slave
   7:.\Generated_Source\PSoC5/SPIS_INT.c **** *  component.
   8:.\Generated_Source\PSoC5/SPIS_INT.c **** *
   9:.\Generated_Source\PSoC5/SPIS_INT.c **** * Note:
  10:.\Generated_Source\PSoC5/SPIS_INT.c **** *  None.
  11:.\Generated_Source\PSoC5/SPIS_INT.c **** *
  12:.\Generated_Source\PSoC5/SPIS_INT.c **** ********************************************************************************
  13:.\Generated_Source\PSoC5/SPIS_INT.c **** * Copyright 2008-2015, Cypress Semiconductor Corporation.  All rights reserved.
  14:.\Generated_Source\PSoC5/SPIS_INT.c **** * You may use this file only in accordance with the license, terms, conditions,
  15:.\Generated_Source\PSoC5/SPIS_INT.c **** * disclaimers, and limitations in the end user license agreement accompanying
  16:.\Generated_Source\PSoC5/SPIS_INT.c **** * the software package with which this file was provided.
  17:.\Generated_Source\PSoC5/SPIS_INT.c **** *******************************************************************************/
  18:.\Generated_Source\PSoC5/SPIS_INT.c **** 
  19:.\Generated_Source\PSoC5/SPIS_INT.c **** #include "SPIS_PVT.h"
  20:.\Generated_Source\PSoC5/SPIS_INT.c **** #include "cyapicallbacks.h"
  21:.\Generated_Source\PSoC5/SPIS_INT.c **** 
  22:.\Generated_Source\PSoC5/SPIS_INT.c **** /* User code required at start of ISR */
  23:.\Generated_Source\PSoC5/SPIS_INT.c **** /* `#START SPIS_ISR_START_DEF` */
  24:.\Generated_Source\PSoC5/SPIS_INT.c **** 
  25:.\Generated_Source\PSoC5/SPIS_INT.c **** /* `#END` */
  26:.\Generated_Source\PSoC5/SPIS_INT.c **** 
  27:.\Generated_Source\PSoC5/SPIS_INT.c **** 
  28:.\Generated_Source\PSoC5/SPIS_INT.c **** /*******************************************************************************
  29:.\Generated_Source\PSoC5/SPIS_INT.c **** * Function Name: SPIS_TX_ISR
  30:.\Generated_Source\PSoC5/SPIS_INT.c **** *
  31:.\Generated_Source\PSoC5/SPIS_INT.c **** * Summary:
ARM GAS  C:\Users\jthem\AppData\Local\Temp\ccPWahqz.s 			page 2


  32:.\Generated_Source\PSoC5/SPIS_INT.c **** *  Interrupt Service Routine for TX portion of the SPI Slave.
  33:.\Generated_Source\PSoC5/SPIS_INT.c **** *
  34:.\Generated_Source\PSoC5/SPIS_INT.c **** * Parameters:
  35:.\Generated_Source\PSoC5/SPIS_INT.c **** *  None.
  36:.\Generated_Source\PSoC5/SPIS_INT.c **** *
  37:.\Generated_Source\PSoC5/SPIS_INT.c **** * Return:
  38:.\Generated_Source\PSoC5/SPIS_INT.c **** *  None.
  39:.\Generated_Source\PSoC5/SPIS_INT.c **** *
  40:.\Generated_Source\PSoC5/SPIS_INT.c **** * Global variables:
  41:.\Generated_Source\PSoC5/SPIS_INT.c **** *  SPIS_txBufferWrite - used for the account of the bytes which
  42:.\Generated_Source\PSoC5/SPIS_INT.c **** *  have been written down in the TX software buffer.
  43:.\Generated_Source\PSoC5/SPIS_INT.c **** *  SPIS_txBufferRead - used for the account of the bytes which
  44:.\Generated_Source\PSoC5/SPIS_INT.c **** *  have been read from the TX software buffer, modified when exist data to
  45:.\Generated_Source\PSoC5/SPIS_INT.c **** *  sending and FIFO Not Full.
  46:.\Generated_Source\PSoC5/SPIS_INT.c **** *  SPIS_txBuffer[SPIS_TX_BUFFER_SIZE] - used to store
  47:.\Generated_Source\PSoC5/SPIS_INT.c **** *  data to sending.
  48:.\Generated_Source\PSoC5/SPIS_INT.c **** *  All described above Global variables are used when Software Buffer is used.
  49:.\Generated_Source\PSoC5/SPIS_INT.c **** *
  50:.\Generated_Source\PSoC5/SPIS_INT.c **** *******************************************************************************/
  51:.\Generated_Source\PSoC5/SPIS_INT.c **** CY_ISR(SPIS_TX_ISR)
  52:.\Generated_Source\PSoC5/SPIS_INT.c **** {
  27              		.loc 1 52 0
  28              		.cfi_startproc
  29              		@ args = 0, pretend = 0, frame = 0
  30              		@ frame_needed = 0, uses_anonymous_args = 0
  31 0000 30B5     		push	{r4, r5, lr}
  32              		.cfi_def_cfa_offset 12
  33              		.cfi_offset 4, -12
  34              		.cfi_offset 5, -8
  35              		.cfi_offset 14, -4
  36              	.L2:
  53:.\Generated_Source\PSoC5/SPIS_INT.c **** 
  54:.\Generated_Source\PSoC5/SPIS_INT.c ****     #if(SPIS_TX_SOFTWARE_BUF_ENABLED)
  55:.\Generated_Source\PSoC5/SPIS_INT.c ****         uint8 tmpStatus;
  56:.\Generated_Source\PSoC5/SPIS_INT.c ****     #endif /* (SPIS_TX_SOFTWARE_BUF_ENABLED) */
  57:.\Generated_Source\PSoC5/SPIS_INT.c **** 
  58:.\Generated_Source\PSoC5/SPIS_INT.c ****     #ifdef SPIS_TX_ISR_ENTRY_CALLBACK
  59:.\Generated_Source\PSoC5/SPIS_INT.c ****         SPIS_TX_ISR_EntryCallback();
  60:.\Generated_Source\PSoC5/SPIS_INT.c ****     #endif /* SPIS_TX_ISR_ENTRY_CALLBACK */
  61:.\Generated_Source\PSoC5/SPIS_INT.c **** 
  62:.\Generated_Source\PSoC5/SPIS_INT.c ****     /* User code required at start of ISR */
  63:.\Generated_Source\PSoC5/SPIS_INT.c ****     /* `#START SPIS_ISR_TX_START` */
  64:.\Generated_Source\PSoC5/SPIS_INT.c **** 
  65:.\Generated_Source\PSoC5/SPIS_INT.c ****     /* `#END` */
  66:.\Generated_Source\PSoC5/SPIS_INT.c **** 
  67:.\Generated_Source\PSoC5/SPIS_INT.c ****     #if(SPIS_TX_SOFTWARE_BUF_ENABLED)
  68:.\Generated_Source\PSoC5/SPIS_INT.c ****         /* Component interrupt service code */
  69:.\Generated_Source\PSoC5/SPIS_INT.c **** 
  70:.\Generated_Source\PSoC5/SPIS_INT.c ****         /* See if TX data buffer is not empty and there is space in TX FIFO */
  71:.\Generated_Source\PSoC5/SPIS_INT.c ****         while(SPIS_txBufferRead != SPIS_txBufferWrite)
  37              		.loc 1 71 0
  38 0002 1B4B     		ldr	r3, .L11
  39 0004 1B4A     		ldr	r2, .L11+4
  40 0006 1878     		ldrb	r0, [r3]	@ zero_extendqisi2
  41 0008 1178     		ldrb	r1, [r2]	@ zero_extendqisi2
  42 000a 1C46     		mov	r4, r3
  43 000c 8842     		cmp	r0, r1
ARM GAS  C:\Users\jthem\AppData\Local\Temp\ccPWahqz.s 			page 3


  44 000e 1146     		mov	r1, r2
  45 0010 0AD0     		beq	.L9
  72:.\Generated_Source\PSoC5/SPIS_INT.c ****         {
  73:.\Generated_Source\PSoC5/SPIS_INT.c ****             tmpStatus = SPIS_GET_STATUS_TX(SPIS_swStatusTx);
  46              		.loc 1 73 0
  47 0012 1948     		ldr	r0, .L11+8
  48 0014 194A     		ldr	r2, .L11+12
  49 0016 1578     		ldrb	r5, [r2]	@ zero_extendqisi2
  50 0018 0278     		ldrb	r2, [r0]	@ zero_extendqisi2
  51 001a 02F06102 		and	r2, r2, #97
  52 001e 2A43     		orrs	r2, r2, r5
  53              	.LVL0:
  74:.\Generated_Source\PSoC5/SPIS_INT.c ****             SPIS_swStatusTx = tmpStatus;
  54              		.loc 1 74 0
  55 0020 0270     		strb	r2, [r0]
  75:.\Generated_Source\PSoC5/SPIS_INT.c **** 
  76:.\Generated_Source\PSoC5/SPIS_INT.c ****             if ((SPIS_swStatusTx & SPIS_STS_TX_FIFO_NOT_FULL) != 0u)
  56              		.loc 1 76 0
  57 0022 0278     		ldrb	r2, [r0]	@ zero_extendqisi2
  58              	.LVL1:
  59 0024 9207     		lsls	r2, r2, #30
  60 0026 09D4     		bmi	.L3
  61              	.LVL2:
  62              	.L9:
  77:.\Generated_Source\PSoC5/SPIS_INT.c ****             {
  78:.\Generated_Source\PSoC5/SPIS_INT.c ****                 if(SPIS_txBufferFull == 0u)
  79:.\Generated_Source\PSoC5/SPIS_INT.c ****                 {
  80:.\Generated_Source\PSoC5/SPIS_INT.c ****                    SPIS_txBufferRead++;
  81:.\Generated_Source\PSoC5/SPIS_INT.c **** 
  82:.\Generated_Source\PSoC5/SPIS_INT.c ****                     if(SPIS_txBufferRead >= SPIS_TX_BUFFER_SIZE)
  83:.\Generated_Source\PSoC5/SPIS_INT.c ****                     {
  84:.\Generated_Source\PSoC5/SPIS_INT.c ****                         SPIS_txBufferRead = 0u;
  85:.\Generated_Source\PSoC5/SPIS_INT.c ****                     }
  86:.\Generated_Source\PSoC5/SPIS_INT.c ****                 }
  87:.\Generated_Source\PSoC5/SPIS_INT.c ****                 else
  88:.\Generated_Source\PSoC5/SPIS_INT.c ****                 {
  89:.\Generated_Source\PSoC5/SPIS_INT.c ****                     SPIS_txBufferFull = 0u;
  90:.\Generated_Source\PSoC5/SPIS_INT.c ****                 }
  91:.\Generated_Source\PSoC5/SPIS_INT.c **** 
  92:.\Generated_Source\PSoC5/SPIS_INT.c ****                 /* Put data element into the TX FIFO */
  93:.\Generated_Source\PSoC5/SPIS_INT.c ****                 CY_SET_REG8(SPIS_TXDATA_PTR, 
  94:.\Generated_Source\PSoC5/SPIS_INT.c ****                                              SPIS_txBuffer[SPIS_txBufferRead]);
  95:.\Generated_Source\PSoC5/SPIS_INT.c ****             }
  96:.\Generated_Source\PSoC5/SPIS_INT.c ****             else
  97:.\Generated_Source\PSoC5/SPIS_INT.c ****             {
  98:.\Generated_Source\PSoC5/SPIS_INT.c ****                 break;
  99:.\Generated_Source\PSoC5/SPIS_INT.c ****             }
 100:.\Generated_Source\PSoC5/SPIS_INT.c ****         }
 101:.\Generated_Source\PSoC5/SPIS_INT.c **** 
 102:.\Generated_Source\PSoC5/SPIS_INT.c ****         /* If Buffer is empty then disable TX FIFO status interrupt until there is data in the buff
 103:.\Generated_Source\PSoC5/SPIS_INT.c ****         if(SPIS_txBufferRead == SPIS_txBufferWrite)
  63              		.loc 1 103 0
  64 0028 2278     		ldrb	r2, [r4]	@ zero_extendqisi2
  65 002a 0B78     		ldrb	r3, [r1]	@ zero_extendqisi2
  66 002c 9A42     		cmp	r2, r3
  67 002e 1DD1     		bne	.L1
 104:.\Generated_Source\PSoC5/SPIS_INT.c ****         {
ARM GAS  C:\Users\jthem\AppData\Local\Temp\ccPWahqz.s 			page 4


 105:.\Generated_Source\PSoC5/SPIS_INT.c ****             SPIS_TX_STATUS_MASK_REG &= ((uint8)~SPIS_STS_TX_FIFO_NOT_FULL);
  68              		.loc 1 105 0
  69 0030 134A     		ldr	r2, .L11+16
  70 0032 1378     		ldrb	r3, [r2]	@ zero_extendqisi2
  71 0034 03F0FD03 		and	r3, r3, #253
  72 0038 1370     		strb	r3, [r2]
  73 003a 17E0     		b	.L1
  74              	.LVL3:
  75              	.L3:
  78:.\Generated_Source\PSoC5/SPIS_INT.c ****                 {
  76              		.loc 1 78 0
  77 003c 114A     		ldr	r2, .L11+20
  78 003e 1178     		ldrb	r1, [r2]	@ zero_extendqisi2
  79 0040 01F0FF00 		and	r0, r1, #255
  80              	.LVL4:
  81 0044 41B9     		cbnz	r1, .L6
  80:.\Generated_Source\PSoC5/SPIS_INT.c **** 
  82              		.loc 1 80 0
  83 0046 1A78     		ldrb	r2, [r3]	@ zero_extendqisi2
  84 0048 0132     		adds	r2, r2, #1
  85 004a D2B2     		uxtb	r2, r2
  86 004c 1A70     		strb	r2, [r3]
  87              	.LVL5:
  82:.\Generated_Source\PSoC5/SPIS_INT.c ****                     {
  88              		.loc 1 82 0
  89 004e 1A78     		ldrb	r2, [r3]	@ zero_extendqisi2
  90 0050 072A     		cmp	r2, #7
  91 0052 03D9     		bls	.L7
  84:.\Generated_Source\PSoC5/SPIS_INT.c ****                     }
  92              		.loc 1 84 0
  93 0054 1870     		strb	r0, [r3]
  94 0056 01E0     		b	.L7
  95              	.LVL6:
  96              	.L6:
  89:.\Generated_Source\PSoC5/SPIS_INT.c ****                 }
  97              		.loc 1 89 0
  98 0058 0021     		movs	r1, #0
  99 005a 1170     		strb	r1, [r2]
 100              	.LVL7:
 101              	.L7:
  93:.\Generated_Source\PSoC5/SPIS_INT.c ****                                              SPIS_txBuffer[SPIS_txBufferRead]);
 102              		.loc 1 93 0
 103 005c 1B78     		ldrb	r3, [r3]	@ zero_extendqisi2
 104 005e 0A4A     		ldr	r2, .L11+24
 105 0060 DBB2     		uxtb	r3, r3
 106 0062 D35C     		ldrb	r3, [r2, r3]	@ zero_extendqisi2
 107 0064 094A     		ldr	r2, .L11+28
 108 0066 DBB2     		uxtb	r3, r3
 109 0068 1370     		strb	r3, [r2]
 110 006a CAE7     		b	.L2
 111              	.L1:
 112 006c 30BD     		pop	{r4, r5, pc}
 113              	.L12:
 114 006e 00BF     		.align	2
 115              	.L11:
 116 0070 00000000 		.word	SPIS_txBufferRead
 117 0074 00000000 		.word	SPIS_txBufferWrite
ARM GAS  C:\Users\jthem\AppData\Local\Temp\ccPWahqz.s 			page 5


 118 0078 00000000 		.word	SPIS_swStatusTx
 119 007c 66640040 		.word	1073767526
 120 0080 86640040 		.word	1073767558
 121 0084 00000000 		.word	SPIS_txBufferFull
 122 0088 00000000 		.word	SPIS_txBuffer
 123 008c 44640040 		.word	1073767492
 124              		.cfi_endproc
 125              	.LFE0:
 126              		.size	SPIS_TX_ISR, .-SPIS_TX_ISR
 127              		.section	.text.SPIS_RX_ISR,"ax",%progbits
 128              		.align	1
 129              		.global	SPIS_RX_ISR
 130              		.thumb
 131              		.thumb_func
 132              		.type	SPIS_RX_ISR, %function
 133              	SPIS_RX_ISR:
 134              	.LFB1:
 106:.\Generated_Source\PSoC5/SPIS_INT.c ****         }
 107:.\Generated_Source\PSoC5/SPIS_INT.c **** 
 108:.\Generated_Source\PSoC5/SPIS_INT.c ****     #endif /* SPIS_TX_SOFTWARE_BUF_ENABLED */
 109:.\Generated_Source\PSoC5/SPIS_INT.c **** 
 110:.\Generated_Source\PSoC5/SPIS_INT.c ****     /* User code required at end of ISR (Optional) */
 111:.\Generated_Source\PSoC5/SPIS_INT.c ****     /* `#START SPIS_ISR_TX_END` */
 112:.\Generated_Source\PSoC5/SPIS_INT.c **** 
 113:.\Generated_Source\PSoC5/SPIS_INT.c ****     /* `#END` */
 114:.\Generated_Source\PSoC5/SPIS_INT.c ****     
 115:.\Generated_Source\PSoC5/SPIS_INT.c ****     #ifdef SPIS_TX_ISR_EXIT_CALLBACK
 116:.\Generated_Source\PSoC5/SPIS_INT.c ****         SPIS_TX_ISR_ExitCallback();
 117:.\Generated_Source\PSoC5/SPIS_INT.c ****     #endif /* SPIS_TX_ISR_EXIT_CALLBACK */
 118:.\Generated_Source\PSoC5/SPIS_INT.c ****    }
 119:.\Generated_Source\PSoC5/SPIS_INT.c **** 
 120:.\Generated_Source\PSoC5/SPIS_INT.c **** 
 121:.\Generated_Source\PSoC5/SPIS_INT.c **** /*******************************************************************************
 122:.\Generated_Source\PSoC5/SPIS_INT.c **** * Function Name: SPIS_RX_ISR
 123:.\Generated_Source\PSoC5/SPIS_INT.c **** *
 124:.\Generated_Source\PSoC5/SPIS_INT.c **** * Summary:
 125:.\Generated_Source\PSoC5/SPIS_INT.c **** *  Interrupt Service Routine for RX portion of the SPI Slave.
 126:.\Generated_Source\PSoC5/SPIS_INT.c **** *
 127:.\Generated_Source\PSoC5/SPIS_INT.c **** * Parameters:
 128:.\Generated_Source\PSoC5/SPIS_INT.c **** *  None.
 129:.\Generated_Source\PSoC5/SPIS_INT.c **** *
 130:.\Generated_Source\PSoC5/SPIS_INT.c **** * Return:
 131:.\Generated_Source\PSoC5/SPIS_INT.c **** *  None.
 132:.\Generated_Source\PSoC5/SPIS_INT.c **** *
 133:.\Generated_Source\PSoC5/SPIS_INT.c **** * Global variables:
 134:.\Generated_Source\PSoC5/SPIS_INT.c **** *  SPIS_rxBufferWrite - used for the account of the bytes which
 135:.\Generated_Source\PSoC5/SPIS_INT.c **** *  have been written down in the RX software buffer modified when FIFO contains
 136:.\Generated_Source\PSoC5/SPIS_INT.c **** *  new data.
 137:.\Generated_Source\PSoC5/SPIS_INT.c **** *  SPIS_rxBufferRead - used for the account of the bytes which
 138:.\Generated_Source\PSoC5/SPIS_INT.c **** *  have been read from the RX software buffer, modified when overflow occurred.
 139:.\Generated_Source\PSoC5/SPIS_INT.c **** *  SPIS_rxBuffer[SPIS_RX_BUFFER_SIZE] - used to store
 140:.\Generated_Source\PSoC5/SPIS_INT.c **** *  received data, modified when FIFO contains new data.
 141:.\Generated_Source\PSoC5/SPIS_INT.c **** *  All described above Global variables are used when Software Buffer is used.
 142:.\Generated_Source\PSoC5/SPIS_INT.c **** *
 143:.\Generated_Source\PSoC5/SPIS_INT.c **** *******************************************************************************/
 144:.\Generated_Source\PSoC5/SPIS_INT.c **** CY_ISR(SPIS_RX_ISR)
 145:.\Generated_Source\PSoC5/SPIS_INT.c **** {
ARM GAS  C:\Users\jthem\AppData\Local\Temp\ccPWahqz.s 			page 6


 135              		.loc 1 145 0
 136              		.cfi_startproc
 137              		@ args = 0, pretend = 0, frame = 0
 138              		@ frame_needed = 0, uses_anonymous_args = 0
 139 0000 70B5     		push	{r4, r5, r6, lr}
 140              		.cfi_def_cfa_offset 16
 141              		.cfi_offset 4, -16
 142              		.cfi_offset 5, -12
 143              		.cfi_offset 6, -8
 144              		.cfi_offset 14, -4
 146:.\Generated_Source\PSoC5/SPIS_INT.c ****     #if(SPIS_RX_SOFTWARE_BUF_ENABLED)
 147:.\Generated_Source\PSoC5/SPIS_INT.c ****         uint8 tmpStatus;
 148:.\Generated_Source\PSoC5/SPIS_INT.c ****         uint8 rxData;
 149:.\Generated_Source\PSoC5/SPIS_INT.c ****     #endif /* (SPIS_TX_SOFTWARE_BUF_ENABLED) */
 150:.\Generated_Source\PSoC5/SPIS_INT.c **** 
 151:.\Generated_Source\PSoC5/SPIS_INT.c ****     #ifdef SPIS_RX_ISR_ENTRY_CALLBACK
 152:.\Generated_Source\PSoC5/SPIS_INT.c ****         SPIS_RX_ISR_EntryCallback();
 153:.\Generated_Source\PSoC5/SPIS_INT.c ****     #endif /* SPIS_RX_ISR_ENTRY_CALLBACK */
 154:.\Generated_Source\PSoC5/SPIS_INT.c **** 
 155:.\Generated_Source\PSoC5/SPIS_INT.c ****     /* User code required at start of ISR */
 156:.\Generated_Source\PSoC5/SPIS_INT.c ****     /* `#START SPIS_RX_ISR_START` */
 157:.\Generated_Source\PSoC5/SPIS_INT.c **** 
 158:.\Generated_Source\PSoC5/SPIS_INT.c ****     /* `#END` */
 159:.\Generated_Source\PSoC5/SPIS_INT.c ****     
 160:.\Generated_Source\PSoC5/SPIS_INT.c ****     #if(SPIS_RX_SOFTWARE_BUF_ENABLED)
 161:.\Generated_Source\PSoC5/SPIS_INT.c ****         tmpStatus = SPIS_GET_STATUS_RX(SPIS_swStatusRx);
 145              		.loc 1 161 0
 146 0002 184C     		ldr	r4, .L21
 147 0004 184B     		ldr	r3, .L21+4
 148 0006 2178     		ldrb	r1, [r4]	@ zero_extendqisi2
 149              	.L19:
 162:.\Generated_Source\PSoC5/SPIS_INT.c ****         SPIS_swStatusRx = tmpStatus;
 163:.\Generated_Source\PSoC5/SPIS_INT.c ****         /* See if RX data FIFO has some data and if it can be moved to the RX Buffer */
 164:.\Generated_Source\PSoC5/SPIS_INT.c ****         while((SPIS_swStatusRx & SPIS_STS_RX_FIFO_NOT_EMPTY) != 0u)
 165:.\Generated_Source\PSoC5/SPIS_INT.c ****         {
 166:.\Generated_Source\PSoC5/SPIS_INT.c ****             rxData = CY_GET_REG8(SPIS_RXDATA_PTR);
 167:.\Generated_Source\PSoC5/SPIS_INT.c **** 
 168:.\Generated_Source\PSoC5/SPIS_INT.c ****             /* Set next pointer. */
 169:.\Generated_Source\PSoC5/SPIS_INT.c ****             SPIS_rxBufferWrite++;
 170:.\Generated_Source\PSoC5/SPIS_INT.c ****             if(SPIS_rxBufferWrite >= SPIS_RX_BUFFER_SIZE)
 171:.\Generated_Source\PSoC5/SPIS_INT.c ****             {
 172:.\Generated_Source\PSoC5/SPIS_INT.c ****                 SPIS_rxBufferWrite = 0u;
 173:.\Generated_Source\PSoC5/SPIS_INT.c ****             }
 174:.\Generated_Source\PSoC5/SPIS_INT.c **** 
 175:.\Generated_Source\PSoC5/SPIS_INT.c ****             if(SPIS_rxBufferWrite == SPIS_rxBufferRead)
 176:.\Generated_Source\PSoC5/SPIS_INT.c ****             {
 177:.\Generated_Source\PSoC5/SPIS_INT.c ****                 SPIS_rxBufferRead++;
 178:.\Generated_Source\PSoC5/SPIS_INT.c ****                 if(SPIS_rxBufferRead >= SPIS_RX_BUFFER_SIZE)
 179:.\Generated_Source\PSoC5/SPIS_INT.c ****                 {
 180:.\Generated_Source\PSoC5/SPIS_INT.c ****                     SPIS_rxBufferRead = 0u;
 181:.\Generated_Source\PSoC5/SPIS_INT.c ****                 }
 182:.\Generated_Source\PSoC5/SPIS_INT.c ****                 SPIS_rxBufferFull = 1u;
 183:.\Generated_Source\PSoC5/SPIS_INT.c ****             }
 184:.\Generated_Source\PSoC5/SPIS_INT.c **** 
 185:.\Generated_Source\PSoC5/SPIS_INT.c ****             /* Move data from the FIFO to the Buffer */
 186:.\Generated_Source\PSoC5/SPIS_INT.c ****             SPIS_rxBuffer[SPIS_rxBufferWrite] = rxData;
 187:.\Generated_Source\PSoC5/SPIS_INT.c **** 
ARM GAS  C:\Users\jthem\AppData\Local\Temp\ccPWahqz.s 			page 7


 188:.\Generated_Source\PSoC5/SPIS_INT.c ****             tmpStatus = SPIS_GET_STATUS_RX(SPIS_swStatusRx);
 150              		.loc 1 188 0
 151 0008 1A78     		ldrb	r2, [r3]	@ zero_extendqisi2
 152 000a 02F06102 		and	r2, r2, #97
 153 000e 0A43     		orrs	r2, r2, r1
 154              	.LVL8:
 189:.\Generated_Source\PSoC5/SPIS_INT.c ****             SPIS_swStatusRx = tmpStatus;
 155              		.loc 1 189 0
 156 0010 1A70     		strb	r2, [r3]
 164:.\Generated_Source\PSoC5/SPIS_INT.c ****         {
 157              		.loc 1 164 0
 158 0012 1A78     		ldrb	r2, [r3]	@ zero_extendqisi2
 159              	.LVL9:
 160 0014 1207     		lsls	r2, r2, #28
 161 0016 23D5     		bpl	.L20
 166:.\Generated_Source\PSoC5/SPIS_INT.c **** 
 162              		.loc 1 166 0
 163 0018 144A     		ldr	r2, .L21+8
 164 001a 1578     		ldrb	r5, [r2]	@ zero_extendqisi2
 169:.\Generated_Source\PSoC5/SPIS_INT.c ****             if(SPIS_rxBufferWrite >= SPIS_RX_BUFFER_SIZE)
 165              		.loc 1 169 0
 166 001c 144A     		ldr	r2, .L21+12
 166:.\Generated_Source\PSoC5/SPIS_INT.c **** 
 167              		.loc 1 166 0
 168 001e EDB2     		uxtb	r5, r5
 169              	.LVL10:
 169:.\Generated_Source\PSoC5/SPIS_INT.c ****             if(SPIS_rxBufferWrite >= SPIS_RX_BUFFER_SIZE)
 170              		.loc 1 169 0
 171 0020 1178     		ldrb	r1, [r2]	@ zero_extendqisi2
 172 0022 0131     		adds	r1, r1, #1
 173 0024 C9B2     		uxtb	r1, r1
 174 0026 1170     		strb	r1, [r2]
 175              	.LVL11:
 170:.\Generated_Source\PSoC5/SPIS_INT.c ****             {
 176              		.loc 1 170 0
 177 0028 1178     		ldrb	r1, [r2]	@ zero_extendqisi2
 178 002a 0729     		cmp	r1, #7
 172:.\Generated_Source\PSoC5/SPIS_INT.c ****             }
 179              		.loc 1 172 0
 180 002c 84BF     		itt	hi
 181 002e 0021     		movhi	r1, #0
 182 0030 1170     		strbhi	r1, [r2]
 175:.\Generated_Source\PSoC5/SPIS_INT.c ****             {
 183              		.loc 1 175 0
 184 0032 1049     		ldr	r1, .L21+16
 185 0034 1678     		ldrb	r6, [r2]	@ zero_extendqisi2
 186 0036 0878     		ldrb	r0, [r1]	@ zero_extendqisi2
 187 0038 8642     		cmp	r6, r0
 188 003a 0BD1     		bne	.L16
 177:.\Generated_Source\PSoC5/SPIS_INT.c ****                 if(SPIS_rxBufferRead >= SPIS_RX_BUFFER_SIZE)
 189              		.loc 1 177 0
 190 003c 0878     		ldrb	r0, [r1]	@ zero_extendqisi2
 191 003e 0130     		adds	r0, r0, #1
 192 0040 C0B2     		uxtb	r0, r0
 193 0042 0870     		strb	r0, [r1]
 178:.\Generated_Source\PSoC5/SPIS_INT.c ****                 {
 194              		.loc 1 178 0
ARM GAS  C:\Users\jthem\AppData\Local\Temp\ccPWahqz.s 			page 8


 195 0044 0878     		ldrb	r0, [r1]	@ zero_extendqisi2
 196 0046 0728     		cmp	r0, #7
 180:.\Generated_Source\PSoC5/SPIS_INT.c ****                 }
 197              		.loc 1 180 0
 198 0048 84BF     		itt	hi
 199 004a 0020     		movhi	r0, #0
 200 004c 0870     		strbhi	r0, [r1]
 182:.\Generated_Source\PSoC5/SPIS_INT.c ****             }
 201              		.loc 1 182 0
 202 004e 0A49     		ldr	r1, .L21+20
 203 0050 0120     		movs	r0, #1
 204 0052 0870     		strb	r0, [r1]
 205              	.L16:
 186:.\Generated_Source\PSoC5/SPIS_INT.c **** 
 206              		.loc 1 186 0
 207 0054 1278     		ldrb	r2, [r2]	@ zero_extendqisi2
 208 0056 0949     		ldr	r1, .L21+24
 209 0058 D2B2     		uxtb	r2, r2
 210 005a 8D54     		strb	r5, [r1, r2]
 188:.\Generated_Source\PSoC5/SPIS_INT.c ****             SPIS_swStatusRx = tmpStatus;
 211              		.loc 1 188 0
 212 005c 2178     		ldrb	r1, [r4]	@ zero_extendqisi2
 213 005e D3E7     		b	.L19
 214              	.LVL12:
 215              	.L20:
 190:.\Generated_Source\PSoC5/SPIS_INT.c ****         }
 191:.\Generated_Source\PSoC5/SPIS_INT.c ****     #endif /* SPIS_RX_SOFTWARE_BUF_ENABLED */
 192:.\Generated_Source\PSoC5/SPIS_INT.c **** 
 193:.\Generated_Source\PSoC5/SPIS_INT.c ****     /* User code required at end of ISR (Optional) */
 194:.\Generated_Source\PSoC5/SPIS_INT.c ****     /* `#START SPIS_RX_ISR_END` */
 195:.\Generated_Source\PSoC5/SPIS_INT.c **** 
 196:.\Generated_Source\PSoC5/SPIS_INT.c ****     /* `#END` */
 197:.\Generated_Source\PSoC5/SPIS_INT.c **** 
 198:.\Generated_Source\PSoC5/SPIS_INT.c ****     #ifdef SPIS_RX_ISR_EXIT_CALLBACK
 199:.\Generated_Source\PSoC5/SPIS_INT.c ****         SPIS_RX_ISR_ExitCallback();
 200:.\Generated_Source\PSoC5/SPIS_INT.c ****     #endif /* SPIS_RX_ISR_EXIT_CALLBACK */
 201:.\Generated_Source\PSoC5/SPIS_INT.c **** }
 216              		.loc 1 201 0
 217 0060 70BD     		pop	{r4, r5, r6, pc}
 218              	.L22:
 219 0062 00BF     		.align	2
 220              	.L21:
 221 0064 65640040 		.word	1073767525
 222 0068 00000000 		.word	SPIS_swStatusRx
 223 006c 54640040 		.word	1073767508
 224 0070 00000000 		.word	SPIS_rxBufferWrite
 225 0074 00000000 		.word	SPIS_rxBufferRead
 226 0078 00000000 		.word	SPIS_rxBufferFull
 227 007c 00000000 		.word	SPIS_rxBuffer
 228              		.cfi_endproc
 229              	.LFE1:
 230              		.size	SPIS_RX_ISR, .-SPIS_RX_ISR
 231              		.text
 232              	.Letext0:
 233              		.file 2 ".\\Generated_Source\\PSoC5\\cytypes.h"
 234              		.file 3 ".\\Generated_Source\\PSoC5\\SPIS_PVT.h"