ARM GAS  C:\Users\jthem\AppData\Local\Temp\ccz7Pj1W.s 			page 1


   1              		.syntax unified
   2              		.cpu cortex-m3
   3              		.fpu softvfp
   4              		.eabi_attribute 20, 1
   5              		.eabi_attribute 21, 1
   6              		.eabi_attribute 23, 3
   7              		.eabi_attribute 24, 1
   8              		.eabi_attribute 25, 1
   9              		.eabi_attribute 26, 1
  10              		.eabi_attribute 30, 4
  11              		.eabi_attribute 34, 1
  12              		.eabi_attribute 18, 4
  13              		.thumb
  14              		.file	"SPIS.c"
  15              		.text
  16              	.Ltext0:
  17              		.cfi_sections	.debug_frame
  18              		.section	.text.SPIS_Enable,"ax",%progbits
  19              		.align	1
  20              		.global	SPIS_Enable
  21              		.thumb
  22              		.thumb_func
  23              		.type	SPIS_Enable, %function
  24              	SPIS_Enable:
  25              	.LFB1:
  26              		.file 1 ".\\Generated_Source\\PSoC5\\SPIS.c"
   1:.\Generated_Source\PSoC5/SPIS.c **** /*******************************************************************************
   2:.\Generated_Source\PSoC5/SPIS.c **** * File Name: SPIS.c
   3:.\Generated_Source\PSoC5/SPIS.c **** * Version 2.70
   4:.\Generated_Source\PSoC5/SPIS.c **** *
   5:.\Generated_Source\PSoC5/SPIS.c **** * Description:
   6:.\Generated_Source\PSoC5/SPIS.c **** *  This file provides all API functionality of the SPI Slave component.
   7:.\Generated_Source\PSoC5/SPIS.c **** *
   8:.\Generated_Source\PSoC5/SPIS.c **** * Note:
   9:.\Generated_Source\PSoC5/SPIS.c **** *  None.
  10:.\Generated_Source\PSoC5/SPIS.c **** *
  11:.\Generated_Source\PSoC5/SPIS.c **** ********************************************************************************
  12:.\Generated_Source\PSoC5/SPIS.c **** * Copyright 2008-2015, Cypress Semiconductor Corporation.  All rights reserved.
  13:.\Generated_Source\PSoC5/SPIS.c **** * You may use this file only in accordance with the license, terms, conditions,
  14:.\Generated_Source\PSoC5/SPIS.c **** * disclaimers, and limitations in the end user license agreement accompanying
  15:.\Generated_Source\PSoC5/SPIS.c **** * the software package with which this file was provided.
  16:.\Generated_Source\PSoC5/SPIS.c **** *******************************************************************************/
  17:.\Generated_Source\PSoC5/SPIS.c **** 
  18:.\Generated_Source\PSoC5/SPIS.c **** #include "SPIS_PVT.h"
  19:.\Generated_Source\PSoC5/SPIS.c **** 
  20:.\Generated_Source\PSoC5/SPIS.c **** #if (SPIS_TX_SOFTWARE_BUF_ENABLED)
  21:.\Generated_Source\PSoC5/SPIS.c **** 
  22:.\Generated_Source\PSoC5/SPIS.c ****     volatile uint8 SPIS_txBuffer[SPIS_TX_BUFFER_SIZE];
  23:.\Generated_Source\PSoC5/SPIS.c ****     volatile uint8 SPIS_txBufferRead;
  24:.\Generated_Source\PSoC5/SPIS.c ****     volatile uint8 SPIS_txBufferWrite;
  25:.\Generated_Source\PSoC5/SPIS.c ****     volatile uint8 SPIS_txBufferFull;
  26:.\Generated_Source\PSoC5/SPIS.c **** 
  27:.\Generated_Source\PSoC5/SPIS.c **** #endif /* SPIS_TX_SOFTWARE_BUF_ENABLED*/
  28:.\Generated_Source\PSoC5/SPIS.c **** 
  29:.\Generated_Source\PSoC5/SPIS.c **** #if (SPIS_RX_SOFTWARE_BUF_ENABLED)
  30:.\Generated_Source\PSoC5/SPIS.c **** 
  31:.\Generated_Source\PSoC5/SPIS.c ****     volatile uint8 SPIS_rxBuffer[SPIS_RX_BUFFER_SIZE];
ARM GAS  C:\Users\jthem\AppData\Local\Temp\ccz7Pj1W.s 			page 2


  32:.\Generated_Source\PSoC5/SPIS.c ****     volatile uint8 SPIS_rxBufferRead;
  33:.\Generated_Source\PSoC5/SPIS.c ****     volatile uint8 SPIS_rxBufferWrite;
  34:.\Generated_Source\PSoC5/SPIS.c ****     volatile uint8 SPIS_rxBufferFull;
  35:.\Generated_Source\PSoC5/SPIS.c **** 
  36:.\Generated_Source\PSoC5/SPIS.c **** #endif /* SPIS_RX_SOFTWARE_BUF_ENABLED */
  37:.\Generated_Source\PSoC5/SPIS.c **** 
  38:.\Generated_Source\PSoC5/SPIS.c **** uint8 SPIS_initVar = 0u;
  39:.\Generated_Source\PSoC5/SPIS.c **** 
  40:.\Generated_Source\PSoC5/SPIS.c **** volatile uint8 SPIS_swStatusTx;
  41:.\Generated_Source\PSoC5/SPIS.c **** volatile uint8 SPIS_swStatusRx;
  42:.\Generated_Source\PSoC5/SPIS.c **** 
  43:.\Generated_Source\PSoC5/SPIS.c **** 
  44:.\Generated_Source\PSoC5/SPIS.c **** /*******************************************************************************
  45:.\Generated_Source\PSoC5/SPIS.c **** * Function Name: SPIS_Init
  46:.\Generated_Source\PSoC5/SPIS.c **** ********************************************************************************
  47:.\Generated_Source\PSoC5/SPIS.c **** *
  48:.\Generated_Source\PSoC5/SPIS.c **** * Summary:
  49:.\Generated_Source\PSoC5/SPIS.c **** *  Inits/Restores default SPIS configuration provided with customizer.
  50:.\Generated_Source\PSoC5/SPIS.c **** *
  51:.\Generated_Source\PSoC5/SPIS.c **** * Parameters:
  52:.\Generated_Source\PSoC5/SPIS.c **** *  None.
  53:.\Generated_Source\PSoC5/SPIS.c **** *
  54:.\Generated_Source\PSoC5/SPIS.c **** * Return:
  55:.\Generated_Source\PSoC5/SPIS.c **** *  None.
  56:.\Generated_Source\PSoC5/SPIS.c **** *
  57:.\Generated_Source\PSoC5/SPIS.c **** * Side Effects:
  58:.\Generated_Source\PSoC5/SPIS.c **** *  When this function is called it initializes all of the necessary parameters
  59:.\Generated_Source\PSoC5/SPIS.c **** *  for execution. i.e. setting the initial interrupt mask, configuring the
  60:.\Generated_Source\PSoC5/SPIS.c **** *  interrupt service routine, configuring the bit-counter parameters and
  61:.\Generated_Source\PSoC5/SPIS.c **** *  clearing the FIFO and Status Register.
  62:.\Generated_Source\PSoC5/SPIS.c **** *
  63:.\Generated_Source\PSoC5/SPIS.c **** * Reentrant:
  64:.\Generated_Source\PSoC5/SPIS.c **** *  No.
  65:.\Generated_Source\PSoC5/SPIS.c **** *
  66:.\Generated_Source\PSoC5/SPIS.c **** *******************************************************************************/
  67:.\Generated_Source\PSoC5/SPIS.c **** void SPIS_Init(void) 
  68:.\Generated_Source\PSoC5/SPIS.c **** {
  69:.\Generated_Source\PSoC5/SPIS.c ****     /*Initialize the Bit counter */
  70:.\Generated_Source\PSoC5/SPIS.c ****     SPIS_COUNTER_PERIOD_REG = SPIS_BITCTR_INIT;
  71:.\Generated_Source\PSoC5/SPIS.c **** 
  72:.\Generated_Source\PSoC5/SPIS.c ****     /* ISR initialization */
  73:.\Generated_Source\PSoC5/SPIS.c ****     #if(SPIS_INTERNAL_TX_INT_ENABLED)
  74:.\Generated_Source\PSoC5/SPIS.c **** 
  75:.\Generated_Source\PSoC5/SPIS.c ****         CyIntDisable(SPIS_TX_ISR_NUMBER);
  76:.\Generated_Source\PSoC5/SPIS.c **** 
  77:.\Generated_Source\PSoC5/SPIS.c ****         /* Set the ISR to point to the SPIS_isr Interrupt. */
  78:.\Generated_Source\PSoC5/SPIS.c ****         (void)CyIntSetVector(SPIS_TX_ISR_NUMBER, &SPIS_TX_ISR);
  79:.\Generated_Source\PSoC5/SPIS.c **** 
  80:.\Generated_Source\PSoC5/SPIS.c ****         /* Set the priority. */
  81:.\Generated_Source\PSoC5/SPIS.c ****         CyIntSetPriority(SPIS_TX_ISR_NUMBER, SPIS_TX_ISR_PRIORITY);
  82:.\Generated_Source\PSoC5/SPIS.c **** 
  83:.\Generated_Source\PSoC5/SPIS.c ****     #endif /* SPIS_INTERNAL_TX_INT_ENABLED */
  84:.\Generated_Source\PSoC5/SPIS.c **** 
  85:.\Generated_Source\PSoC5/SPIS.c ****     #if(SPIS_INTERNAL_RX_INT_ENABLED)
  86:.\Generated_Source\PSoC5/SPIS.c **** 
  87:.\Generated_Source\PSoC5/SPIS.c ****         CyIntDisable(SPIS_RX_ISR_NUMBER);
  88:.\Generated_Source\PSoC5/SPIS.c **** 
ARM GAS  C:\Users\jthem\AppData\Local\Temp\ccz7Pj1W.s 			page 3


  89:.\Generated_Source\PSoC5/SPIS.c ****         /* Set the ISR to point to the SPIS_isr Interrupt. */
  90:.\Generated_Source\PSoC5/SPIS.c ****         (void)CyIntSetVector(SPIS_RX_ISR_NUMBER, &SPIS_RX_ISR);
  91:.\Generated_Source\PSoC5/SPIS.c **** 
  92:.\Generated_Source\PSoC5/SPIS.c ****         /* Set the priority. */
  93:.\Generated_Source\PSoC5/SPIS.c ****         CyIntSetPriority(SPIS_RX_ISR_NUMBER, SPIS_RX_ISR_PRIORITY);
  94:.\Generated_Source\PSoC5/SPIS.c **** 
  95:.\Generated_Source\PSoC5/SPIS.c ****     #endif /* SPIS_INTERNAL_RX_INT_ENABLED */
  96:.\Generated_Source\PSoC5/SPIS.c **** 
  97:.\Generated_Source\PSoC5/SPIS.c ****     /* Clear any stray data from the RX and TX FIFO */
  98:.\Generated_Source\PSoC5/SPIS.c ****     SPIS_ClearFIFO();
  99:.\Generated_Source\PSoC5/SPIS.c **** 
 100:.\Generated_Source\PSoC5/SPIS.c ****     #if(SPIS_RX_SOFTWARE_BUF_ENABLED)
 101:.\Generated_Source\PSoC5/SPIS.c ****         SPIS_rxBufferFull = 0u;
 102:.\Generated_Source\PSoC5/SPIS.c ****         SPIS_rxBufferRead = 0u;
 103:.\Generated_Source\PSoC5/SPIS.c ****         SPIS_rxBufferWrite = 0u;
 104:.\Generated_Source\PSoC5/SPIS.c ****     #endif /* SPIS_RX_SOFTWARE_BUF_ENABLED */
 105:.\Generated_Source\PSoC5/SPIS.c **** 
 106:.\Generated_Source\PSoC5/SPIS.c ****     #if(SPIS_TX_SOFTWARE_BUF_ENABLED)
 107:.\Generated_Source\PSoC5/SPIS.c ****         SPIS_txBufferFull = 0u;
 108:.\Generated_Source\PSoC5/SPIS.c ****         SPIS_txBufferRead = 0u;
 109:.\Generated_Source\PSoC5/SPIS.c ****         SPIS_txBufferWrite = 0u;
 110:.\Generated_Source\PSoC5/SPIS.c ****     #endif /* SPIS_TX_SOFTWARE_BUF_ENABLED */
 111:.\Generated_Source\PSoC5/SPIS.c **** 
 112:.\Generated_Source\PSoC5/SPIS.c ****     (void) SPIS_ReadTxStatus(); /* Clear any pending status bits */
 113:.\Generated_Source\PSoC5/SPIS.c ****     (void) SPIS_ReadRxStatus(); /* Clear any pending status bits */
 114:.\Generated_Source\PSoC5/SPIS.c **** 
 115:.\Generated_Source\PSoC5/SPIS.c **** 
 116:.\Generated_Source\PSoC5/SPIS.c ****     /* Configure the Initial interrupt mask */
 117:.\Generated_Source\PSoC5/SPIS.c ****     #if (SPIS_TX_SOFTWARE_BUF_ENABLED)
 118:.\Generated_Source\PSoC5/SPIS.c ****         SPIS_TX_STATUS_MASK_REG  = (SPIS_TX_INIT_INTERRUPTS_MASK &
 119:.\Generated_Source\PSoC5/SPIS.c ****                                                 (uint8)~SPIS_STS_TX_FIFO_NOT_FULL);
 120:.\Generated_Source\PSoC5/SPIS.c ****     #else /* SPIS_TX_SOFTWARE_BUF_ENABLED */
 121:.\Generated_Source\PSoC5/SPIS.c ****         SPIS_TX_STATUS_MASK_REG  = SPIS_TX_INIT_INTERRUPTS_MASK;
 122:.\Generated_Source\PSoC5/SPIS.c ****     #endif /* SPIS_TX_SOFTWARE_BUF_ENABLED */
 123:.\Generated_Source\PSoC5/SPIS.c **** 
 124:.\Generated_Source\PSoC5/SPIS.c ****     SPIS_RX_STATUS_MASK_REG  = SPIS_RX_INIT_INTERRUPTS_MASK;
 125:.\Generated_Source\PSoC5/SPIS.c **** }
 126:.\Generated_Source\PSoC5/SPIS.c **** 
 127:.\Generated_Source\PSoC5/SPIS.c **** 
 128:.\Generated_Source\PSoC5/SPIS.c **** /*******************************************************************************
 129:.\Generated_Source\PSoC5/SPIS.c **** * Function Name: SPIS_Enable
 130:.\Generated_Source\PSoC5/SPIS.c **** ********************************************************************************
 131:.\Generated_Source\PSoC5/SPIS.c **** *
 132:.\Generated_Source\PSoC5/SPIS.c **** * Summary:
 133:.\Generated_Source\PSoC5/SPIS.c **** *  Enable SPIS component.
 134:.\Generated_Source\PSoC5/SPIS.c **** *
 135:.\Generated_Source\PSoC5/SPIS.c **** * Parameters:
 136:.\Generated_Source\PSoC5/SPIS.c **** *  None.
 137:.\Generated_Source\PSoC5/SPIS.c **** *
 138:.\Generated_Source\PSoC5/SPIS.c **** * Return:
 139:.\Generated_Source\PSoC5/SPIS.c **** *  None.
 140:.\Generated_Source\PSoC5/SPIS.c **** *
 141:.\Generated_Source\PSoC5/SPIS.c **** *******************************************************************************/
 142:.\Generated_Source\PSoC5/SPIS.c **** void SPIS_Enable(void) 
 143:.\Generated_Source\PSoC5/SPIS.c **** {
  27              		.loc 1 143 0
  28              		.cfi_startproc
ARM GAS  C:\Users\jthem\AppData\Local\Temp\ccz7Pj1W.s 			page 4


  29              		@ args = 0, pretend = 0, frame = 0
  30              		@ frame_needed = 0, uses_anonymous_args = 0
  31 0000 08B5     		push	{r3, lr}
  32              		.cfi_def_cfa_offset 8
  33              		.cfi_offset 3, -8
  34              		.cfi_offset 14, -4
 144:.\Generated_Source\PSoC5/SPIS.c ****     uint8 enableInterrupts;
 145:.\Generated_Source\PSoC5/SPIS.c ****     enableInterrupts = CyEnterCriticalSection();
  35              		.loc 1 145 0
  36 0002 FFF7FEFF 		bl	CyEnterCriticalSection
  37              	.LVL0:
 146:.\Generated_Source\PSoC5/SPIS.c **** 
 147:.\Generated_Source\PSoC5/SPIS.c ****     SPIS_COUNTER_CONTROL_REG |= SPIS_CNTR_ENABLE;
  38              		.loc 1 147 0
  39 0006 0C4A     		ldr	r2, .L2
  40 0008 1378     		ldrb	r3, [r2]	@ zero_extendqisi2
  41 000a 43F02003 		orr	r3, r3, #32
  42 000e 1370     		strb	r3, [r2]
 148:.\Generated_Source\PSoC5/SPIS.c ****     SPIS_TX_STATUS_ACTL_REG |= SPIS_INT_ENABLE;
  43              		.loc 1 148 0
  44 0010 12F8013C 		ldrb	r3, [r2, #-1]	@ zero_extendqisi2
  45 0014 43F01003 		orr	r3, r3, #16
  46 0018 02F8013C 		strb	r3, [r2, #-1]
 149:.\Generated_Source\PSoC5/SPIS.c ****     SPIS_RX_STATUS_ACTL_REG |= SPIS_INT_ENABLE;
  47              		.loc 1 149 0
  48 001c 12F8023C 		ldrb	r3, [r2, #-2]	@ zero_extendqisi2
  49 0020 43F01003 		orr	r3, r3, #16
  50 0024 02F8023C 		strb	r3, [r2, #-2]
 150:.\Generated_Source\PSoC5/SPIS.c **** 
 151:.\Generated_Source\PSoC5/SPIS.c ****     CyExitCriticalSection(enableInterrupts);
  51              		.loc 1 151 0
  52 0028 FFF7FEFF 		bl	CyExitCriticalSection
  53              	.LVL1:
 152:.\Generated_Source\PSoC5/SPIS.c **** 
 153:.\Generated_Source\PSoC5/SPIS.c ****     #if(SPIS_INTERNAL_TX_INT_ENABLED)
 154:.\Generated_Source\PSoC5/SPIS.c ****         CyIntEnable(SPIS_TX_ISR_NUMBER);
  54              		.loc 1 154 0
  55 002c 034B     		ldr	r3, .L2+4
  56 002e 0822     		movs	r2, #8
  57 0030 1A60     		str	r2, [r3]
 155:.\Generated_Source\PSoC5/SPIS.c ****     #endif /* SPIS_INTERNAL_TX_INT_ENABLED */
 156:.\Generated_Source\PSoC5/SPIS.c **** 
 157:.\Generated_Source\PSoC5/SPIS.c ****     #if(SPIS_INTERNAL_RX_INT_ENABLED)
 158:.\Generated_Source\PSoC5/SPIS.c ****         CyIntEnable(SPIS_RX_ISR_NUMBER);
  58              		.loc 1 158 0
  59 0032 0422     		movs	r2, #4
  60 0034 1A60     		str	r2, [r3]
  61 0036 08BD     		pop	{r3, pc}
  62              	.L3:
  63              		.align	2
  64              	.L2:
  65 0038 97640040 		.word	1073767575
  66 003c 00E100E0 		.word	-536813312
  67              		.cfi_endproc
  68              	.LFE1:
  69              		.size	SPIS_Enable, .-SPIS_Enable
  70              		.section	.text.SPIS_Stop,"ax",%progbits
ARM GAS  C:\Users\jthem\AppData\Local\Temp\ccz7Pj1W.s 			page 5


  71              		.align	1
  72              		.global	SPIS_Stop
  73              		.thumb
  74              		.thumb_func
  75              		.type	SPIS_Stop, %function
  76              	SPIS_Stop:
  77              	.LFB3:
 159:.\Generated_Source\PSoC5/SPIS.c ****     #endif /* SPIS_INTERNAL_RX_INT_ENABLED */
 160:.\Generated_Source\PSoC5/SPIS.c **** }
 161:.\Generated_Source\PSoC5/SPIS.c **** 
 162:.\Generated_Source\PSoC5/SPIS.c **** 
 163:.\Generated_Source\PSoC5/SPIS.c **** /*******************************************************************************
 164:.\Generated_Source\PSoC5/SPIS.c **** * Function Name: SPIS_Start
 165:.\Generated_Source\PSoC5/SPIS.c **** ********************************************************************************
 166:.\Generated_Source\PSoC5/SPIS.c **** *
 167:.\Generated_Source\PSoC5/SPIS.c **** * Summary:
 168:.\Generated_Source\PSoC5/SPIS.c **** *  Initialize and Enable the SPI Slave component.
 169:.\Generated_Source\PSoC5/SPIS.c **** *
 170:.\Generated_Source\PSoC5/SPIS.c **** * Parameters:
 171:.\Generated_Source\PSoC5/SPIS.c **** *  None.
 172:.\Generated_Source\PSoC5/SPIS.c **** *
 173:.\Generated_Source\PSoC5/SPIS.c **** * Return:
 174:.\Generated_Source\PSoC5/SPIS.c **** *  None.
 175:.\Generated_Source\PSoC5/SPIS.c **** *
 176:.\Generated_Source\PSoC5/SPIS.c **** * Global variables:
 177:.\Generated_Source\PSoC5/SPIS.c **** *  SPIS_initVar - used to check initial configuration, modified on
 178:.\Generated_Source\PSoC5/SPIS.c **** *  first function call.
 179:.\Generated_Source\PSoC5/SPIS.c **** *
 180:.\Generated_Source\PSoC5/SPIS.c **** * Theory:
 181:.\Generated_Source\PSoC5/SPIS.c **** *  Enable the clock input to enable operation.
 182:.\Generated_Source\PSoC5/SPIS.c **** *
 183:.\Generated_Source\PSoC5/SPIS.c **** * Reentrant:
 184:.\Generated_Source\PSoC5/SPIS.c **** *  No.
 185:.\Generated_Source\PSoC5/SPIS.c **** *
 186:.\Generated_Source\PSoC5/SPIS.c **** *******************************************************************************/
 187:.\Generated_Source\PSoC5/SPIS.c **** void SPIS_Start(void) 
 188:.\Generated_Source\PSoC5/SPIS.c **** {
 189:.\Generated_Source\PSoC5/SPIS.c ****     if(SPIS_initVar == 0u)
 190:.\Generated_Source\PSoC5/SPIS.c ****     {
 191:.\Generated_Source\PSoC5/SPIS.c ****         SPIS_Init();
 192:.\Generated_Source\PSoC5/SPIS.c ****         SPIS_initVar = 1u;
 193:.\Generated_Source\PSoC5/SPIS.c ****     }
 194:.\Generated_Source\PSoC5/SPIS.c **** 
 195:.\Generated_Source\PSoC5/SPIS.c ****     SPIS_Enable();
 196:.\Generated_Source\PSoC5/SPIS.c **** }
 197:.\Generated_Source\PSoC5/SPIS.c **** 
 198:.\Generated_Source\PSoC5/SPIS.c **** 
 199:.\Generated_Source\PSoC5/SPIS.c **** /*******************************************************************************
 200:.\Generated_Source\PSoC5/SPIS.c **** * Function Name: SPIS_Stop
 201:.\Generated_Source\PSoC5/SPIS.c **** ********************************************************************************
 202:.\Generated_Source\PSoC5/SPIS.c **** *
 203:.\Generated_Source\PSoC5/SPIS.c **** * Summary:
 204:.\Generated_Source\PSoC5/SPIS.c **** *  Disable the SPI Slave component.
 205:.\Generated_Source\PSoC5/SPIS.c **** *
 206:.\Generated_Source\PSoC5/SPIS.c **** * Parameters:
 207:.\Generated_Source\PSoC5/SPIS.c **** *  None.
 208:.\Generated_Source\PSoC5/SPIS.c **** *
ARM GAS  C:\Users\jthem\AppData\Local\Temp\ccz7Pj1W.s 			page 6


 209:.\Generated_Source\PSoC5/SPIS.c **** * Return:
 210:.\Generated_Source\PSoC5/SPIS.c **** *  None.
 211:.\Generated_Source\PSoC5/SPIS.c **** *
 212:.\Generated_Source\PSoC5/SPIS.c **** * Theory:
 213:.\Generated_Source\PSoC5/SPIS.c **** *  Disable the internal interrupt if one is used.
 214:.\Generated_Source\PSoC5/SPIS.c **** *
 215:.\Generated_Source\PSoC5/SPIS.c **** *******************************************************************************/
 216:.\Generated_Source\PSoC5/SPIS.c **** void SPIS_Stop(void) 
 217:.\Generated_Source\PSoC5/SPIS.c **** {
  78              		.loc 1 217 0
  79              		.cfi_startproc
  80              		@ args = 0, pretend = 0, frame = 0
  81              		@ frame_needed = 0, uses_anonymous_args = 0
  82 0000 08B5     		push	{r3, lr}
  83              		.cfi_def_cfa_offset 8
  84              		.cfi_offset 3, -8
  85              		.cfi_offset 14, -4
 218:.\Generated_Source\PSoC5/SPIS.c ****     uint8 enableInterrupts;
 219:.\Generated_Source\PSoC5/SPIS.c ****     enableInterrupts = CyEnterCriticalSection();
  86              		.loc 1 219 0
  87 0002 FFF7FEFF 		bl	CyEnterCriticalSection
  88              	.LVL2:
 220:.\Generated_Source\PSoC5/SPIS.c **** 
 221:.\Generated_Source\PSoC5/SPIS.c ****     SPIS_TX_STATUS_ACTL_REG &= (uint8)~SPIS_INT_ENABLE;
  89              		.loc 1 221 0
  90 0006 094A     		ldr	r2, .L5
  91 0008 1378     		ldrb	r3, [r2]	@ zero_extendqisi2
  92 000a 03F0EF03 		and	r3, r3, #239
  93 000e 1370     		strb	r3, [r2]
 222:.\Generated_Source\PSoC5/SPIS.c ****     SPIS_RX_STATUS_ACTL_REG &= (uint8)~SPIS_INT_ENABLE;
  94              		.loc 1 222 0
  95 0010 12F8013C 		ldrb	r3, [r2, #-1]	@ zero_extendqisi2
  96 0014 03F0EF03 		and	r3, r3, #239
  97 0018 02F8013C 		strb	r3, [r2, #-1]
 223:.\Generated_Source\PSoC5/SPIS.c **** 
 224:.\Generated_Source\PSoC5/SPIS.c ****     CyExitCriticalSection(enableInterrupts);
  98              		.loc 1 224 0
  99 001c FFF7FEFF 		bl	CyExitCriticalSection
 100              	.LVL3:
 225:.\Generated_Source\PSoC5/SPIS.c **** 
 226:.\Generated_Source\PSoC5/SPIS.c ****     #if(SPIS_INTERNAL_TX_INT_ENABLED)
 227:.\Generated_Source\PSoC5/SPIS.c ****         CyIntDisable(SPIS_TX_ISR_NUMBER);
 101              		.loc 1 227 0
 102 0020 034B     		ldr	r3, .L5+4
 103 0022 0822     		movs	r2, #8
 104 0024 1A60     		str	r2, [r3]
 228:.\Generated_Source\PSoC5/SPIS.c ****     #endif /* SPIS_INTERNAL_TX_INT_ENABLED */
 229:.\Generated_Source\PSoC5/SPIS.c **** 
 230:.\Generated_Source\PSoC5/SPIS.c ****     #if(SPIS_INTERNAL_RX_INT_ENABLED)
 231:.\Generated_Source\PSoC5/SPIS.c ****         CyIntDisable(SPIS_RX_ISR_NUMBER);
 105              		.loc 1 231 0
 106 0026 0422     		movs	r2, #4
 107 0028 1A60     		str	r2, [r3]
 108 002a 08BD     		pop	{r3, pc}
 109              	.L6:
 110              		.align	2
 111              	.L5:
ARM GAS  C:\Users\jthem\AppData\Local\Temp\ccz7Pj1W.s 			page 7


 112 002c 96640040 		.word	1073767574
 113 0030 80E100E0 		.word	-536813184
 114              		.cfi_endproc
 115              	.LFE3:
 116              		.size	SPIS_Stop, .-SPIS_Stop
 117              		.section	.text.SPIS_EnableTxInt,"ax",%progbits
 118              		.align	1
 119              		.global	SPIS_EnableTxInt
 120              		.thumb
 121              		.thumb_func
 122              		.type	SPIS_EnableTxInt, %function
 123              	SPIS_EnableTxInt:
 124              	.LFB4:
 232:.\Generated_Source\PSoC5/SPIS.c ****     #endif /* SPIS_INTERNAL_RX_INT_ENABLED */
 233:.\Generated_Source\PSoC5/SPIS.c **** }
 234:.\Generated_Source\PSoC5/SPIS.c **** 
 235:.\Generated_Source\PSoC5/SPIS.c **** 
 236:.\Generated_Source\PSoC5/SPIS.c **** /*******************************************************************************
 237:.\Generated_Source\PSoC5/SPIS.c **** * Function Name: SPIS_EnableTxInt
 238:.\Generated_Source\PSoC5/SPIS.c **** ********************************************************************************
 239:.\Generated_Source\PSoC5/SPIS.c **** *
 240:.\Generated_Source\PSoC5/SPIS.c **** * Summary:
 241:.\Generated_Source\PSoC5/SPIS.c **** *  Enable internal Tx interrupt generation.
 242:.\Generated_Source\PSoC5/SPIS.c **** *
 243:.\Generated_Source\PSoC5/SPIS.c **** * Parameters:
 244:.\Generated_Source\PSoC5/SPIS.c **** *  None.
 245:.\Generated_Source\PSoC5/SPIS.c **** *
 246:.\Generated_Source\PSoC5/SPIS.c **** * Return:
 247:.\Generated_Source\PSoC5/SPIS.c **** *  None.
 248:.\Generated_Source\PSoC5/SPIS.c **** *
 249:.\Generated_Source\PSoC5/SPIS.c **** * Theory:
 250:.\Generated_Source\PSoC5/SPIS.c **** *  Enable the internal Tx interrupt output -or- the interrupt component itself.
 251:.\Generated_Source\PSoC5/SPIS.c **** *
 252:.\Generated_Source\PSoC5/SPIS.c **** *******************************************************************************/
 253:.\Generated_Source\PSoC5/SPIS.c **** void SPIS_EnableTxInt(void) 
 254:.\Generated_Source\PSoC5/SPIS.c **** {
 125              		.loc 1 254 0
 126              		.cfi_startproc
 127              		@ args = 0, pretend = 0, frame = 0
 128              		@ frame_needed = 0, uses_anonymous_args = 0
 129              		@ link register save eliminated.
 255:.\Generated_Source\PSoC5/SPIS.c ****     #if(SPIS_INTERNAL_TX_INT_ENABLED)
 256:.\Generated_Source\PSoC5/SPIS.c ****         CyIntEnable(SPIS_TX_ISR_NUMBER);
 130              		.loc 1 256 0
 131 0000 014B     		ldr	r3, .L8
 132 0002 0822     		movs	r2, #8
 133 0004 1A60     		str	r2, [r3]
 134 0006 7047     		bx	lr
 135              	.L9:
 136              		.align	2
 137              	.L8:
 138 0008 00E100E0 		.word	-536813312
 139              		.cfi_endproc
 140              	.LFE4:
 141              		.size	SPIS_EnableTxInt, .-SPIS_EnableTxInt
 142              		.section	.text.SPIS_EnableRxInt,"ax",%progbits
 143              		.align	1
ARM GAS  C:\Users\jthem\AppData\Local\Temp\ccz7Pj1W.s 			page 8


 144              		.global	SPIS_EnableRxInt
 145              		.thumb
 146              		.thumb_func
 147              		.type	SPIS_EnableRxInt, %function
 148              	SPIS_EnableRxInt:
 149              	.LFB5:
 257:.\Generated_Source\PSoC5/SPIS.c ****     #endif /* SPIS_INTERNAL_TX_INT_ENABLED */
 258:.\Generated_Source\PSoC5/SPIS.c **** }
 259:.\Generated_Source\PSoC5/SPIS.c **** 
 260:.\Generated_Source\PSoC5/SPIS.c **** 
 261:.\Generated_Source\PSoC5/SPIS.c **** /*******************************************************************************
 262:.\Generated_Source\PSoC5/SPIS.c **** * Function Name: SPIS_EnableRxInt
 263:.\Generated_Source\PSoC5/SPIS.c **** ********************************************************************************
 264:.\Generated_Source\PSoC5/SPIS.c **** *
 265:.\Generated_Source\PSoC5/SPIS.c **** * Summary:
 266:.\Generated_Source\PSoC5/SPIS.c **** *  Enable internal Rx interrupt generation.
 267:.\Generated_Source\PSoC5/SPIS.c **** *
 268:.\Generated_Source\PSoC5/SPIS.c **** * Parameters:
 269:.\Generated_Source\PSoC5/SPIS.c **** *  None.
 270:.\Generated_Source\PSoC5/SPIS.c **** *
 271:.\Generated_Source\PSoC5/SPIS.c **** * Return:
 272:.\Generated_Source\PSoC5/SPIS.c **** *  None.
 273:.\Generated_Source\PSoC5/SPIS.c **** *
 274:.\Generated_Source\PSoC5/SPIS.c **** * Theory:
 275:.\Generated_Source\PSoC5/SPIS.c **** *  Enable the internal Rx interrupt output -or- the interrupt component itself.
 276:.\Generated_Source\PSoC5/SPIS.c **** *
 277:.\Generated_Source\PSoC5/SPIS.c **** *******************************************************************************/
 278:.\Generated_Source\PSoC5/SPIS.c **** void SPIS_EnableRxInt(void) 
 279:.\Generated_Source\PSoC5/SPIS.c **** {
 150              		.loc 1 279 0
 151              		.cfi_startproc
 152              		@ args = 0, pretend = 0, frame = 0
 153              		@ frame_needed = 0, uses_anonymous_args = 0
 154              		@ link register save eliminated.
 280:.\Generated_Source\PSoC5/SPIS.c ****     #if(SPIS_INTERNAL_RX_INT_ENABLED)
 281:.\Generated_Source\PSoC5/SPIS.c ****         CyIntEnable(SPIS_RX_ISR_NUMBER);
 155              		.loc 1 281 0
 156 0000 014B     		ldr	r3, .L11
 157 0002 0422     		movs	r2, #4
 158 0004 1A60     		str	r2, [r3]
 159 0006 7047     		bx	lr
 160              	.L12:
 161              		.align	2
 162              	.L11:
 163 0008 00E100E0 		.word	-536813312
 164              		.cfi_endproc
 165              	.LFE5:
 166              		.size	SPIS_EnableRxInt, .-SPIS_EnableRxInt
 167              		.section	.text.SPIS_DisableTxInt,"ax",%progbits
 168              		.align	1
 169              		.global	SPIS_DisableTxInt
 170              		.thumb
 171              		.thumb_func
 172              		.type	SPIS_DisableTxInt, %function
 173              	SPIS_DisableTxInt:
 174              	.LFB6:
 282:.\Generated_Source\PSoC5/SPIS.c ****     #endif /* SPIS_INTERNAL_RX_INT_ENABLED */
ARM GAS  C:\Users\jthem\AppData\Local\Temp\ccz7Pj1W.s 			page 9


 283:.\Generated_Source\PSoC5/SPIS.c **** }
 284:.\Generated_Source\PSoC5/SPIS.c **** 
 285:.\Generated_Source\PSoC5/SPIS.c **** 
 286:.\Generated_Source\PSoC5/SPIS.c **** /*******************************************************************************
 287:.\Generated_Source\PSoC5/SPIS.c **** * Function Name: SPIS_DisableTxInt
 288:.\Generated_Source\PSoC5/SPIS.c **** ********************************************************************************
 289:.\Generated_Source\PSoC5/SPIS.c **** *
 290:.\Generated_Source\PSoC5/SPIS.c **** * Summary:
 291:.\Generated_Source\PSoC5/SPIS.c **** *  Disable internal Tx interrupt generation.
 292:.\Generated_Source\PSoC5/SPIS.c **** *
 293:.\Generated_Source\PSoC5/SPIS.c **** * Parameters:
 294:.\Generated_Source\PSoC5/SPIS.c **** *  None.
 295:.\Generated_Source\PSoC5/SPIS.c **** *
 296:.\Generated_Source\PSoC5/SPIS.c **** * Return:
 297:.\Generated_Source\PSoC5/SPIS.c **** *  None.
 298:.\Generated_Source\PSoC5/SPIS.c **** *
 299:.\Generated_Source\PSoC5/SPIS.c **** * Theory:
 300:.\Generated_Source\PSoC5/SPIS.c **** *  Disable the internal Tx interrupt output -or- the interrupt component itself.
 301:.\Generated_Source\PSoC5/SPIS.c **** *
 302:.\Generated_Source\PSoC5/SPIS.c **** *******************************************************************************/
 303:.\Generated_Source\PSoC5/SPIS.c **** void SPIS_DisableTxInt(void) 
 304:.\Generated_Source\PSoC5/SPIS.c **** {
 175              		.loc 1 304 0
 176              		.cfi_startproc
 177              		@ args = 0, pretend = 0, frame = 0
 178              		@ frame_needed = 0, uses_anonymous_args = 0
 179              		@ link register save eliminated.
 305:.\Generated_Source\PSoC5/SPIS.c ****     #if(SPIS_INTERNAL_TX_INT_ENABLED)
 306:.\Generated_Source\PSoC5/SPIS.c ****         CyIntDisable(SPIS_TX_ISR_NUMBER);
 180              		.loc 1 306 0
 181 0000 014B     		ldr	r3, .L14
 182 0002 0822     		movs	r2, #8
 183 0004 1A60     		str	r2, [r3]
 184 0006 7047     		bx	lr
 185              	.L15:
 186              		.align	2
 187              	.L14:
 188 0008 80E100E0 		.word	-536813184
 189              		.cfi_endproc
 190              	.LFE6:
 191              		.size	SPIS_DisableTxInt, .-SPIS_DisableTxInt
 192              		.section	.text.SPIS_DisableRxInt,"ax",%progbits
 193              		.align	1
 194              		.global	SPIS_DisableRxInt
 195              		.thumb
 196              		.thumb_func
 197              		.type	SPIS_DisableRxInt, %function
 198              	SPIS_DisableRxInt:
 199              	.LFB7:
 307:.\Generated_Source\PSoC5/SPIS.c ****     #endif /* SPIS_INTERNAL_TX_INT_ENABLED */
 308:.\Generated_Source\PSoC5/SPIS.c **** }
 309:.\Generated_Source\PSoC5/SPIS.c **** 
 310:.\Generated_Source\PSoC5/SPIS.c **** 
 311:.\Generated_Source\PSoC5/SPIS.c **** /*******************************************************************************
 312:.\Generated_Source\PSoC5/SPIS.c **** * Function Name: SPIS_DisableRxInt
 313:.\Generated_Source\PSoC5/SPIS.c **** ********************************************************************************
 314:.\Generated_Source\PSoC5/SPIS.c **** *
ARM GAS  C:\Users\jthem\AppData\Local\Temp\ccz7Pj1W.s 			page 10


 315:.\Generated_Source\PSoC5/SPIS.c **** * Summary:
 316:.\Generated_Source\PSoC5/SPIS.c **** *  Disable internal Rx interrupt generation.
 317:.\Generated_Source\PSoC5/SPIS.c **** *
 318:.\Generated_Source\PSoC5/SPIS.c **** * Parameters:
 319:.\Generated_Source\PSoC5/SPIS.c **** *  None.
 320:.\Generated_Source\PSoC5/SPIS.c **** *
 321:.\Generated_Source\PSoC5/SPIS.c **** * Return:
 322:.\Generated_Source\PSoC5/SPIS.c **** *  None.
 323:.\Generated_Source\PSoC5/SPIS.c **** *
 324:.\Generated_Source\PSoC5/SPIS.c **** * Theory:
 325:.\Generated_Source\PSoC5/SPIS.c **** *  Disable the internal Rx interrupt output -or- the interrupt component itself.
 326:.\Generated_Source\PSoC5/SPIS.c **** *
 327:.\Generated_Source\PSoC5/SPIS.c **** *******************************************************************************/
 328:.\Generated_Source\PSoC5/SPIS.c **** void SPIS_DisableRxInt(void) 
 329:.\Generated_Source\PSoC5/SPIS.c **** {
 200              		.loc 1 329 0
 201              		.cfi_startproc
 202              		@ args = 0, pretend = 0, frame = 0
 203              		@ frame_needed = 0, uses_anonymous_args = 0
 204              		@ link register save eliminated.
 330:.\Generated_Source\PSoC5/SPIS.c ****     #if(SPIS_INTERNAL_RX_INT_ENABLED)
 331:.\Generated_Source\PSoC5/SPIS.c ****         CyIntDisable(SPIS_RX_ISR_NUMBER);
 205              		.loc 1 331 0
 206 0000 014B     		ldr	r3, .L17
 207 0002 0422     		movs	r2, #4
 208 0004 1A60     		str	r2, [r3]
 209 0006 7047     		bx	lr
 210              	.L18:
 211              		.align	2
 212              	.L17:
 213 0008 80E100E0 		.word	-536813184
 214              		.cfi_endproc
 215              	.LFE7:
 216              		.size	SPIS_DisableRxInt, .-SPIS_DisableRxInt
 217              		.section	.text.SPIS_SetTxInterruptMode,"ax",%progbits
 218              		.align	1
 219              		.global	SPIS_SetTxInterruptMode
 220              		.thumb
 221              		.thumb_func
 222              		.type	SPIS_SetTxInterruptMode, %function
 223              	SPIS_SetTxInterruptMode:
 224              	.LFB8:
 332:.\Generated_Source\PSoC5/SPIS.c ****     #endif /* SPIS_INTERNAL_RX_INT_ENABLED */
 333:.\Generated_Source\PSoC5/SPIS.c **** }
 334:.\Generated_Source\PSoC5/SPIS.c **** 
 335:.\Generated_Source\PSoC5/SPIS.c **** 
 336:.\Generated_Source\PSoC5/SPIS.c **** /*******************************************************************************
 337:.\Generated_Source\PSoC5/SPIS.c **** * Function Name: SPIS_SetTxInterruptMode
 338:.\Generated_Source\PSoC5/SPIS.c **** ********************************************************************************
 339:.\Generated_Source\PSoC5/SPIS.c **** *
 340:.\Generated_Source\PSoC5/SPIS.c **** * Summary:
 341:.\Generated_Source\PSoC5/SPIS.c **** *  Configure which status bits trigger an interrupt event.
 342:.\Generated_Source\PSoC5/SPIS.c **** *
 343:.\Generated_Source\PSoC5/SPIS.c **** * Parameters:
 344:.\Generated_Source\PSoC5/SPIS.c **** *  intSrc: An or'd combination of the desired status bit masks (defined in the
 345:.\Generated_Source\PSoC5/SPIS.c **** *  header file).
 346:.\Generated_Source\PSoC5/SPIS.c **** *
ARM GAS  C:\Users\jthem\AppData\Local\Temp\ccz7Pj1W.s 			page 11


 347:.\Generated_Source\PSoC5/SPIS.c **** * Return:
 348:.\Generated_Source\PSoC5/SPIS.c **** *  None.
 349:.\Generated_Source\PSoC5/SPIS.c **** *
 350:.\Generated_Source\PSoC5/SPIS.c **** * Theory:
 351:.\Generated_Source\PSoC5/SPIS.c **** *  Enables the output of specific status bits to the interrupt controller.
 352:.\Generated_Source\PSoC5/SPIS.c **** *
 353:.\Generated_Source\PSoC5/SPIS.c **** *******************************************************************************/
 354:.\Generated_Source\PSoC5/SPIS.c **** void SPIS_SetTxInterruptMode(uint8 intSrc) 
 355:.\Generated_Source\PSoC5/SPIS.c **** {
 225              		.loc 1 355 0
 226              		.cfi_startproc
 227              		@ args = 0, pretend = 0, frame = 0
 228              		@ frame_needed = 0, uses_anonymous_args = 0
 229              		@ link register save eliminated.
 230              	.LVL4:
 356:.\Generated_Source\PSoC5/SPIS.c ****     SPIS_TX_STATUS_MASK_REG  = intSrc;
 231              		.loc 1 356 0
 232 0000 014B     		ldr	r3, .L20
 233 0002 1870     		strb	r0, [r3]
 234 0004 7047     		bx	lr
 235              	.L21:
 236 0006 00BF     		.align	2
 237              	.L20:
 238 0008 86640040 		.word	1073767558
 239              		.cfi_endproc
 240              	.LFE8:
 241              		.size	SPIS_SetTxInterruptMode, .-SPIS_SetTxInterruptMode
 242              		.section	.text.SPIS_SetRxInterruptMode,"ax",%progbits
 243              		.align	1
 244              		.global	SPIS_SetRxInterruptMode
 245              		.thumb
 246              		.thumb_func
 247              		.type	SPIS_SetRxInterruptMode, %function
 248              	SPIS_SetRxInterruptMode:
 249              	.LFB9:
 357:.\Generated_Source\PSoC5/SPIS.c **** }
 358:.\Generated_Source\PSoC5/SPIS.c **** 
 359:.\Generated_Source\PSoC5/SPIS.c **** 
 360:.\Generated_Source\PSoC5/SPIS.c **** /*******************************************************************************
 361:.\Generated_Source\PSoC5/SPIS.c **** * Function Name: SPIS_SetRxInterruptMode
 362:.\Generated_Source\PSoC5/SPIS.c **** ********************************************************************************
 363:.\Generated_Source\PSoC5/SPIS.c **** *
 364:.\Generated_Source\PSoC5/SPIS.c **** * Summary:
 365:.\Generated_Source\PSoC5/SPIS.c **** *  Configure which status bits trigger an interrupt event.
 366:.\Generated_Source\PSoC5/SPIS.c **** *
 367:.\Generated_Source\PSoC5/SPIS.c **** * Parameters:
 368:.\Generated_Source\PSoC5/SPIS.c **** *  intSrc: An or'd combination of the desired status bit masks (defined in the
 369:.\Generated_Source\PSoC5/SPIS.c **** *  header file).
 370:.\Generated_Source\PSoC5/SPIS.c **** *
 371:.\Generated_Source\PSoC5/SPIS.c **** * Return:
 372:.\Generated_Source\PSoC5/SPIS.c **** *  None.
 373:.\Generated_Source\PSoC5/SPIS.c **** *
 374:.\Generated_Source\PSoC5/SPIS.c **** * Theory:
 375:.\Generated_Source\PSoC5/SPIS.c **** *  Enables the output of specific status bits to the interrupt controller.
 376:.\Generated_Source\PSoC5/SPIS.c **** *
 377:.\Generated_Source\PSoC5/SPIS.c **** *******************************************************************************/
 378:.\Generated_Source\PSoC5/SPIS.c **** void SPIS_SetRxInterruptMode(uint8 intSrc) 
ARM GAS  C:\Users\jthem\AppData\Local\Temp\ccz7Pj1W.s 			page 12


 379:.\Generated_Source\PSoC5/SPIS.c **** {
 250              		.loc 1 379 0
 251              		.cfi_startproc
 252              		@ args = 0, pretend = 0, frame = 0
 253              		@ frame_needed = 0, uses_anonymous_args = 0
 254              		@ link register save eliminated.
 255              	.LVL5:
 380:.\Generated_Source\PSoC5/SPIS.c ****     SPIS_RX_STATUS_MASK_REG  = intSrc;
 256              		.loc 1 380 0
 257 0000 014B     		ldr	r3, .L23
 258 0002 1870     		strb	r0, [r3]
 259 0004 7047     		bx	lr
 260              	.L24:
 261 0006 00BF     		.align	2
 262              	.L23:
 263 0008 85640040 		.word	1073767557
 264              		.cfi_endproc
 265              	.LFE9:
 266              		.size	SPIS_SetRxInterruptMode, .-SPIS_SetRxInterruptMode
 267              		.section	.text.SPIS_ReadTxStatus,"ax",%progbits
 268              		.align	1
 269              		.global	SPIS_ReadTxStatus
 270              		.thumb
 271              		.thumb_func
 272              		.type	SPIS_ReadTxStatus, %function
 273              	SPIS_ReadTxStatus:
 274              	.LFB10:
 381:.\Generated_Source\PSoC5/SPIS.c **** }
 382:.\Generated_Source\PSoC5/SPIS.c **** 
 383:.\Generated_Source\PSoC5/SPIS.c **** 
 384:.\Generated_Source\PSoC5/SPIS.c **** /*******************************************************************************
 385:.\Generated_Source\PSoC5/SPIS.c **** * Function Name: SPIS_ReadTxStatus
 386:.\Generated_Source\PSoC5/SPIS.c **** ********************************************************************************
 387:.\Generated_Source\PSoC5/SPIS.c **** *
 388:.\Generated_Source\PSoC5/SPIS.c **** * Summary:
 389:.\Generated_Source\PSoC5/SPIS.c **** *  Read the Tx status register for the component.
 390:.\Generated_Source\PSoC5/SPIS.c **** *
 391:.\Generated_Source\PSoC5/SPIS.c **** * Parameters:
 392:.\Generated_Source\PSoC5/SPIS.c **** *  None.
 393:.\Generated_Source\PSoC5/SPIS.c **** *
 394:.\Generated_Source\PSoC5/SPIS.c **** * Return:
 395:.\Generated_Source\PSoC5/SPIS.c **** *  Contents of the Tx status register.
 396:.\Generated_Source\PSoC5/SPIS.c **** *
 397:.\Generated_Source\PSoC5/SPIS.c **** * Global variables:
 398:.\Generated_Source\PSoC5/SPIS.c **** *  SPIS_swStatusTx - used to store in software status register,
 399:.\Generated_Source\PSoC5/SPIS.c **** *  modified every function call - resets to zero.
 400:.\Generated_Source\PSoC5/SPIS.c **** *
 401:.\Generated_Source\PSoC5/SPIS.c **** * Theory:
 402:.\Generated_Source\PSoC5/SPIS.c **** *  Allows the user and the API to read the Tx status register for error
 403:.\Generated_Source\PSoC5/SPIS.c **** *  detection and flow control.
 404:.\Generated_Source\PSoC5/SPIS.c **** *
 405:.\Generated_Source\PSoC5/SPIS.c **** * Side Effects:
 406:.\Generated_Source\PSoC5/SPIS.c **** *  Clear Tx status register of the component.
 407:.\Generated_Source\PSoC5/SPIS.c **** *
 408:.\Generated_Source\PSoC5/SPIS.c **** * Reentrant:
 409:.\Generated_Source\PSoC5/SPIS.c **** *  No.
 410:.\Generated_Source\PSoC5/SPIS.c **** *
ARM GAS  C:\Users\jthem\AppData\Local\Temp\ccz7Pj1W.s 			page 13


 411:.\Generated_Source\PSoC5/SPIS.c **** *******************************************************************************/
 412:.\Generated_Source\PSoC5/SPIS.c **** uint8 SPIS_ReadTxStatus(void) 
 413:.\Generated_Source\PSoC5/SPIS.c **** {
 275              		.loc 1 413 0
 276              		.cfi_startproc
 277              		@ args = 0, pretend = 0, frame = 0
 278              		@ frame_needed = 0, uses_anonymous_args = 0
 279 0000 10B5     		push	{r4, lr}
 280              		.cfi_def_cfa_offset 8
 281              		.cfi_offset 4, -8
 282              		.cfi_offset 14, -4
 283              	.LBB34:
 284              	.LBB35:
 306:.\Generated_Source\PSoC5/SPIS.c ****     #endif /* SPIS_INTERNAL_TX_INT_ENABLED */
 285              		.loc 1 306 0
 286 0002 074B     		ldr	r3, .L26
 287 0004 0822     		movs	r2, #8
 288 0006 1A60     		str	r2, [r3]
 289              	.LBE35:
 290              	.LBE34:
 414:.\Generated_Source\PSoC5/SPIS.c ****     uint8 tmpStatus;
 415:.\Generated_Source\PSoC5/SPIS.c **** 
 416:.\Generated_Source\PSoC5/SPIS.c ****     #if (SPIS_TX_SOFTWARE_BUF_ENABLED)
 417:.\Generated_Source\PSoC5/SPIS.c **** 
 418:.\Generated_Source\PSoC5/SPIS.c ****         SPIS_DisableTxInt();
 419:.\Generated_Source\PSoC5/SPIS.c **** 
 420:.\Generated_Source\PSoC5/SPIS.c ****         tmpStatus = SPIS_GET_STATUS_TX(SPIS_swStatusTx);
 291              		.loc 1 420 0
 292 0008 0649     		ldr	r1, .L26+4
 293 000a 074B     		ldr	r3, .L26+8
 421:.\Generated_Source\PSoC5/SPIS.c **** 
 422:.\Generated_Source\PSoC5/SPIS.c ****         SPIS_swStatusTx = 0u;
 294              		.loc 1 422 0
 295 000c 0024     		movs	r4, #0
 420:.\Generated_Source\PSoC5/SPIS.c **** 
 296              		.loc 1 420 0
 297 000e 1878     		ldrb	r0, [r3]	@ zero_extendqisi2
 298 0010 0B78     		ldrb	r3, [r1]	@ zero_extendqisi2
 299              	.LVL6:
 300              		.loc 1 422 0
 301 0012 0C70     		strb	r4, [r1]
 302              	.LBB36:
 303              	.LBB37:
 256:.\Generated_Source\PSoC5/SPIS.c ****     #endif /* SPIS_INTERNAL_TX_INT_ENABLED */
 304              		.loc 1 256 0
 305 0014 0549     		ldr	r1, .L26+12
 306              	.LBE37:
 307              	.LBE36:
 420:.\Generated_Source\PSoC5/SPIS.c **** 
 308              		.loc 1 420 0
 309 0016 03F06103 		and	r3, r3, #97
 310              	.LVL7:
 311              	.LBB39:
 312              	.LBB38:
 256:.\Generated_Source\PSoC5/SPIS.c ****     #endif /* SPIS_INTERNAL_TX_INT_ENABLED */
 313              		.loc 1 256 0
 314 001a 0A60     		str	r2, [r1]
ARM GAS  C:\Users\jthem\AppData\Local\Temp\ccz7Pj1W.s 			page 14


 315              	.LBE38:
 316              	.LBE39:
 423:.\Generated_Source\PSoC5/SPIS.c **** 
 424:.\Generated_Source\PSoC5/SPIS.c ****         /* Enable Interrupts */
 425:.\Generated_Source\PSoC5/SPIS.c ****         SPIS_EnableTxInt();
 426:.\Generated_Source\PSoC5/SPIS.c **** 
 427:.\Generated_Source\PSoC5/SPIS.c ****     #else /* !SPIS_TX_SOFTWARE_BUF_ENABLED */
 428:.\Generated_Source\PSoC5/SPIS.c **** 
 429:.\Generated_Source\PSoC5/SPIS.c ****         tmpStatus = SPIS_TX_STATUS_REG;
 430:.\Generated_Source\PSoC5/SPIS.c **** 
 431:.\Generated_Source\PSoC5/SPIS.c ****     #endif /* SPIS_TX_SOFTWARE_BUF_ENABLED */
 432:.\Generated_Source\PSoC5/SPIS.c **** 
 433:.\Generated_Source\PSoC5/SPIS.c ****     return(tmpStatus);
 434:.\Generated_Source\PSoC5/SPIS.c **** }
 317              		.loc 1 434 0
 318 001c 1843     		orrs	r0, r0, r3
 319 001e 10BD     		pop	{r4, pc}
 320              	.L27:
 321              		.align	2
 322              	.L26:
 323 0020 80E100E0 		.word	-536813184
 324 0024 00000000 		.word	SPIS_swStatusTx
 325 0028 66640040 		.word	1073767526
 326 002c 00E100E0 		.word	-536813312
 327              		.cfi_endproc
 328              	.LFE10:
 329              		.size	SPIS_ReadTxStatus, .-SPIS_ReadTxStatus
 330              		.section	.text.SPIS_ReadRxStatus,"ax",%progbits
 331              		.align	1
 332              		.global	SPIS_ReadRxStatus
 333              		.thumb
 334              		.thumb_func
 335              		.type	SPIS_ReadRxStatus, %function
 336              	SPIS_ReadRxStatus:
 337              	.LFB11:
 435:.\Generated_Source\PSoC5/SPIS.c **** 
 436:.\Generated_Source\PSoC5/SPIS.c **** 
 437:.\Generated_Source\PSoC5/SPIS.c **** /*******************************************************************************
 438:.\Generated_Source\PSoC5/SPIS.c **** * Function Name: SPIS_ReadRxStatus
 439:.\Generated_Source\PSoC5/SPIS.c **** ********************************************************************************
 440:.\Generated_Source\PSoC5/SPIS.c **** *
 441:.\Generated_Source\PSoC5/SPIS.c **** * Summary:
 442:.\Generated_Source\PSoC5/SPIS.c **** *  Read the Rx status register for the component.
 443:.\Generated_Source\PSoC5/SPIS.c **** *
 444:.\Generated_Source\PSoC5/SPIS.c **** * Parameters:
 445:.\Generated_Source\PSoC5/SPIS.c **** *  None.
 446:.\Generated_Source\PSoC5/SPIS.c **** *
 447:.\Generated_Source\PSoC5/SPIS.c **** * Return:
 448:.\Generated_Source\PSoC5/SPIS.c **** *  Contents of the Rx status register.
 449:.\Generated_Source\PSoC5/SPIS.c **** *
 450:.\Generated_Source\PSoC5/SPIS.c **** * Global variables:
 451:.\Generated_Source\PSoC5/SPIS.c **** *  SPIS_swStatusRx - used to store in software Rx status register,
 452:.\Generated_Source\PSoC5/SPIS.c **** *  modified every function call - resets to zero.
 453:.\Generated_Source\PSoC5/SPIS.c **** *
 454:.\Generated_Source\PSoC5/SPIS.c **** * Theory:
 455:.\Generated_Source\PSoC5/SPIS.c **** *  Allows the user and the API to read the Rx status register for error
 456:.\Generated_Source\PSoC5/SPIS.c **** *  detection and flow control.
ARM GAS  C:\Users\jthem\AppData\Local\Temp\ccz7Pj1W.s 			page 15


 457:.\Generated_Source\PSoC5/SPIS.c **** *
 458:.\Generated_Source\PSoC5/SPIS.c **** * Side Effects:
 459:.\Generated_Source\PSoC5/SPIS.c **** *  Clear Rx status register of the component.
 460:.\Generated_Source\PSoC5/SPIS.c **** *
 461:.\Generated_Source\PSoC5/SPIS.c **** * Reentrant:
 462:.\Generated_Source\PSoC5/SPIS.c **** *  No.
 463:.\Generated_Source\PSoC5/SPIS.c **** *
 464:.\Generated_Source\PSoC5/SPIS.c **** *******************************************************************************/
 465:.\Generated_Source\PSoC5/SPIS.c **** uint8 SPIS_ReadRxStatus(void) 
 466:.\Generated_Source\PSoC5/SPIS.c **** {
 338              		.loc 1 466 0
 339              		.cfi_startproc
 340              		@ args = 0, pretend = 0, frame = 0
 341              		@ frame_needed = 0, uses_anonymous_args = 0
 342 0000 10B5     		push	{r4, lr}
 343              		.cfi_def_cfa_offset 8
 344              		.cfi_offset 4, -8
 345              		.cfi_offset 14, -4
 346              	.LBB40:
 347              	.LBB41:
 331:.\Generated_Source\PSoC5/SPIS.c ****     #endif /* SPIS_INTERNAL_RX_INT_ENABLED */
 348              		.loc 1 331 0
 349 0002 074B     		ldr	r3, .L29
 350 0004 0422     		movs	r2, #4
 351 0006 1A60     		str	r2, [r3]
 352              	.LBE41:
 353              	.LBE40:
 467:.\Generated_Source\PSoC5/SPIS.c ****     uint8 tmpStatus;
 468:.\Generated_Source\PSoC5/SPIS.c **** 
 469:.\Generated_Source\PSoC5/SPIS.c ****     #if (SPIS_RX_SOFTWARE_BUF_ENABLED)
 470:.\Generated_Source\PSoC5/SPIS.c **** 
 471:.\Generated_Source\PSoC5/SPIS.c ****         SPIS_DisableRxInt();
 472:.\Generated_Source\PSoC5/SPIS.c **** 
 473:.\Generated_Source\PSoC5/SPIS.c ****         tmpStatus = SPIS_GET_STATUS_RX(SPIS_swStatusRx);
 354              		.loc 1 473 0
 355 0008 0649     		ldr	r1, .L29+4
 356 000a 074B     		ldr	r3, .L29+8
 474:.\Generated_Source\PSoC5/SPIS.c **** 
 475:.\Generated_Source\PSoC5/SPIS.c ****         SPIS_swStatusRx = 0u;
 357              		.loc 1 475 0
 358 000c 0024     		movs	r4, #0
 473:.\Generated_Source\PSoC5/SPIS.c **** 
 359              		.loc 1 473 0
 360 000e 1878     		ldrb	r0, [r3]	@ zero_extendqisi2
 361 0010 0B78     		ldrb	r3, [r1]	@ zero_extendqisi2
 362              	.LVL8:
 363              		.loc 1 475 0
 364 0012 0C70     		strb	r4, [r1]
 365              	.LBB42:
 366              	.LBB43:
 281:.\Generated_Source\PSoC5/SPIS.c ****     #endif /* SPIS_INTERNAL_RX_INT_ENABLED */
 367              		.loc 1 281 0
 368 0014 0549     		ldr	r1, .L29+12
 369              	.LBE43:
 370              	.LBE42:
 473:.\Generated_Source\PSoC5/SPIS.c **** 
 371              		.loc 1 473 0
ARM GAS  C:\Users\jthem\AppData\Local\Temp\ccz7Pj1W.s 			page 16


 372 0016 03F06103 		and	r3, r3, #97
 373              	.LVL9:
 374              	.LBB45:
 375              	.LBB44:
 281:.\Generated_Source\PSoC5/SPIS.c ****     #endif /* SPIS_INTERNAL_RX_INT_ENABLED */
 376              		.loc 1 281 0
 377 001a 0A60     		str	r2, [r1]
 378              	.LBE44:
 379              	.LBE45:
 476:.\Generated_Source\PSoC5/SPIS.c **** 
 477:.\Generated_Source\PSoC5/SPIS.c ****         /* Enable Interrupts */
 478:.\Generated_Source\PSoC5/SPIS.c ****         SPIS_EnableRxInt();
 479:.\Generated_Source\PSoC5/SPIS.c **** 
 480:.\Generated_Source\PSoC5/SPIS.c ****     #else /* !SPIS_RX_SOFTWARE_BUF_ENABLED */
 481:.\Generated_Source\PSoC5/SPIS.c **** 
 482:.\Generated_Source\PSoC5/SPIS.c ****         tmpStatus = SPIS_RX_STATUS_REG;
 483:.\Generated_Source\PSoC5/SPIS.c **** 
 484:.\Generated_Source\PSoC5/SPIS.c ****     #endif /* SPIS_RX_SOFTWARE_BUF_ENABLED */
 485:.\Generated_Source\PSoC5/SPIS.c **** 
 486:.\Generated_Source\PSoC5/SPIS.c ****     return(tmpStatus);
 487:.\Generated_Source\PSoC5/SPIS.c **** }
 380              		.loc 1 487 0
 381 001c 1843     		orrs	r0, r0, r3
 382 001e 10BD     		pop	{r4, pc}
 383              	.L30:
 384              		.align	2
 385              	.L29:
 386 0020 80E100E0 		.word	-536813184
 387 0024 00000000 		.word	SPIS_swStatusRx
 388 0028 65640040 		.word	1073767525
 389 002c 00E100E0 		.word	-536813312
 390              		.cfi_endproc
 391              	.LFE11:
 392              		.size	SPIS_ReadRxStatus, .-SPIS_ReadRxStatus
 393              		.section	.text.SPIS_WriteTxData,"ax",%progbits
 394              		.align	1
 395              		.global	SPIS_WriteTxData
 396              		.thumb
 397              		.thumb_func
 398              		.type	SPIS_WriteTxData, %function
 399              	SPIS_WriteTxData:
 400              	.LFB12:
 488:.\Generated_Source\PSoC5/SPIS.c **** 
 489:.\Generated_Source\PSoC5/SPIS.c **** 
 490:.\Generated_Source\PSoC5/SPIS.c **** /*******************************************************************************
 491:.\Generated_Source\PSoC5/SPIS.c **** * Function Name: SPIS_WriteTxData
 492:.\Generated_Source\PSoC5/SPIS.c **** ********************************************************************************
 493:.\Generated_Source\PSoC5/SPIS.c **** *
 494:.\Generated_Source\PSoC5/SPIS.c **** * Summary:
 495:.\Generated_Source\PSoC5/SPIS.c **** *  Write a byte of data to be sent across the SPI.
 496:.\Generated_Source\PSoC5/SPIS.c **** *
 497:.\Generated_Source\PSoC5/SPIS.c **** * Parameters:
 498:.\Generated_Source\PSoC5/SPIS.c **** *  txDataByte: The data value to send across the SPI.
 499:.\Generated_Source\PSoC5/SPIS.c **** *
 500:.\Generated_Source\PSoC5/SPIS.c **** * Return:
 501:.\Generated_Source\PSoC5/SPIS.c **** *  None.
 502:.\Generated_Source\PSoC5/SPIS.c **** *
ARM GAS  C:\Users\jthem\AppData\Local\Temp\ccz7Pj1W.s 			page 17


 503:.\Generated_Source\PSoC5/SPIS.c **** * Global variables:
 504:.\Generated_Source\PSoC5/SPIS.c **** *  SPIS_txBufferWrite - used for the account of the bytes which
 505:.\Generated_Source\PSoC5/SPIS.c **** *  have been written down in the TX software buffer, modified every function
 506:.\Generated_Source\PSoC5/SPIS.c **** *  call if TX Software Buffer is used.
 507:.\Generated_Source\PSoC5/SPIS.c **** *  SPIS_txBufferRead - used for the account of the bytes which
 508:.\Generated_Source\PSoC5/SPIS.c **** *  have been read from the TX software buffer.
 509:.\Generated_Source\PSoC5/SPIS.c **** *  SPIS_txBuffer[SPIS_TX_BUFFER_SIZE] - used to store
 510:.\Generated_Source\PSoC5/SPIS.c **** *  data to sending, modified every function call if TX Software Buffer is used.
 511:.\Generated_Source\PSoC5/SPIS.c **** *
 512:.\Generated_Source\PSoC5/SPIS.c **** * Theory:
 513:.\Generated_Source\PSoC5/SPIS.c **** *  Allows the user to transmit any byte of data in a single transfer.
 514:.\Generated_Source\PSoC5/SPIS.c **** *
 515:.\Generated_Source\PSoC5/SPIS.c **** * Side Effects:
 516:.\Generated_Source\PSoC5/SPIS.c **** *  If this function is called again before the previous byte is finished then
 517:.\Generated_Source\PSoC5/SPIS.c **** *  the next byte will be appended to the transfer with no time between
 518:.\Generated_Source\PSoC5/SPIS.c **** *  the byte transfers. Clear Tx status register of the component.
 519:.\Generated_Source\PSoC5/SPIS.c **** *
 520:.\Generated_Source\PSoC5/SPIS.c **** * Reentrant:
 521:.\Generated_Source\PSoC5/SPIS.c **** *  No.
 522:.\Generated_Source\PSoC5/SPIS.c **** *
 523:.\Generated_Source\PSoC5/SPIS.c **** *******************************************************************************/
 524:.\Generated_Source\PSoC5/SPIS.c **** void SPIS_WriteTxData(uint8 txData) 
 525:.\Generated_Source\PSoC5/SPIS.c **** {
 401              		.loc 1 525 0
 402              		.cfi_startproc
 403              		@ args = 0, pretend = 0, frame = 0
 404              		@ frame_needed = 0, uses_anonymous_args = 0
 405              	.LVL10:
 406 0000 70B5     		push	{r4, r5, r6, lr}
 407              		.cfi_def_cfa_offset 16
 408              		.cfi_offset 4, -16
 409              		.cfi_offset 5, -12
 410              		.cfi_offset 6, -8
 411              		.cfi_offset 14, -4
 412              	.L33:
 526:.\Generated_Source\PSoC5/SPIS.c ****     #if(SPIS_TX_SOFTWARE_BUF_ENABLED)
 527:.\Generated_Source\PSoC5/SPIS.c **** 
 528:.\Generated_Source\PSoC5/SPIS.c ****         uint8 tempStatus;
 529:.\Generated_Source\PSoC5/SPIS.c ****         uint8 tmpTxBufferRead;
 530:.\Generated_Source\PSoC5/SPIS.c **** 
 531:.\Generated_Source\PSoC5/SPIS.c ****         /* Block if buffer is full, so we don't overwrite. */
 532:.\Generated_Source\PSoC5/SPIS.c ****         do
 533:.\Generated_Source\PSoC5/SPIS.c ****         {
 534:.\Generated_Source\PSoC5/SPIS.c ****             tmpTxBufferRead = SPIS_txBufferRead;
 413              		.loc 1 534 0
 414 0002 254A     		ldr	r2, .L45
 415 0004 1178     		ldrb	r1, [r2]	@ zero_extendqisi2
 416              	.LVL11:
 535:.\Generated_Source\PSoC5/SPIS.c ****             if (0u == tmpTxBufferRead)
 417              		.loc 1 535 0
 418 0006 01F0FF03 		and	r3, r1, #255
 419 000a 11B1     		cbz	r1, .L39
 536:.\Generated_Source\PSoC5/SPIS.c ****             {
 537:.\Generated_Source\PSoC5/SPIS.c ****                 tmpTxBufferRead = SPIS_TX_BUFFER_SIZE - 1u;
 538:.\Generated_Source\PSoC5/SPIS.c ****             }
 539:.\Generated_Source\PSoC5/SPIS.c ****             else
 540:.\Generated_Source\PSoC5/SPIS.c ****             {
ARM GAS  C:\Users\jthem\AppData\Local\Temp\ccz7Pj1W.s 			page 18


 541:.\Generated_Source\PSoC5/SPIS.c ****                 tmpTxBufferRead--;
 420              		.loc 1 541 0
 421 000c 013B     		subs	r3, r3, #1
 422 000e DBB2     		uxtb	r3, r3
 423              	.LVL12:
 424 0010 00E0     		b	.L32
 425              	.LVL13:
 426              	.L39:
 537:.\Generated_Source\PSoC5/SPIS.c ****             }
 427              		.loc 1 537 0
 428 0012 0723     		movs	r3, #7
 429              	.LVL14:
 430              	.L32:
 542:.\Generated_Source\PSoC5/SPIS.c ****             }
 543:.\Generated_Source\PSoC5/SPIS.c **** 
 544:.\Generated_Source\PSoC5/SPIS.c ****         }
 545:.\Generated_Source\PSoC5/SPIS.c ****         while(tmpTxBufferRead == SPIS_txBufferWrite);
 431              		.loc 1 545 0
 432 0014 214D     		ldr	r5, .L45+4
 433 0016 2978     		ldrb	r1, [r5]	@ zero_extendqisi2
 434 0018 8B42     		cmp	r3, r1
 435 001a 2B46     		mov	r3, r5
 436              	.LVL15:
 437 001c F1D0     		beq	.L33
 438              	.LBB46:
 439              	.LBB47:
 306:.\Generated_Source\PSoC5/SPIS.c ****     #endif /* SPIS_INTERNAL_TX_INT_ENABLED */
 440              		.loc 1 306 0
 441 001e 2049     		ldr	r1, .L45+8
 442 0020 0824     		movs	r4, #8
 443 0022 0C60     		str	r4, [r1]
 444              	.LBE47:
 445              	.LBE46:
 546:.\Generated_Source\PSoC5/SPIS.c **** 
 547:.\Generated_Source\PSoC5/SPIS.c ****         /* Disable Interrupt to protect variables that could change on interrupt. */
 548:.\Generated_Source\PSoC5/SPIS.c ****         SPIS_DisableTxInt();
 549:.\Generated_Source\PSoC5/SPIS.c **** 
 550:.\Generated_Source\PSoC5/SPIS.c ****         tempStatus = SPIS_GET_STATUS_TX(SPIS_swStatusTx);
 446              		.loc 1 550 0
 447 0024 1F49     		ldr	r1, .L45+12
 448 0026 204C     		ldr	r4, .L45+16
 449 0028 0E78     		ldrb	r6, [r1]	@ zero_extendqisi2
 450 002a 2178     		ldrb	r1, [r4]	@ zero_extendqisi2
 451 002c 01F06101 		and	r1, r1, #97
 452 0030 3143     		orrs	r1, r1, r6
 453              	.LVL16:
 551:.\Generated_Source\PSoC5/SPIS.c ****         SPIS_swStatusTx = tempStatus;
 454              		.loc 1 551 0
 455 0032 2170     		strb	r1, [r4]
 552:.\Generated_Source\PSoC5/SPIS.c **** 
 553:.\Generated_Source\PSoC5/SPIS.c ****         if((SPIS_txBufferRead == SPIS_txBufferWrite) &&
 456              		.loc 1 553 0
 457 0034 1678     		ldrb	r6, [r2]	@ zero_extendqisi2
 458 0036 2978     		ldrb	r1, [r5]	@ zero_extendqisi2
 459              	.LVL17:
 460 0038 8E42     		cmp	r6, r1
 461 003a 05D1     		bne	.L34
ARM GAS  C:\Users\jthem\AppData\Local\Temp\ccz7Pj1W.s 			page 19


 554:.\Generated_Source\PSoC5/SPIS.c ****             (0u != (SPIS_swStatusTx & SPIS_STS_TX_FIFO_NOT_FULL)))
 462              		.loc 1 554 0 discriminator 1
 463 003c 2178     		ldrb	r1, [r4]	@ zero_extendqisi2
 553:.\Generated_Source\PSoC5/SPIS.c ****             (0u != (SPIS_swStatusTx & SPIS_STS_TX_FIFO_NOT_FULL)))
 464              		.loc 1 553 0 discriminator 1
 465 003e 8907     		lsls	r1, r1, #30
 466 0040 02D5     		bpl	.L34
 555:.\Generated_Source\PSoC5/SPIS.c ****         {
 556:.\Generated_Source\PSoC5/SPIS.c ****             /* Put data element into the TX FIFO */
 557:.\Generated_Source\PSoC5/SPIS.c ****             CY_SET_REG8(SPIS_TXDATA_PTR, txData);
 467              		.loc 1 557 0
 468 0042 1A4B     		ldr	r3, .L45+20
 469 0044 1870     		strb	r0, [r3]
 470              	.LVL18:
 471 0046 23E0     		b	.L35
 472              	.LVL19:
 473              	.L34:
 558:.\Generated_Source\PSoC5/SPIS.c ****         }
 559:.\Generated_Source\PSoC5/SPIS.c ****         else
 560:.\Generated_Source\PSoC5/SPIS.c ****         {
 561:.\Generated_Source\PSoC5/SPIS.c ****             /* Put data element into the software buffer */
 562:.\Generated_Source\PSoC5/SPIS.c ****             SPIS_txBufferWrite++;
 474              		.loc 1 562 0
 475 0048 1978     		ldrb	r1, [r3]	@ zero_extendqisi2
 476 004a 0131     		adds	r1, r1, #1
 477 004c C9B2     		uxtb	r1, r1
 478 004e 1970     		strb	r1, [r3]
 479              	.LVL20:
 563:.\Generated_Source\PSoC5/SPIS.c ****             if(SPIS_txBufferWrite >= SPIS_TX_BUFFER_SIZE)
 480              		.loc 1 563 0
 481 0050 1978     		ldrb	r1, [r3]	@ zero_extendqisi2
 482 0052 0729     		cmp	r1, #7
 564:.\Generated_Source\PSoC5/SPIS.c ****             {
 565:.\Generated_Source\PSoC5/SPIS.c ****                 SPIS_txBufferWrite = 0u;
 483              		.loc 1 565 0
 484 0054 82BF     		ittt	hi
 485 0056 1149     		ldrhi	r1, .L45+4
 486 0058 0024     		movhi	r4, #0
 487 005a 0C70     		strbhi	r4, [r1]
 566:.\Generated_Source\PSoC5/SPIS.c ****             }
 567:.\Generated_Source\PSoC5/SPIS.c **** 
 568:.\Generated_Source\PSoC5/SPIS.c ****             if(SPIS_txBufferWrite == SPIS_txBufferRead)
 488              		.loc 1 568 0
 489 005c 1C78     		ldrb	r4, [r3]	@ zero_extendqisi2
 490 005e 1278     		ldrb	r2, [r2]	@ zero_extendqisi2
 491 0060 0D49     		ldr	r1, .L45
 492 0062 9442     		cmp	r4, r2
 493 0064 0BD1     		bne	.L37
 569:.\Generated_Source\PSoC5/SPIS.c ****             {
 570:.\Generated_Source\PSoC5/SPIS.c ****                 SPIS_txBufferRead++;
 494              		.loc 1 570 0
 495 0066 0A78     		ldrb	r2, [r1]	@ zero_extendqisi2
 496 0068 0132     		adds	r2, r2, #1
 497 006a D2B2     		uxtb	r2, r2
 498 006c 0A70     		strb	r2, [r1]
 571:.\Generated_Source\PSoC5/SPIS.c ****                 if(SPIS_txBufferRead >= SPIS_RX_BUFFER_SIZE)
 499              		.loc 1 571 0
ARM GAS  C:\Users\jthem\AppData\Local\Temp\ccz7Pj1W.s 			page 20


 500 006e 0A78     		ldrb	r2, [r1]	@ zero_extendqisi2
 501 0070 072A     		cmp	r2, #7
 572:.\Generated_Source\PSoC5/SPIS.c ****                 {
 573:.\Generated_Source\PSoC5/SPIS.c ****                     SPIS_txBufferRead = 0u;
 502              		.loc 1 573 0
 503 0072 84BF     		itt	hi
 504 0074 0022     		movhi	r2, #0
 505 0076 0A70     		strbhi	r2, [r1]
 574:.\Generated_Source\PSoC5/SPIS.c ****                 }
 575:.\Generated_Source\PSoC5/SPIS.c ****                 SPIS_txBufferFull = 1u;
 506              		.loc 1 575 0
 507 0078 0D4A     		ldr	r2, .L45+24
 508 007a 0121     		movs	r1, #1
 509 007c 1170     		strb	r1, [r2]
 510              	.L37:
 576:.\Generated_Source\PSoC5/SPIS.c ****             }
 577:.\Generated_Source\PSoC5/SPIS.c **** 
 578:.\Generated_Source\PSoC5/SPIS.c ****             SPIS_txBuffer[SPIS_txBufferWrite] = txData;
 511              		.loc 1 578 0
 512 007e 1B78     		ldrb	r3, [r3]	@ zero_extendqisi2
 513 0080 0C4A     		ldr	r2, .L45+28
 514 0082 DBB2     		uxtb	r3, r3
 515 0084 D054     		strb	r0, [r2, r3]
 579:.\Generated_Source\PSoC5/SPIS.c **** 
 580:.\Generated_Source\PSoC5/SPIS.c ****             SPIS_TX_STATUS_MASK_REG |= SPIS_STS_TX_FIFO_NOT_FULL;
 516              		.loc 1 580 0
 517 0086 0C4A     		ldr	r2, .L45+32
 518 0088 1378     		ldrb	r3, [r2]	@ zero_extendqisi2
 519 008a 43F00203 		orr	r3, r3, #2
 520 008e 1370     		strb	r3, [r2]
 521              	.L35:
 522              	.LBB48:
 523              	.LBB49:
 256:.\Generated_Source\PSoC5/SPIS.c ****     #endif /* SPIS_INTERNAL_TX_INT_ENABLED */
 524              		.loc 1 256 0
 525 0090 0A4B     		ldr	r3, .L45+36
 526 0092 0822     		movs	r2, #8
 527 0094 1A60     		str	r2, [r3]
 528 0096 70BD     		pop	{r4, r5, r6, pc}
 529              	.L46:
 530              		.align	2
 531              	.L45:
 532 0098 00000000 		.word	SPIS_txBufferRead
 533 009c 00000000 		.word	SPIS_txBufferWrite
 534 00a0 80E100E0 		.word	-536813184
 535 00a4 66640040 		.word	1073767526
 536 00a8 00000000 		.word	SPIS_swStatusTx
 537 00ac 44640040 		.word	1073767492
 538 00b0 00000000 		.word	SPIS_txBufferFull
 539 00b4 00000000 		.word	SPIS_txBuffer
 540 00b8 86640040 		.word	1073767558
 541 00bc 00E100E0 		.word	-536813312
 542              	.LBE49:
 543              	.LBE48:
 544              		.cfi_endproc
 545              	.LFE12:
 546              		.size	SPIS_WriteTxData, .-SPIS_WriteTxData
ARM GAS  C:\Users\jthem\AppData\Local\Temp\ccz7Pj1W.s 			page 21


 547              		.section	.text.SPIS_WriteTxDataZero,"ax",%progbits
 548              		.align	1
 549              		.global	SPIS_WriteTxDataZero
 550              		.thumb
 551              		.thumb_func
 552              		.type	SPIS_WriteTxDataZero, %function
 553              	SPIS_WriteTxDataZero:
 554              	.LFB13:
 581:.\Generated_Source\PSoC5/SPIS.c ****         }
 582:.\Generated_Source\PSoC5/SPIS.c **** 
 583:.\Generated_Source\PSoC5/SPIS.c ****         /* Enable Interrupt. */
 584:.\Generated_Source\PSoC5/SPIS.c ****         SPIS_EnableTxInt();
 585:.\Generated_Source\PSoC5/SPIS.c **** 
 586:.\Generated_Source\PSoC5/SPIS.c ****     #else /* !SPIS_TX_SOFTWARE_BUF_ENABLED */
 587:.\Generated_Source\PSoC5/SPIS.c ****         /* Wait until TX FIFO has a place */
 588:.\Generated_Source\PSoC5/SPIS.c ****         while(0u == (SPIS_TX_STATUS_REG & SPIS_STS_TX_FIFO_NOT_FULL))
 589:.\Generated_Source\PSoC5/SPIS.c ****         {
 590:.\Generated_Source\PSoC5/SPIS.c ****         }
 591:.\Generated_Source\PSoC5/SPIS.c **** 
 592:.\Generated_Source\PSoC5/SPIS.c ****         /* Put data element into the TX FIFO */
 593:.\Generated_Source\PSoC5/SPIS.c ****         CY_SET_REG8(SPIS_TXDATA_PTR, txData);
 594:.\Generated_Source\PSoC5/SPIS.c ****         
 595:.\Generated_Source\PSoC5/SPIS.c ****     #endif /* SPIS_TX_SOFTWARE_BUF_ENABLED */
 596:.\Generated_Source\PSoC5/SPIS.c **** }
 597:.\Generated_Source\PSoC5/SPIS.c **** 
 598:.\Generated_Source\PSoC5/SPIS.c **** #if(SPIS_MODE_USE_ZERO != 0u)
 599:.\Generated_Source\PSoC5/SPIS.c **** 
 600:.\Generated_Source\PSoC5/SPIS.c ****     /*******************************************************************************
 601:.\Generated_Source\PSoC5/SPIS.c ****     * Function Name: SPIS_WriteTxDataZero
 602:.\Generated_Source\PSoC5/SPIS.c ****     ********************************************************************************
 603:.\Generated_Source\PSoC5/SPIS.c ****     *
 604:.\Generated_Source\PSoC5/SPIS.c ****     * Summary:
 605:.\Generated_Source\PSoC5/SPIS.c ****     *  Write a byte zero of data to be sent across the SPI. This must be used in
 606:.\Generated_Source\PSoC5/SPIS.c ****     *  Mode 00 and 01 if the FIFO is empty and data is not being sent.
 607:.\Generated_Source\PSoC5/SPIS.c ****     *
 608:.\Generated_Source\PSoC5/SPIS.c ****     * Parameters:
 609:.\Generated_Source\PSoC5/SPIS.c ****     *  txDataByte: The data value to send across the SPI.
 610:.\Generated_Source\PSoC5/SPIS.c ****     *
 611:.\Generated_Source\PSoC5/SPIS.c ****     * Return:
 612:.\Generated_Source\PSoC5/SPIS.c ****     *  None.
 613:.\Generated_Source\PSoC5/SPIS.c ****     *
 614:.\Generated_Source\PSoC5/SPIS.c ****     * Theory:
 615:.\Generated_Source\PSoC5/SPIS.c ****     *  Allows the user to transmit any byte of data in a single transfer. Clear
 616:.\Generated_Source\PSoC5/SPIS.c ****     *  status register of the component.
 617:.\Generated_Source\PSoC5/SPIS.c ****     *
 618:.\Generated_Source\PSoC5/SPIS.c ****     *******************************************************************************/
 619:.\Generated_Source\PSoC5/SPIS.c ****     void SPIS_WriteTxDataZero(uint8 txDataByte)
 620:.\Generated_Source\PSoC5/SPIS.c ****                                         
 621:.\Generated_Source\PSoC5/SPIS.c ****     {
 555              		.loc 1 621 0
 556              		.cfi_startproc
 557              		@ args = 0, pretend = 0, frame = 0
 558              		@ frame_needed = 0, uses_anonymous_args = 0
 559              		@ link register save eliminated.
 560              	.LVL21:
 622:.\Generated_Source\PSoC5/SPIS.c ****         CY_SET_REG8(SPIS_TXDATA_ZERO_PTR, txDataByte);
 561              		.loc 1 622 0
ARM GAS  C:\Users\jthem\AppData\Local\Temp\ccz7Pj1W.s 			page 22


 562 0000 014B     		ldr	r3, .L48
 563 0002 1870     		strb	r0, [r3]
 564 0004 7047     		bx	lr
 565              	.L49:
 566 0006 00BF     		.align	2
 567              	.L48:
 568 0008 04640040 		.word	1073767428
 569              		.cfi_endproc
 570              	.LFE13:
 571              		.size	SPIS_WriteTxDataZero, .-SPIS_WriteTxDataZero
 572              		.section	.text.SPIS_ReadRxData,"ax",%progbits
 573              		.align	1
 574              		.global	SPIS_ReadRxData
 575              		.thumb
 576              		.thumb_func
 577              		.type	SPIS_ReadRxData, %function
 578              	SPIS_ReadRxData:
 579              	.LFB14:
 623:.\Generated_Source\PSoC5/SPIS.c ****     }
 624:.\Generated_Source\PSoC5/SPIS.c **** 
 625:.\Generated_Source\PSoC5/SPIS.c **** #endif /* (SPIS_MODE_USE_ZERO != 0u) */
 626:.\Generated_Source\PSoC5/SPIS.c **** 
 627:.\Generated_Source\PSoC5/SPIS.c **** 
 628:.\Generated_Source\PSoC5/SPIS.c **** /*******************************************************************************
 629:.\Generated_Source\PSoC5/SPIS.c **** * Function Name: SPIS_ReadRxData
 630:.\Generated_Source\PSoC5/SPIS.c **** ********************************************************************************
 631:.\Generated_Source\PSoC5/SPIS.c **** *
 632:.\Generated_Source\PSoC5/SPIS.c **** * Summary:
 633:.\Generated_Source\PSoC5/SPIS.c **** *  Read the next byte of data received across the SPI.
 634:.\Generated_Source\PSoC5/SPIS.c **** *
 635:.\Generated_Source\PSoC5/SPIS.c **** * Parameters:
 636:.\Generated_Source\PSoC5/SPIS.c **** *  None.
 637:.\Generated_Source\PSoC5/SPIS.c **** *
 638:.\Generated_Source\PSoC5/SPIS.c **** * Return:
 639:.\Generated_Source\PSoC5/SPIS.c **** *  The next byte of data read from the FIFO.
 640:.\Generated_Source\PSoC5/SPIS.c **** *
 641:.\Generated_Source\PSoC5/SPIS.c **** * Global variables:
 642:.\Generated_Source\PSoC5/SPIS.c **** *  SPIS_rxBufferWrite - used for the account of the bytes which
 643:.\Generated_Source\PSoC5/SPIS.c **** *  have been written down in the RX software buffer.
 644:.\Generated_Source\PSoC5/SPIS.c **** *  SPIS_rxBufferRead - used for the account of the bytes which
 645:.\Generated_Source\PSoC5/SPIS.c **** *  have been read from the RX software buffer, modified every function
 646:.\Generated_Source\PSoC5/SPIS.c **** *  call if RX Software Buffer is used.
 647:.\Generated_Source\PSoC5/SPIS.c **** *  SPIS_rxBuffer[SPIS_RX_BUFFER_SIZE] - used to store
 648:.\Generated_Source\PSoC5/SPIS.c **** *  received data.
 649:.\Generated_Source\PSoC5/SPIS.c **** *
 650:.\Generated_Source\PSoC5/SPIS.c **** * Theory:
 651:.\Generated_Source\PSoC5/SPIS.c **** *  Allows the user to read a byte of data received.
 652:.\Generated_Source\PSoC5/SPIS.c **** *
 653:.\Generated_Source\PSoC5/SPIS.c **** * Side Effects:
 654:.\Generated_Source\PSoC5/SPIS.c **** *  Will return invalid data if the FIFO is empty.  User should poll for FIFO
 655:.\Generated_Source\PSoC5/SPIS.c **** *  empty status before calling Read function.
 656:.\Generated_Source\PSoC5/SPIS.c **** *
 657:.\Generated_Source\PSoC5/SPIS.c **** * Reentrant:
 658:.\Generated_Source\PSoC5/SPIS.c **** *  No.
 659:.\Generated_Source\PSoC5/SPIS.c **** *
 660:.\Generated_Source\PSoC5/SPIS.c **** *******************************************************************************/
 661:.\Generated_Source\PSoC5/SPIS.c **** uint8 SPIS_ReadRxData(void) 
ARM GAS  C:\Users\jthem\AppData\Local\Temp\ccz7Pj1W.s 			page 23


 662:.\Generated_Source\PSoC5/SPIS.c **** {
 580              		.loc 1 662 0
 581              		.cfi_startproc
 582              		@ args = 0, pretend = 0, frame = 0
 583              		@ frame_needed = 0, uses_anonymous_args = 0
 584              		@ link register save eliminated.
 585              	.LBB50:
 586              	.LBB51:
 331:.\Generated_Source\PSoC5/SPIS.c ****     #endif /* SPIS_INTERNAL_RX_INT_ENABLED */
 587              		.loc 1 331 0
 588 0000 104B     		ldr	r3, .L55
 589 0002 0422     		movs	r2, #4
 590 0004 1A60     		str	r2, [r3]
 591              	.LBE51:
 592              	.LBE50:
 663:.\Generated_Source\PSoC5/SPIS.c ****     uint8 rxData;
 664:.\Generated_Source\PSoC5/SPIS.c **** 
 665:.\Generated_Source\PSoC5/SPIS.c ****     #if(SPIS_RX_SOFTWARE_BUF_ENABLED)
 666:.\Generated_Source\PSoC5/SPIS.c **** 
 667:.\Generated_Source\PSoC5/SPIS.c ****         /* Disable Interrupt to protect variables that could change on interrupt. */
 668:.\Generated_Source\PSoC5/SPIS.c ****         SPIS_DisableRxInt();
 669:.\Generated_Source\PSoC5/SPIS.c **** 
 670:.\Generated_Source\PSoC5/SPIS.c ****         if(SPIS_rxBufferRead != SPIS_rxBufferWrite)
 593              		.loc 1 670 0
 594 0006 104B     		ldr	r3, .L55+4
 595 0008 104A     		ldr	r2, .L55+8
 596 000a 1978     		ldrb	r1, [r3]	@ zero_extendqisi2
 597 000c 1278     		ldrb	r2, [r2]	@ zero_extendqisi2
 598 000e 9142     		cmp	r1, r2
 599 0010 0FD0     		beq	.L52
 671:.\Generated_Source\PSoC5/SPIS.c ****         {
 672:.\Generated_Source\PSoC5/SPIS.c ****             if(SPIS_rxBufferFull == 0u)
 600              		.loc 1 672 0
 601 0012 0F4A     		ldr	r2, .L55+12
 602 0014 1178     		ldrb	r1, [r2]	@ zero_extendqisi2
 603 0016 01F0FF00 		and	r0, r1, #255
 604 001a 41B9     		cbnz	r1, .L53
 673:.\Generated_Source\PSoC5/SPIS.c ****             {
 674:.\Generated_Source\PSoC5/SPIS.c ****                 SPIS_rxBufferRead++;
 605              		.loc 1 674 0
 606 001c 1A78     		ldrb	r2, [r3]	@ zero_extendqisi2
 607 001e 0132     		adds	r2, r2, #1
 608 0020 D2B2     		uxtb	r2, r2
 609 0022 1A70     		strb	r2, [r3]
 675:.\Generated_Source\PSoC5/SPIS.c ****                 if(SPIS_rxBufferRead >= SPIS_RX_BUFFER_SIZE)
 610              		.loc 1 675 0
 611 0024 1A78     		ldrb	r2, [r3]	@ zero_extendqisi2
 612 0026 072A     		cmp	r2, #7
 613 0028 03D9     		bls	.L52
 676:.\Generated_Source\PSoC5/SPIS.c ****                 {
 677:.\Generated_Source\PSoC5/SPIS.c ****                     SPIS_rxBufferRead = 0u;
 614              		.loc 1 677 0
 615 002a 1870     		strb	r0, [r3]
 616 002c 01E0     		b	.L52
 617              	.L53:
 678:.\Generated_Source\PSoC5/SPIS.c ****                 }
 679:.\Generated_Source\PSoC5/SPIS.c ****             }
ARM GAS  C:\Users\jthem\AppData\Local\Temp\ccz7Pj1W.s 			page 24


 680:.\Generated_Source\PSoC5/SPIS.c ****             else
 681:.\Generated_Source\PSoC5/SPIS.c ****             {
 682:.\Generated_Source\PSoC5/SPIS.c ****                 SPIS_rxBufferFull = 0u;
 618              		.loc 1 682 0
 619 002e 0021     		movs	r1, #0
 620 0030 1170     		strb	r1, [r2]
 621              	.L52:
 683:.\Generated_Source\PSoC5/SPIS.c ****             }
 684:.\Generated_Source\PSoC5/SPIS.c ****         }
 685:.\Generated_Source\PSoC5/SPIS.c **** 
 686:.\Generated_Source\PSoC5/SPIS.c ****         rxData = SPIS_rxBuffer[SPIS_rxBufferRead];
 622              		.loc 1 686 0
 623 0032 1B78     		ldrb	r3, [r3]	@ zero_extendqisi2
 624 0034 074A     		ldr	r2, .L55+16
 625 0036 DBB2     		uxtb	r3, r3
 626 0038 D05C     		ldrb	r0, [r2, r3]	@ zero_extendqisi2
 627              	.LVL22:
 628              	.LBB52:
 629              	.LBB53:
 281:.\Generated_Source\PSoC5/SPIS.c ****     #endif /* SPIS_INTERNAL_RX_INT_ENABLED */
 630              		.loc 1 281 0
 631 003a 074B     		ldr	r3, .L55+20
 632 003c 0422     		movs	r2, #4
 633 003e 1A60     		str	r2, [r3]
 634              	.LBE53:
 635              	.LBE52:
 687:.\Generated_Source\PSoC5/SPIS.c **** 
 688:.\Generated_Source\PSoC5/SPIS.c ****         /* Enable Interrupt. */
 689:.\Generated_Source\PSoC5/SPIS.c ****         SPIS_EnableRxInt();
 690:.\Generated_Source\PSoC5/SPIS.c **** 
 691:.\Generated_Source\PSoC5/SPIS.c ****     #else /* !SPIS_RX_SOFTWARE_BUF_ENABLED */
 692:.\Generated_Source\PSoC5/SPIS.c **** 
 693:.\Generated_Source\PSoC5/SPIS.c ****         rxData = CY_GET_REG8(SPIS_RXDATA_PTR);
 694:.\Generated_Source\PSoC5/SPIS.c **** 
 695:.\Generated_Source\PSoC5/SPIS.c ****     #endif /* SPIS_RX_SOFTWARE_BUF_ENABLED */
 696:.\Generated_Source\PSoC5/SPIS.c **** 
 697:.\Generated_Source\PSoC5/SPIS.c ****     return (rxData);
 698:.\Generated_Source\PSoC5/SPIS.c **** 
 699:.\Generated_Source\PSoC5/SPIS.c **** }
 636              		.loc 1 699 0
 637 0040 7047     		bx	lr
 638              	.L56:
 639 0042 00BF     		.align	2
 640              	.L55:
 641 0044 80E100E0 		.word	-536813184
 642 0048 00000000 		.word	SPIS_rxBufferRead
 643 004c 00000000 		.word	SPIS_rxBufferWrite
 644 0050 00000000 		.word	SPIS_rxBufferFull
 645 0054 00000000 		.word	SPIS_rxBuffer
 646 0058 00E100E0 		.word	-536813312
 647              		.cfi_endproc
 648              	.LFE14:
 649              		.size	SPIS_ReadRxData, .-SPIS_ReadRxData
 650              		.section	.text.SPIS_GetRxBufferSize,"ax",%progbits
 651              		.align	1
 652              		.global	SPIS_GetRxBufferSize
 653              		.thumb
ARM GAS  C:\Users\jthem\AppData\Local\Temp\ccz7Pj1W.s 			page 25


 654              		.thumb_func
 655              		.type	SPIS_GetRxBufferSize, %function
 656              	SPIS_GetRxBufferSize:
 657              	.LFB15:
 700:.\Generated_Source\PSoC5/SPIS.c **** 
 701:.\Generated_Source\PSoC5/SPIS.c **** 
 702:.\Generated_Source\PSoC5/SPIS.c **** /*******************************************************************************
 703:.\Generated_Source\PSoC5/SPIS.c **** * Function Name: SPIS_GetRxBufferSize
 704:.\Generated_Source\PSoC5/SPIS.c **** ********************************************************************************
 705:.\Generated_Source\PSoC5/SPIS.c **** *
 706:.\Generated_Source\PSoC5/SPIS.c **** * Summary:
 707:.\Generated_Source\PSoC5/SPIS.c **** *  Returns the number of bytes/words of data currently held in the RX buffer.
 708:.\Generated_Source\PSoC5/SPIS.c **** *  If RX Software Buffer not used then function return 0 if FIFO empty or 1 if
 709:.\Generated_Source\PSoC5/SPIS.c **** *  FIFO not empty. In another case function return size of RX Software Buffer.
 710:.\Generated_Source\PSoC5/SPIS.c **** *
 711:.\Generated_Source\PSoC5/SPIS.c **** * Parameters:
 712:.\Generated_Source\PSoC5/SPIS.c **** *  None.
 713:.\Generated_Source\PSoC5/SPIS.c **** *
 714:.\Generated_Source\PSoC5/SPIS.c **** * Return:
 715:.\Generated_Source\PSoC5/SPIS.c **** *  Integer count of the number of bytes/words in the RX buffer.
 716:.\Generated_Source\PSoC5/SPIS.c **** *
 717:.\Generated_Source\PSoC5/SPIS.c **** * Global variables:
 718:.\Generated_Source\PSoC5/SPIS.c **** *  SPIS_rxBufferWrite - used for the account of the bytes which
 719:.\Generated_Source\PSoC5/SPIS.c **** *  have been written down in the RX software buffer.
 720:.\Generated_Source\PSoC5/SPIS.c **** *  SPIS_rxBufferRead - used for the account of the bytes which
 721:.\Generated_Source\PSoC5/SPIS.c **** *  have been read from the RX software buffer.
 722:.\Generated_Source\PSoC5/SPIS.c **** *
 723:.\Generated_Source\PSoC5/SPIS.c **** * Theory:
 724:.\Generated_Source\PSoC5/SPIS.c **** *  Allows the user to find out how full the RX Buffer is.
 725:.\Generated_Source\PSoC5/SPIS.c **** *
 726:.\Generated_Source\PSoC5/SPIS.c **** *******************************************************************************/
 727:.\Generated_Source\PSoC5/SPIS.c **** uint8 SPIS_GetRxBufferSize(void) 
 728:.\Generated_Source\PSoC5/SPIS.c **** {
 658              		.loc 1 728 0
 659              		.cfi_startproc
 660              		@ args = 0, pretend = 0, frame = 0
 661              		@ frame_needed = 0, uses_anonymous_args = 0
 662              		@ link register save eliminated.
 663              	.LBB54:
 664              	.LBB55:
 331:.\Generated_Source\PSoC5/SPIS.c ****     #endif /* SPIS_INTERNAL_RX_INT_ENABLED */
 665              		.loc 1 331 0
 666 0000 0D4B     		ldr	r3, .L62
 667 0002 0422     		movs	r2, #4
 668 0004 1A60     		str	r2, [r3]
 669              	.LBE55:
 670              	.LBE54:
 729:.\Generated_Source\PSoC5/SPIS.c ****     uint8 size;
 730:.\Generated_Source\PSoC5/SPIS.c **** 
 731:.\Generated_Source\PSoC5/SPIS.c ****     #if(SPIS_RX_SOFTWARE_BUF_ENABLED)
 732:.\Generated_Source\PSoC5/SPIS.c **** 
 733:.\Generated_Source\PSoC5/SPIS.c ****         /* Disable Interrupt to protect variables that could change on interrupt. */
 734:.\Generated_Source\PSoC5/SPIS.c ****         SPIS_DisableRxInt();
 735:.\Generated_Source\PSoC5/SPIS.c **** 
 736:.\Generated_Source\PSoC5/SPIS.c ****         if(SPIS_rxBufferRead == SPIS_rxBufferWrite)
 671              		.loc 1 736 0
 672 0006 0D4A     		ldr	r2, .L62+4
ARM GAS  C:\Users\jthem\AppData\Local\Temp\ccz7Pj1W.s 			page 26


 673 0008 0D4B     		ldr	r3, .L62+8
 674 000a 1078     		ldrb	r0, [r2]	@ zero_extendqisi2
 675 000c 1978     		ldrb	r1, [r3]	@ zero_extendqisi2
 676 000e 8842     		cmp	r0, r1
 677 0010 0DD0     		beq	.L60
 737:.\Generated_Source\PSoC5/SPIS.c ****         {
 738:.\Generated_Source\PSoC5/SPIS.c ****             size = 0u; /* No data in RX buffer */
 739:.\Generated_Source\PSoC5/SPIS.c ****         }
 740:.\Generated_Source\PSoC5/SPIS.c ****         else if(SPIS_rxBufferRead < SPIS_rxBufferWrite)
 678              		.loc 1 740 0
 679 0012 1078     		ldrb	r0, [r2]	@ zero_extendqisi2
 680 0014 1978     		ldrb	r1, [r3]	@ zero_extendqisi2
 681 0016 8842     		cmp	r0, r1
 741:.\Generated_Source\PSoC5/SPIS.c ****         {
 742:.\Generated_Source\PSoC5/SPIS.c ****             size = (SPIS_rxBufferWrite - SPIS_rxBufferRead);
 743:.\Generated_Source\PSoC5/SPIS.c ****         }
 744:.\Generated_Source\PSoC5/SPIS.c ****         else
 745:.\Generated_Source\PSoC5/SPIS.c ****         {
 746:.\Generated_Source\PSoC5/SPIS.c ****             size = (SPIS_RX_BUFFER_SIZE - SPIS_rxBufferRead) + SPIS_rxBufferWrite;
 682              		.loc 1 746 0
 683 0018 2BBF     		itete	cs
 684 001a 1878     		ldrbcs	r0, [r3]	@ zero_extendqisi2
 742:.\Generated_Source\PSoC5/SPIS.c ****         }
 685              		.loc 1 742 0
 686 001c 1B78     		ldrbcc	r3, [r3]	@ zero_extendqisi2
 687              		.loc 1 746 0
 688 001e 1378     		ldrbcs	r3, [r2]	@ zero_extendqisi2
 742:.\Generated_Source\PSoC5/SPIS.c ****         }
 689              		.loc 1 742 0
 690 0020 1078     		ldrbcc	r0, [r2]	@ zero_extendqisi2
 691 0022 2ABF     		itet	cs
 692 0024 0830     		addcs	r0, r0, #8
 693 0026 181A     		subcc	r0, r3, r0
 694              		.loc 1 746 0
 695 0028 C01A     		subcs	r0, r0, r3
 696 002a C0B2     		uxtb	r0, r0
 697              	.LVL23:
 698 002c 00E0     		b	.L58
 699              	.LVL24:
 700              	.L60:
 738:.\Generated_Source\PSoC5/SPIS.c ****         }
 701              		.loc 1 738 0
 702 002e 0020     		movs	r0, #0
 703              	.L58:
 704              	.LVL25:
 705              	.LBB56:
 706              	.LBB57:
 281:.\Generated_Source\PSoC5/SPIS.c ****     #endif /* SPIS_INTERNAL_RX_INT_ENABLED */
 707              		.loc 1 281 0
 708 0030 044B     		ldr	r3, .L62+12
 709 0032 0422     		movs	r2, #4
 710 0034 1A60     		str	r2, [r3]
 711              	.LBE57:
 712              	.LBE56:
 747:.\Generated_Source\PSoC5/SPIS.c ****         }
 748:.\Generated_Source\PSoC5/SPIS.c **** 
 749:.\Generated_Source\PSoC5/SPIS.c ****         /* Enable interrupt. */
ARM GAS  C:\Users\jthem\AppData\Local\Temp\ccz7Pj1W.s 			page 27


 750:.\Generated_Source\PSoC5/SPIS.c ****         SPIS_EnableRxInt();
 751:.\Generated_Source\PSoC5/SPIS.c **** 
 752:.\Generated_Source\PSoC5/SPIS.c ****     #else /* !SPIS_RX_SOFTWARE_BUF_ENABLED*/
 753:.\Generated_Source\PSoC5/SPIS.c **** 
 754:.\Generated_Source\PSoC5/SPIS.c ****         /* We can only know if there is data in the fifo. */
 755:.\Generated_Source\PSoC5/SPIS.c ****         size = ((SPIS_RX_STATUS_REG & SPIS_STS_RX_FIFO_NOT_EMPTY) != 0u) ? 1u : 0u;
 756:.\Generated_Source\PSoC5/SPIS.c **** 
 757:.\Generated_Source\PSoC5/SPIS.c ****     #endif /* SPIS_RX_SOFTWARE_BUF_ENABLED */
 758:.\Generated_Source\PSoC5/SPIS.c **** 
 759:.\Generated_Source\PSoC5/SPIS.c ****     return (size);
 760:.\Generated_Source\PSoC5/SPIS.c **** }
 713              		.loc 1 760 0
 714 0036 7047     		bx	lr
 715              	.L63:
 716              		.align	2
 717              	.L62:
 718 0038 80E100E0 		.word	-536813184
 719 003c 00000000 		.word	SPIS_rxBufferRead
 720 0040 00000000 		.word	SPIS_rxBufferWrite
 721 0044 00E100E0 		.word	-536813312
 722              		.cfi_endproc
 723              	.LFE15:
 724              		.size	SPIS_GetRxBufferSize, .-SPIS_GetRxBufferSize
 725              		.section	.text.SPIS_GetTxBufferSize,"ax",%progbits
 726              		.align	1
 727              		.global	SPIS_GetTxBufferSize
 728              		.thumb
 729              		.thumb_func
 730              		.type	SPIS_GetTxBufferSize, %function
 731              	SPIS_GetTxBufferSize:
 732              	.LFB16:
 761:.\Generated_Source\PSoC5/SPIS.c **** 
 762:.\Generated_Source\PSoC5/SPIS.c **** 
 763:.\Generated_Source\PSoC5/SPIS.c **** /*******************************************************************************
 764:.\Generated_Source\PSoC5/SPIS.c **** * Function Name: SPIS_GetTxBufferSize
 765:.\Generated_Source\PSoC5/SPIS.c **** ********************************************************************************
 766:.\Generated_Source\PSoC5/SPIS.c **** *
 767:.\Generated_Source\PSoC5/SPIS.c **** * Summary:
 768:.\Generated_Source\PSoC5/SPIS.c **** *  Returns the number of bytes/words of data currently held in the TX buffer.
 769:.\Generated_Source\PSoC5/SPIS.c **** *  If TX Software Buffer not used then function return 0 - if FIFO empty, 1 - if
 770:.\Generated_Source\PSoC5/SPIS.c **** *  FIFO not full, 4 - if FIFO full. In another case function return size of TX
 771:.\Generated_Source\PSoC5/SPIS.c **** *  Software Buffer.
 772:.\Generated_Source\PSoC5/SPIS.c **** *
 773:.\Generated_Source\PSoC5/SPIS.c **** * Parameters:
 774:.\Generated_Source\PSoC5/SPIS.c **** *  None.
 775:.\Generated_Source\PSoC5/SPIS.c **** *
 776:.\Generated_Source\PSoC5/SPIS.c **** * Return:
 777:.\Generated_Source\PSoC5/SPIS.c **** *  Integer count of the number of bytes/words in the TX buffer.
 778:.\Generated_Source\PSoC5/SPIS.c **** *
 779:.\Generated_Source\PSoC5/SPIS.c **** * Global variables:
 780:.\Generated_Source\PSoC5/SPIS.c **** *  SPIS_txBufferWrite - used for the account of the bytes which
 781:.\Generated_Source\PSoC5/SPIS.c **** *  have been written down in the TX software buffer.
 782:.\Generated_Source\PSoC5/SPIS.c **** *  SPIS_txBufferRead - used for the account of the bytes which
 783:.\Generated_Source\PSoC5/SPIS.c **** *  have been read from the TX software buffer.
 784:.\Generated_Source\PSoC5/SPIS.c **** *
 785:.\Generated_Source\PSoC5/SPIS.c **** * Theory:
 786:.\Generated_Source\PSoC5/SPIS.c **** *  Allows the user to find out how full the TX Buffer is.
ARM GAS  C:\Users\jthem\AppData\Local\Temp\ccz7Pj1W.s 			page 28


 787:.\Generated_Source\PSoC5/SPIS.c **** *
 788:.\Generated_Source\PSoC5/SPIS.c **** * Side Effects:
 789:.\Generated_Source\PSoC5/SPIS.c **** *  Clear status register of the component.
 790:.\Generated_Source\PSoC5/SPIS.c **** *
 791:.\Generated_Source\PSoC5/SPIS.c **** *******************************************************************************/
 792:.\Generated_Source\PSoC5/SPIS.c **** uint8  SPIS_GetTxBufferSize(void) 
 793:.\Generated_Source\PSoC5/SPIS.c **** {
 733              		.loc 1 793 0
 734              		.cfi_startproc
 735              		@ args = 0, pretend = 0, frame = 0
 736              		@ frame_needed = 0, uses_anonymous_args = 0
 737              		@ link register save eliminated.
 738              	.LBB58:
 739              	.LBB59:
 306:.\Generated_Source\PSoC5/SPIS.c ****     #endif /* SPIS_INTERNAL_TX_INT_ENABLED */
 740              		.loc 1 306 0
 741 0000 0D4B     		ldr	r3, .L69
 742 0002 0822     		movs	r2, #8
 743 0004 1A60     		str	r2, [r3]
 744              	.LBE59:
 745              	.LBE58:
 794:.\Generated_Source\PSoC5/SPIS.c ****     uint8 size;
 795:.\Generated_Source\PSoC5/SPIS.c **** 
 796:.\Generated_Source\PSoC5/SPIS.c ****     #if(SPIS_TX_SOFTWARE_BUF_ENABLED)
 797:.\Generated_Source\PSoC5/SPIS.c **** 
 798:.\Generated_Source\PSoC5/SPIS.c ****         /* Disable Interrupt to protect variables that could change on interrupt. */
 799:.\Generated_Source\PSoC5/SPIS.c ****         SPIS_DisableTxInt();
 800:.\Generated_Source\PSoC5/SPIS.c **** 
 801:.\Generated_Source\PSoC5/SPIS.c ****         if(SPIS_txBufferRead == SPIS_txBufferWrite)
 746              		.loc 1 801 0
 747 0006 0D4A     		ldr	r2, .L69+4
 748 0008 0D4B     		ldr	r3, .L69+8
 749 000a 1078     		ldrb	r0, [r2]	@ zero_extendqisi2
 750 000c 1978     		ldrb	r1, [r3]	@ zero_extendqisi2
 751 000e 8842     		cmp	r0, r1
 752 0010 0DD0     		beq	.L67
 802:.\Generated_Source\PSoC5/SPIS.c ****         {
 803:.\Generated_Source\PSoC5/SPIS.c ****             size = 0u;
 804:.\Generated_Source\PSoC5/SPIS.c ****         }
 805:.\Generated_Source\PSoC5/SPIS.c ****         else if(SPIS_txBufferRead < SPIS_txBufferWrite)
 753              		.loc 1 805 0
 754 0012 1078     		ldrb	r0, [r2]	@ zero_extendqisi2
 755 0014 1978     		ldrb	r1, [r3]	@ zero_extendqisi2
 756 0016 8842     		cmp	r0, r1
 806:.\Generated_Source\PSoC5/SPIS.c ****         {
 807:.\Generated_Source\PSoC5/SPIS.c ****             size = (SPIS_txBufferWrite - SPIS_txBufferRead);
 808:.\Generated_Source\PSoC5/SPIS.c ****         }
 809:.\Generated_Source\PSoC5/SPIS.c ****         else
 810:.\Generated_Source\PSoC5/SPIS.c ****         {
 811:.\Generated_Source\PSoC5/SPIS.c ****             size = (SPIS_TX_BUFFER_SIZE - SPIS_txBufferRead) + SPIS_txBufferWrite;
 757              		.loc 1 811 0
 758 0018 2BBF     		itete	cs
 759 001a 1878     		ldrbcs	r0, [r3]	@ zero_extendqisi2
 807:.\Generated_Source\PSoC5/SPIS.c ****         }
 760              		.loc 1 807 0
 761 001c 1B78     		ldrbcc	r3, [r3]	@ zero_extendqisi2
 762              		.loc 1 811 0
ARM GAS  C:\Users\jthem\AppData\Local\Temp\ccz7Pj1W.s 			page 29


 763 001e 1378     		ldrbcs	r3, [r2]	@ zero_extendqisi2
 807:.\Generated_Source\PSoC5/SPIS.c ****         }
 764              		.loc 1 807 0
 765 0020 1078     		ldrbcc	r0, [r2]	@ zero_extendqisi2
 766 0022 2ABF     		itet	cs
 767 0024 0830     		addcs	r0, r0, #8
 768 0026 181A     		subcc	r0, r3, r0
 769              		.loc 1 811 0
 770 0028 C01A     		subcs	r0, r0, r3
 771 002a C0B2     		uxtb	r0, r0
 772              	.LVL26:
 773 002c 00E0     		b	.L65
 774              	.LVL27:
 775              	.L67:
 803:.\Generated_Source\PSoC5/SPIS.c ****         }
 776              		.loc 1 803 0
 777 002e 0020     		movs	r0, #0
 778              	.L65:
 779              	.LVL28:
 780              	.LBB60:
 781              	.LBB61:
 256:.\Generated_Source\PSoC5/SPIS.c ****     #endif /* SPIS_INTERNAL_TX_INT_ENABLED */
 782              		.loc 1 256 0
 783 0030 044B     		ldr	r3, .L69+12
 784 0032 0822     		movs	r2, #8
 785 0034 1A60     		str	r2, [r3]
 786              	.LBE61:
 787              	.LBE60:
 812:.\Generated_Source\PSoC5/SPIS.c ****         }
 813:.\Generated_Source\PSoC5/SPIS.c **** 
 814:.\Generated_Source\PSoC5/SPIS.c ****         /* Enable Interrupt. */
 815:.\Generated_Source\PSoC5/SPIS.c ****         SPIS_EnableTxInt();
 816:.\Generated_Source\PSoC5/SPIS.c **** 
 817:.\Generated_Source\PSoC5/SPIS.c ****     #else /* !SPIS_TX_SOFTWARE_BUF_ENABLED */
 818:.\Generated_Source\PSoC5/SPIS.c **** 
 819:.\Generated_Source\PSoC5/SPIS.c ****         size = SPIS_TX_STATUS_REG;
 820:.\Generated_Source\PSoC5/SPIS.c **** 
 821:.\Generated_Source\PSoC5/SPIS.c ****         /* Is the fifo is full. */
 822:.\Generated_Source\PSoC5/SPIS.c ****         if((size & SPIS_STS_TX_FIFO_EMPTY) != 0u)
 823:.\Generated_Source\PSoC5/SPIS.c ****         {
 824:.\Generated_Source\PSoC5/SPIS.c ****             size = 0u;
 825:.\Generated_Source\PSoC5/SPIS.c ****         }
 826:.\Generated_Source\PSoC5/SPIS.c ****         else if((size & SPIS_STS_TX_FIFO_NOT_FULL) != 0u)
 827:.\Generated_Source\PSoC5/SPIS.c ****         {
 828:.\Generated_Source\PSoC5/SPIS.c ****             size = 1u;
 829:.\Generated_Source\PSoC5/SPIS.c ****         }
 830:.\Generated_Source\PSoC5/SPIS.c ****         else
 831:.\Generated_Source\PSoC5/SPIS.c ****         {
 832:.\Generated_Source\PSoC5/SPIS.c ****             size = 4u;
 833:.\Generated_Source\PSoC5/SPIS.c ****         }
 834:.\Generated_Source\PSoC5/SPIS.c **** 
 835:.\Generated_Source\PSoC5/SPIS.c ****     #endif /* SPIS_TX_SOFTWARE_BUF_ENABLED */
 836:.\Generated_Source\PSoC5/SPIS.c **** 
 837:.\Generated_Source\PSoC5/SPIS.c ****     return (size);
 838:.\Generated_Source\PSoC5/SPIS.c **** }
 788              		.loc 1 838 0
 789 0036 7047     		bx	lr
ARM GAS  C:\Users\jthem\AppData\Local\Temp\ccz7Pj1W.s 			page 30


 790              	.L70:
 791              		.align	2
 792              	.L69:
 793 0038 80E100E0 		.word	-536813184
 794 003c 00000000 		.word	SPIS_txBufferRead
 795 0040 00000000 		.word	SPIS_txBufferWrite
 796 0044 00E100E0 		.word	-536813312
 797              		.cfi_endproc
 798              	.LFE16:
 799              		.size	SPIS_GetTxBufferSize, .-SPIS_GetTxBufferSize
 800              		.section	.text.SPIS_ClearRxBuffer,"ax",%progbits
 801              		.align	1
 802              		.global	SPIS_ClearRxBuffer
 803              		.thumb
 804              		.thumb_func
 805              		.type	SPIS_ClearRxBuffer, %function
 806              	SPIS_ClearRxBuffer:
 807              	.LFB17:
 839:.\Generated_Source\PSoC5/SPIS.c **** 
 840:.\Generated_Source\PSoC5/SPIS.c **** 
 841:.\Generated_Source\PSoC5/SPIS.c **** /*******************************************************************************
 842:.\Generated_Source\PSoC5/SPIS.c **** * Function Name: SPIS_ClearRxBuffer
 843:.\Generated_Source\PSoC5/SPIS.c **** ********************************************************************************
 844:.\Generated_Source\PSoC5/SPIS.c **** *
 845:.\Generated_Source\PSoC5/SPIS.c **** * Summary:
 846:.\Generated_Source\PSoC5/SPIS.c **** *  Clear the RX RAM buffer by setting the read and write pointers both to zero.
 847:.\Generated_Source\PSoC5/SPIS.c **** *
 848:.\Generated_Source\PSoC5/SPIS.c **** * Parameters:
 849:.\Generated_Source\PSoC5/SPIS.c **** *  None.
 850:.\Generated_Source\PSoC5/SPIS.c **** *
 851:.\Generated_Source\PSoC5/SPIS.c **** * Return:
 852:.\Generated_Source\PSoC5/SPIS.c **** *  None.
 853:.\Generated_Source\PSoC5/SPIS.c **** *
 854:.\Generated_Source\PSoC5/SPIS.c **** * Global variables:
 855:.\Generated_Source\PSoC5/SPIS.c **** *  SPIS_rxBufferWrite - used for the account of the bytes which
 856:.\Generated_Source\PSoC5/SPIS.c **** *  have been written down in the RX software buffer, modified every function
 857:.\Generated_Source\PSoC5/SPIS.c **** *  call - resets to zero.
 858:.\Generated_Source\PSoC5/SPIS.c **** *  SPIS_rxBufferRead - used for the account of the bytes which
 859:.\Generated_Source\PSoC5/SPIS.c **** *  have been read from the RX software buffer, modified every function call -
 860:.\Generated_Source\PSoC5/SPIS.c **** *  resets to zero.
 861:.\Generated_Source\PSoC5/SPIS.c **** *
 862:.\Generated_Source\PSoC5/SPIS.c **** * Theory:
 863:.\Generated_Source\PSoC5/SPIS.c **** *  Setting the pointers to zero makes the system believe there is no data to
 864:.\Generated_Source\PSoC5/SPIS.c **** *  read and writing will resume at address 0 overwriting any data that may have
 865:.\Generated_Source\PSoC5/SPIS.c **** *  remained in the RAM.
 866:.\Generated_Source\PSoC5/SPIS.c **** *
 867:.\Generated_Source\PSoC5/SPIS.c **** * Side Effects:
 868:.\Generated_Source\PSoC5/SPIS.c **** *  Any received data not read from the RAM buffer will be lost when overwritten.
 869:.\Generated_Source\PSoC5/SPIS.c **** *
 870:.\Generated_Source\PSoC5/SPIS.c **** * Reentrant:
 871:.\Generated_Source\PSoC5/SPIS.c **** *  No.
 872:.\Generated_Source\PSoC5/SPIS.c **** *
 873:.\Generated_Source\PSoC5/SPIS.c **** *******************************************************************************/
 874:.\Generated_Source\PSoC5/SPIS.c **** void SPIS_ClearRxBuffer(void) 
 875:.\Generated_Source\PSoC5/SPIS.c **** {
 808              		.loc 1 875 0
 809              		.cfi_startproc
ARM GAS  C:\Users\jthem\AppData\Local\Temp\ccz7Pj1W.s 			page 31


 810              		@ args = 0, pretend = 0, frame = 0
 811              		@ frame_needed = 0, uses_anonymous_args = 0
 812              		@ link register save eliminated.
 813              	.L72:
 876:.\Generated_Source\PSoC5/SPIS.c ****     /* Clear Hardware RX FIFO */
 877:.\Generated_Source\PSoC5/SPIS.c ****     while((SPIS_RX_STATUS_REG & SPIS_STS_RX_FIFO_NOT_EMPTY) != 0u)
 814              		.loc 1 877 0
 815 0000 0A4B     		ldr	r3, .L75
 816 0002 1B78     		ldrb	r3, [r3]	@ zero_extendqisi2
 817 0004 03F00803 		and	r3, r3, #8
 818 0008 03F0FF02 		and	r2, r3, #255
 819 000c 13B1     		cbz	r3, .L74
 878:.\Generated_Source\PSoC5/SPIS.c ****     {
 879:.\Generated_Source\PSoC5/SPIS.c ****         CY_GET_REG8(SPIS_RXDATA_PTR);
 820              		.loc 1 879 0
 821 000e 084B     		ldr	r3, .L75+4
 822 0010 1B78     		ldrb	r3, [r3]	@ zero_extendqisi2
 823 0012 F5E7     		b	.L72
 824              	.L74:
 825              	.LBB62:
 826              	.LBB63:
 331:.\Generated_Source\PSoC5/SPIS.c ****     #endif /* SPIS_INTERNAL_RX_INT_ENABLED */
 827              		.loc 1 331 0
 828 0014 0749     		ldr	r1, .L75+8
 829 0016 0423     		movs	r3, #4
 830 0018 0B60     		str	r3, [r1]
 831              	.LBE63:
 832              	.LBE62:
 880:.\Generated_Source\PSoC5/SPIS.c ****     }
 881:.\Generated_Source\PSoC5/SPIS.c **** 
 882:.\Generated_Source\PSoC5/SPIS.c ****     #if(SPIS_RX_SOFTWARE_BUF_ENABLED)
 883:.\Generated_Source\PSoC5/SPIS.c **** 
 884:.\Generated_Source\PSoC5/SPIS.c ****         /* Disable interrupt to protect variables that could change on interrupt. */
 885:.\Generated_Source\PSoC5/SPIS.c ****         SPIS_DisableRxInt();
 886:.\Generated_Source\PSoC5/SPIS.c **** 
 887:.\Generated_Source\PSoC5/SPIS.c ****         SPIS_rxBufferRead  = 0u;
 833              		.loc 1 887 0
 834 001a 0749     		ldr	r1, .L75+12
 835 001c 0A70     		strb	r2, [r1]
 888:.\Generated_Source\PSoC5/SPIS.c ****         SPIS_rxBufferWrite = 0u;
 836              		.loc 1 888 0
 837 001e 0749     		ldr	r1, .L75+16
 838 0020 0A70     		strb	r2, [r1]
 889:.\Generated_Source\PSoC5/SPIS.c **** 		SPIS_rxBufferFull  = 0u;
 839              		.loc 1 889 0
 840 0022 0749     		ldr	r1, .L75+20
 841 0024 0A70     		strb	r2, [r1]
 842              	.LBB64:
 843              	.LBB65:
 281:.\Generated_Source\PSoC5/SPIS.c ****     #endif /* SPIS_INTERNAL_RX_INT_ENABLED */
 844              		.loc 1 281 0
 845 0026 074A     		ldr	r2, .L75+24
 846 0028 1360     		str	r3, [r2]
 847 002a 7047     		bx	lr
 848              	.L76:
 849              		.align	2
 850              	.L75:
ARM GAS  C:\Users\jthem\AppData\Local\Temp\ccz7Pj1W.s 			page 32


 851 002c 65640040 		.word	1073767525
 852 0030 54640040 		.word	1073767508
 853 0034 80E100E0 		.word	-536813184
 854 0038 00000000 		.word	SPIS_rxBufferRead
 855 003c 00000000 		.word	SPIS_rxBufferWrite
 856 0040 00000000 		.word	SPIS_rxBufferFull
 857 0044 00E100E0 		.word	-536813312
 858              	.LBE65:
 859              	.LBE64:
 860              		.cfi_endproc
 861              	.LFE17:
 862              		.size	SPIS_ClearRxBuffer, .-SPIS_ClearRxBuffer
 863              		.section	.text.SPIS_ClearTxBuffer,"ax",%progbits
 864              		.align	1
 865              		.global	SPIS_ClearTxBuffer
 866              		.thumb
 867              		.thumb_func
 868              		.type	SPIS_ClearTxBuffer, %function
 869              	SPIS_ClearTxBuffer:
 870              	.LFB18:
 890:.\Generated_Source\PSoC5/SPIS.c ****         /* Enable interrupt. */
 891:.\Generated_Source\PSoC5/SPIS.c ****         SPIS_EnableRxInt();
 892:.\Generated_Source\PSoC5/SPIS.c **** 
 893:.\Generated_Source\PSoC5/SPIS.c ****     #endif /* SPIS_RX_SOFTWARE_BUF_ENABLED */
 894:.\Generated_Source\PSoC5/SPIS.c **** }
 895:.\Generated_Source\PSoC5/SPIS.c **** 
 896:.\Generated_Source\PSoC5/SPIS.c **** 
 897:.\Generated_Source\PSoC5/SPIS.c **** /*******************************************************************************
 898:.\Generated_Source\PSoC5/SPIS.c **** * Function Name: SPIS_ClearTxBuffer
 899:.\Generated_Source\PSoC5/SPIS.c **** ********************************************************************************
 900:.\Generated_Source\PSoC5/SPIS.c **** *
 901:.\Generated_Source\PSoC5/SPIS.c **** * Summary:
 902:.\Generated_Source\PSoC5/SPIS.c **** *  Clear the TX RAM buffer by setting the read and write pointers both to zero.
 903:.\Generated_Source\PSoC5/SPIS.c **** *
 904:.\Generated_Source\PSoC5/SPIS.c **** * Parameters:
 905:.\Generated_Source\PSoC5/SPIS.c **** *  None.
 906:.\Generated_Source\PSoC5/SPIS.c **** *
 907:.\Generated_Source\PSoC5/SPIS.c **** * Return:
 908:.\Generated_Source\PSoC5/SPIS.c **** *  None.
 909:.\Generated_Source\PSoC5/SPIS.c **** *
 910:.\Generated_Source\PSoC5/SPIS.c **** * Global variables:
 911:.\Generated_Source\PSoC5/SPIS.c **** *  SPIS_txBufferWrite - used for the account of the bytes which
 912:.\Generated_Source\PSoC5/SPIS.c **** *  have been written down in the TX software buffer, modified every function
 913:.\Generated_Source\PSoC5/SPIS.c **** *  call - resets to zero.
 914:.\Generated_Source\PSoC5/SPIS.c **** *  SPIS_txBufferRead - used for the account of the bytes which
 915:.\Generated_Source\PSoC5/SPIS.c **** *  have been read from the TX software buffer, modified every function call -
 916:.\Generated_Source\PSoC5/SPIS.c **** *  resets to zero.
 917:.\Generated_Source\PSoC5/SPIS.c **** *
 918:.\Generated_Source\PSoC5/SPIS.c **** * Theory:
 919:.\Generated_Source\PSoC5/SPIS.c **** *  Setting the pointers to zero makes the system believe there is no data to
 920:.\Generated_Source\PSoC5/SPIS.c **** *  read and writing will resume at address 0 overwriting any data that may have
 921:.\Generated_Source\PSoC5/SPIS.c **** *  remained in the RAM.
 922:.\Generated_Source\PSoC5/SPIS.c **** *
 923:.\Generated_Source\PSoC5/SPIS.c **** * Side Effects:
 924:.\Generated_Source\PSoC5/SPIS.c **** *  Any data not yet transmitted from the RAM buffer will be lost when
 925:.\Generated_Source\PSoC5/SPIS.c **** *  overwritten.
 926:.\Generated_Source\PSoC5/SPIS.c **** *
ARM GAS  C:\Users\jthem\AppData\Local\Temp\ccz7Pj1W.s 			page 33


 927:.\Generated_Source\PSoC5/SPIS.c **** * Reentrant:
 928:.\Generated_Source\PSoC5/SPIS.c **** *  No.
 929:.\Generated_Source\PSoC5/SPIS.c **** *
 930:.\Generated_Source\PSoC5/SPIS.c **** *******************************************************************************/
 931:.\Generated_Source\PSoC5/SPIS.c **** void SPIS_ClearTxBuffer(void) 
 932:.\Generated_Source\PSoC5/SPIS.c **** {
 871              		.loc 1 932 0
 872              		.cfi_startproc
 873              		@ args = 0, pretend = 0, frame = 0
 874              		@ frame_needed = 0, uses_anonymous_args = 0
 875 0000 08B5     		push	{r3, lr}
 876              		.cfi_def_cfa_offset 8
 877              		.cfi_offset 3, -8
 878              		.cfi_offset 14, -4
 933:.\Generated_Source\PSoC5/SPIS.c ****     uint8 enableInterrupts;
 934:.\Generated_Source\PSoC5/SPIS.c **** 
 935:.\Generated_Source\PSoC5/SPIS.c ****     /* Clear Hardware TX FIFO */
 936:.\Generated_Source\PSoC5/SPIS.c ****     enableInterrupts = CyEnterCriticalSection();
 879              		.loc 1 936 0
 880 0002 FFF7FEFF 		bl	CyEnterCriticalSection
 881              	.LVL29:
 937:.\Generated_Source\PSoC5/SPIS.c **** 
 938:.\Generated_Source\PSoC5/SPIS.c ****     #if(SPIS_DATA_WIDTH <= 8u)
 939:.\Generated_Source\PSoC5/SPIS.c **** 
 940:.\Generated_Source\PSoC5/SPIS.c ****         /* Clear TX FIFO */
 941:.\Generated_Source\PSoC5/SPIS.c ****         SPIS_TX_AUX_CONTROL_DP0_REG |= (uint8)SPIS_FIFO_CLR;
 882              		.loc 1 941 0
 883 0006 0E4B     		ldr	r3, .L78
 884 0008 1A78     		ldrb	r2, [r3]	@ zero_extendqisi2
 885 000a 42F00302 		orr	r2, r2, #3
 886 000e 1A70     		strb	r2, [r3]
 942:.\Generated_Source\PSoC5/SPIS.c ****         SPIS_TX_AUX_CONTROL_DP0_REG &= (uint8)~SPIS_FIFO_CLR;
 887              		.loc 1 942 0
 888 0010 1A78     		ldrb	r2, [r3]	@ zero_extendqisi2
 889 0012 02F0FC02 		and	r2, r2, #252
 890 0016 1A70     		strb	r2, [r3]
 943:.\Generated_Source\PSoC5/SPIS.c **** 
 944:.\Generated_Source\PSoC5/SPIS.c ****     #else
 945:.\Generated_Source\PSoC5/SPIS.c **** 
 946:.\Generated_Source\PSoC5/SPIS.c ****         /* Clear TX FIFO */
 947:.\Generated_Source\PSoC5/SPIS.c ****         SPIS_TX_AUX_CONTROL_DP0_REG |= (uint8)SPIS_FIFO_CLR;
 948:.\Generated_Source\PSoC5/SPIS.c ****         SPIS_TX_AUX_CONTROL_DP0_REG &= (uint8)~SPIS_FIFO_CLR;
 949:.\Generated_Source\PSoC5/SPIS.c ****         SPIS_TX_AUX_CONTROL_DP1_REG |= (uint8)SPIS_FIFO_CLR;
 950:.\Generated_Source\PSoC5/SPIS.c ****         SPIS_TX_AUX_CONTROL_DP1_REG &= (uint8)~SPIS_FIFO_CLR;
 951:.\Generated_Source\PSoC5/SPIS.c **** 
 952:.\Generated_Source\PSoC5/SPIS.c ****     #endif /* SPIS_DATA_WIDTH > 8u */
 953:.\Generated_Source\PSoC5/SPIS.c **** 
 954:.\Generated_Source\PSoC5/SPIS.c ****     CyExitCriticalSection(enableInterrupts);
 891              		.loc 1 954 0
 892 0018 FFF7FEFF 		bl	CyExitCriticalSection
 893              	.LVL30:
 894              	.LBB66:
 895              	.LBB67:
 306:.\Generated_Source\PSoC5/SPIS.c ****     #endif /* SPIS_INTERNAL_TX_INT_ENABLED */
 896              		.loc 1 306 0
 897 001c 094B     		ldr	r3, .L78+4
 898 001e 0822     		movs	r2, #8
ARM GAS  C:\Users\jthem\AppData\Local\Temp\ccz7Pj1W.s 			page 34


 899              	.LBE67:
 900              	.LBE66:
 955:.\Generated_Source\PSoC5/SPIS.c **** 
 956:.\Generated_Source\PSoC5/SPIS.c ****     #if(SPIS_TX_SOFTWARE_BUF_ENABLED)
 957:.\Generated_Source\PSoC5/SPIS.c **** 
 958:.\Generated_Source\PSoC5/SPIS.c ****         /* Disable Interrupt to protect variables that could change on interrupt. */
 959:.\Generated_Source\PSoC5/SPIS.c ****         SPIS_DisableTxInt();
 960:.\Generated_Source\PSoC5/SPIS.c **** 
 961:.\Generated_Source\PSoC5/SPIS.c ****         SPIS_txBufferRead  = 0u;
 901              		.loc 1 961 0
 902 0020 0949     		ldr	r1, .L78+8
 903              	.LBB69:
 904              	.LBB68:
 306:.\Generated_Source\PSoC5/SPIS.c ****     #endif /* SPIS_INTERNAL_TX_INT_ENABLED */
 905              		.loc 1 306 0
 906 0022 1A60     		str	r2, [r3]
 907              	.LBE68:
 908              	.LBE69:
 909              		.loc 1 961 0
 910 0024 0023     		movs	r3, #0
 911 0026 0B70     		strb	r3, [r1]
 962:.\Generated_Source\PSoC5/SPIS.c ****         SPIS_txBufferWrite = 0u;
 912              		.loc 1 962 0
 913 0028 0849     		ldr	r1, .L78+12
 914 002a 0B70     		strb	r3, [r1]
 963:.\Generated_Source\PSoC5/SPIS.c **** 		SPIS_txBufferFull  = 0u;
 915              		.loc 1 963 0
 916 002c 0849     		ldr	r1, .L78+16
 917 002e 0B70     		strb	r3, [r1]
 964:.\Generated_Source\PSoC5/SPIS.c **** 		
 965:.\Generated_Source\PSoC5/SPIS.c ****         /* If Buffer is empty then disable TX FIFO status interrupt */
 966:.\Generated_Source\PSoC5/SPIS.c ****         SPIS_TX_STATUS_MASK_REG &= (uint8)~SPIS_STS_TX_FIFO_NOT_FULL;
 918              		.loc 1 966 0
 919 0030 0849     		ldr	r1, .L78+20
 920 0032 0B78     		ldrb	r3, [r1]	@ zero_extendqisi2
 921 0034 03F0FD03 		and	r3, r3, #253
 922 0038 0B70     		strb	r3, [r1]
 923              	.LBB70:
 924              	.LBB71:
 256:.\Generated_Source\PSoC5/SPIS.c ****     #endif /* SPIS_INTERNAL_TX_INT_ENABLED */
 925              		.loc 1 256 0
 926 003a 074B     		ldr	r3, .L78+24
 927 003c 1A60     		str	r2, [r3]
 928 003e 08BD     		pop	{r3, pc}
 929              	.L79:
 930              		.align	2
 931              	.L78:
 932 0040 94640040 		.word	1073767572
 933 0044 80E100E0 		.word	-536813184
 934 0048 00000000 		.word	SPIS_txBufferRead
 935 004c 00000000 		.word	SPIS_txBufferWrite
 936 0050 00000000 		.word	SPIS_txBufferFull
 937 0054 86640040 		.word	1073767558
 938 0058 00E100E0 		.word	-536813312
 939              	.LBE71:
 940              	.LBE70:
 941              		.cfi_endproc
ARM GAS  C:\Users\jthem\AppData\Local\Temp\ccz7Pj1W.s 			page 35


 942              	.LFE18:
 943              		.size	SPIS_ClearTxBuffer, .-SPIS_ClearTxBuffer
 944              		.section	.text.SPIS_PutArray,"ax",%progbits
 945              		.align	1
 946              		.global	SPIS_PutArray
 947              		.thumb
 948              		.thumb_func
 949              		.type	SPIS_PutArray, %function
 950              	SPIS_PutArray:
 951              	.LFB19:
 967:.\Generated_Source\PSoC5/SPIS.c **** 
 968:.\Generated_Source\PSoC5/SPIS.c ****         /* Enable Interrupt. */
 969:.\Generated_Source\PSoC5/SPIS.c ****         SPIS_EnableTxInt();
 970:.\Generated_Source\PSoC5/SPIS.c **** 
 971:.\Generated_Source\PSoC5/SPIS.c ****     #endif /* SPIS_TX_SOFTWARE_BUF_ENABLED */
 972:.\Generated_Source\PSoC5/SPIS.c **** }
 973:.\Generated_Source\PSoC5/SPIS.c **** 
 974:.\Generated_Source\PSoC5/SPIS.c **** 
 975:.\Generated_Source\PSoC5/SPIS.c **** #if (SPIS_BIDIRECTIONAL_MODE != 0u)
 976:.\Generated_Source\PSoC5/SPIS.c **** 
 977:.\Generated_Source\PSoC5/SPIS.c ****     /*******************************************************************************
 978:.\Generated_Source\PSoC5/SPIS.c ****     * Function Name: SPIS_TxEnable
 979:.\Generated_Source\PSoC5/SPIS.c ****     ********************************************************************************
 980:.\Generated_Source\PSoC5/SPIS.c ****     *
 981:.\Generated_Source\PSoC5/SPIS.c ****     * Summary:
 982:.\Generated_Source\PSoC5/SPIS.c ****     *  If the SPI Slave is configured to use a single bi-directional pin then this
 983:.\Generated_Source\PSoC5/SPIS.c ****     *  will set the bi-directional pin to transmit.
 984:.\Generated_Source\PSoC5/SPIS.c ****     *
 985:.\Generated_Source\PSoC5/SPIS.c ****     * Parameters:
 986:.\Generated_Source\PSoC5/SPIS.c ****     *  None.
 987:.\Generated_Source\PSoC5/SPIS.c ****     *
 988:.\Generated_Source\PSoC5/SPIS.c ****     * Return:
 989:.\Generated_Source\PSoC5/SPIS.c ****     *  None.
 990:.\Generated_Source\PSoC5/SPIS.c ****     *
 991:.\Generated_Source\PSoC5/SPIS.c ****     *******************************************************************************/
 992:.\Generated_Source\PSoC5/SPIS.c ****     void SPIS_TxEnable(void) 
 993:.\Generated_Source\PSoC5/SPIS.c ****     {
 994:.\Generated_Source\PSoC5/SPIS.c ****             SPIS_CONTROL_REG |= SPIS_CTRL_TX_SIGNAL_EN;
 995:.\Generated_Source\PSoC5/SPIS.c ****     }
 996:.\Generated_Source\PSoC5/SPIS.c **** 
 997:.\Generated_Source\PSoC5/SPIS.c **** 
 998:.\Generated_Source\PSoC5/SPIS.c ****     /*******************************************************************************
 999:.\Generated_Source\PSoC5/SPIS.c ****     * Function Name: SPIS_TxDisable
1000:.\Generated_Source\PSoC5/SPIS.c ****     ********************************************************************************
1001:.\Generated_Source\PSoC5/SPIS.c ****     *
1002:.\Generated_Source\PSoC5/SPIS.c ****     * Summary:
1003:.\Generated_Source\PSoC5/SPIS.c ****     *  If the SPI Slave is configured to use a single bi-directional pin then this
1004:.\Generated_Source\PSoC5/SPIS.c ****     *  will set the bi-directional pin to receive.
1005:.\Generated_Source\PSoC5/SPIS.c ****     *
1006:.\Generated_Source\PSoC5/SPIS.c ****     * Parameters:
1007:.\Generated_Source\PSoC5/SPIS.c ****     *  None.
1008:.\Generated_Source\PSoC5/SPIS.c ****     *
1009:.\Generated_Source\PSoC5/SPIS.c ****     * Return:
1010:.\Generated_Source\PSoC5/SPIS.c ****     *  None.
1011:.\Generated_Source\PSoC5/SPIS.c ****     *
1012:.\Generated_Source\PSoC5/SPIS.c ****     *******************************************************************************/
1013:.\Generated_Source\PSoC5/SPIS.c ****     void SPIS_TxDisable(void) 
ARM GAS  C:\Users\jthem\AppData\Local\Temp\ccz7Pj1W.s 			page 36


1014:.\Generated_Source\PSoC5/SPIS.c ****     {
1015:.\Generated_Source\PSoC5/SPIS.c ****             SPIS_CONTROL_REG &= (uint8)~SPIS_CTRL_TX_SIGNAL_EN;
1016:.\Generated_Source\PSoC5/SPIS.c ****     }
1017:.\Generated_Source\PSoC5/SPIS.c **** 
1018:.\Generated_Source\PSoC5/SPIS.c **** #endif /* SPIS_BIDIRECTIONAL_MODE != 0u */
1019:.\Generated_Source\PSoC5/SPIS.c **** 
1020:.\Generated_Source\PSoC5/SPIS.c **** 
1021:.\Generated_Source\PSoC5/SPIS.c **** /*******************************************************************************
1022:.\Generated_Source\PSoC5/SPIS.c **** * Function Name: SPIS_PutArray
1023:.\Generated_Source\PSoC5/SPIS.c **** ********************************************************************************
1024:.\Generated_Source\PSoC5/SPIS.c **** *
1025:.\Generated_Source\PSoC5/SPIS.c **** * Summary:
1026:.\Generated_Source\PSoC5/SPIS.c **** *  Write available data from RAM/ROM to the TX buffer while space is available
1027:.\Generated_Source\PSoC5/SPIS.c **** *  in the TX buffer. Keep trying until all data is passed to the TX buffer. If
1028:.\Generated_Source\PSoC5/SPIS.c **** *  used Mode 00 or 01 before PutArray() function should be called
1029:.\Generated_Source\PSoC5/SPIS.c **** *  WriteTxDataZero() function.
1030:.\Generated_Source\PSoC5/SPIS.c **** *
1031:.\Generated_Source\PSoC5/SPIS.c **** * Parameters:
1032:.\Generated_Source\PSoC5/SPIS.c **** *  *buffer: Pointer to the location in RAM containing the data to send
1033:.\Generated_Source\PSoC5/SPIS.c **** *  byteCount: The number of bytes to move to the transmit buffer.
1034:.\Generated_Source\PSoC5/SPIS.c **** *
1035:.\Generated_Source\PSoC5/SPIS.c **** * Return:
1036:.\Generated_Source\PSoC5/SPIS.c **** *  None.
1037:.\Generated_Source\PSoC5/SPIS.c **** *
1038:.\Generated_Source\PSoC5/SPIS.c **** * Side Effects:
1039:.\Generated_Source\PSoC5/SPIS.c **** *  Will stay in this routine until all data has been sent.  May get locked in
1040:.\Generated_Source\PSoC5/SPIS.c **** *  this loop if data is not being initiated by the master if there is not
1041:.\Generated_Source\PSoC5/SPIS.c **** *  enough room in the TX FIFO.
1042:.\Generated_Source\PSoC5/SPIS.c **** *
1043:.\Generated_Source\PSoC5/SPIS.c **** * Reentrant:
1044:.\Generated_Source\PSoC5/SPIS.c **** *  No.
1045:.\Generated_Source\PSoC5/SPIS.c **** *
1046:.\Generated_Source\PSoC5/SPIS.c **** *******************************************************************************/
1047:.\Generated_Source\PSoC5/SPIS.c **** void SPIS_PutArray(const uint8 buffer[], uint8 byteCount)
1048:.\Generated_Source\PSoC5/SPIS.c ****                                                                     
1049:.\Generated_Source\PSoC5/SPIS.c **** {
 952              		.loc 1 1049 0
 953              		.cfi_startproc
 954              		@ args = 0, pretend = 0, frame = 0
 955              		@ frame_needed = 0, uses_anonymous_args = 0
 956              	.LVL31:
 957 0000 38B5     		push	{r3, r4, r5, lr}
 958              		.cfi_def_cfa_offset 16
 959              		.cfi_offset 3, -16
 960              		.cfi_offset 4, -12
 961              		.cfi_offset 5, -8
 962              		.cfi_offset 14, -4
 963              		.loc 1 1049 0
 964 0002 0C46     		mov	r4, r1
 965 0004 451E     		subs	r5, r0, #1
 966              	.LVL32:
 967              	.L81:
1050:.\Generated_Source\PSoC5/SPIS.c ****     uint8 bufIndex;
1051:.\Generated_Source\PSoC5/SPIS.c ****     bufIndex = 0u;
1052:.\Generated_Source\PSoC5/SPIS.c **** 
1053:.\Generated_Source\PSoC5/SPIS.c ****     while(byteCount > 0u)
 968              		.loc 1 1053 0
ARM GAS  C:\Users\jthem\AppData\Local\Temp\ccz7Pj1W.s 			page 37


 969 0006 34B1     		cbz	r4, .L83
1054:.\Generated_Source\PSoC5/SPIS.c ****     {
1055:.\Generated_Source\PSoC5/SPIS.c ****         SPIS_WriteTxData(buffer[bufIndex]);
 970              		.loc 1 1055 0
 971 0008 15F8010F 		ldrb	r0, [r5, #1]!	@ zero_extendqisi2
 972              	.LVL33:
1056:.\Generated_Source\PSoC5/SPIS.c ****         bufIndex++;
1057:.\Generated_Source\PSoC5/SPIS.c ****         byteCount--;
 973              		.loc 1 1057 0
 974 000c 013C     		subs	r4, r4, #1
 975              	.LVL34:
1055:.\Generated_Source\PSoC5/SPIS.c ****         bufIndex++;
 976              		.loc 1 1055 0
 977 000e FFF7FEFF 		bl	SPIS_WriteTxData
 978              	.LVL35:
 979              		.loc 1 1057 0
 980 0012 E4B2     		uxtb	r4, r4
 981              	.LVL36:
 982 0014 F7E7     		b	.L81
 983              	.L83:
1058:.\Generated_Source\PSoC5/SPIS.c ****     }
1059:.\Generated_Source\PSoC5/SPIS.c **** }
 984              		.loc 1 1059 0
 985 0016 38BD     		pop	{r3, r4, r5, pc}
 986              		.cfi_endproc
 987              	.LFE19:
 988              		.size	SPIS_PutArray, .-SPIS_PutArray
 989              		.section	.text.SPIS_ClearFIFO,"ax",%progbits
 990              		.align	1
 991              		.global	SPIS_ClearFIFO
 992              		.thumb
 993              		.thumb_func
 994              		.type	SPIS_ClearFIFO, %function
 995              	SPIS_ClearFIFO:
 996              	.LFB20:
1060:.\Generated_Source\PSoC5/SPIS.c **** 
1061:.\Generated_Source\PSoC5/SPIS.c **** 
1062:.\Generated_Source\PSoC5/SPIS.c **** /*******************************************************************************
1063:.\Generated_Source\PSoC5/SPIS.c **** * Function Name: SPIS_ClearFIFO
1064:.\Generated_Source\PSoC5/SPIS.c **** ********************************************************************************
1065:.\Generated_Source\PSoC5/SPIS.c **** *
1066:.\Generated_Source\PSoC5/SPIS.c **** * Summary:
1067:.\Generated_Source\PSoC5/SPIS.c **** *  Clear the RX and TX FIFO's of all data for a fresh start.
1068:.\Generated_Source\PSoC5/SPIS.c **** *
1069:.\Generated_Source\PSoC5/SPIS.c **** * Parameters:
1070:.\Generated_Source\PSoC5/SPIS.c **** *  None.
1071:.\Generated_Source\PSoC5/SPIS.c **** *
1072:.\Generated_Source\PSoC5/SPIS.c **** * Return:
1073:.\Generated_Source\PSoC5/SPIS.c **** *  None.
1074:.\Generated_Source\PSoC5/SPIS.c **** *
1075:.\Generated_Source\PSoC5/SPIS.c **** * Side Effects:
1076:.\Generated_Source\PSoC5/SPIS.c **** *  Clear status register of the component.
1077:.\Generated_Source\PSoC5/SPIS.c **** *
1078:.\Generated_Source\PSoC5/SPIS.c **** *******************************************************************************/
1079:.\Generated_Source\PSoC5/SPIS.c **** void SPIS_ClearFIFO(void) 
1080:.\Generated_Source\PSoC5/SPIS.c **** {
 997              		.loc 1 1080 0
ARM GAS  C:\Users\jthem\AppData\Local\Temp\ccz7Pj1W.s 			page 38


 998              		.cfi_startproc
 999              		@ args = 0, pretend = 0, frame = 0
 1000              		@ frame_needed = 0, uses_anonymous_args = 0
 1001 0000 08B5     		push	{r3, lr}
 1002              		.cfi_def_cfa_offset 8
 1003              		.cfi_offset 3, -8
 1004              		.cfi_offset 14, -4
 1005              	.L85:
1081:.\Generated_Source\PSoC5/SPIS.c ****     uint8 enableInterrupts;
1082:.\Generated_Source\PSoC5/SPIS.c **** 
1083:.\Generated_Source\PSoC5/SPIS.c ****     while((SPIS_RX_STATUS_REG & SPIS_STS_RX_FIFO_NOT_EMPTY) != 0u)
 1006              		.loc 1 1083 0
 1007 0002 0B4B     		ldr	r3, .L88
 1008 0004 1B78     		ldrb	r3, [r3]	@ zero_extendqisi2
 1009 0006 1B07     		lsls	r3, r3, #28
 1010 0008 02D5     		bpl	.L87
1084:.\Generated_Source\PSoC5/SPIS.c ****     {
1085:.\Generated_Source\PSoC5/SPIS.c ****         CY_GET_REG8(SPIS_RXDATA_PTR);
 1011              		.loc 1 1085 0
 1012 000a 0A4B     		ldr	r3, .L88+4
 1013 000c 1B78     		ldrb	r3, [r3]	@ zero_extendqisi2
 1014 000e F8E7     		b	.L85
 1015              	.L87:
1086:.\Generated_Source\PSoC5/SPIS.c ****     }
1087:.\Generated_Source\PSoC5/SPIS.c **** 
1088:.\Generated_Source\PSoC5/SPIS.c ****     enableInterrupts = CyEnterCriticalSection();
 1016              		.loc 1 1088 0
 1017 0010 FFF7FEFF 		bl	CyEnterCriticalSection
 1018              	.LVL37:
1089:.\Generated_Source\PSoC5/SPIS.c **** 
1090:.\Generated_Source\PSoC5/SPIS.c ****     #if(SPIS_DATA_WIDTH <= 8u)
1091:.\Generated_Source\PSoC5/SPIS.c **** 
1092:.\Generated_Source\PSoC5/SPIS.c ****         /* Clear TX FIFO */
1093:.\Generated_Source\PSoC5/SPIS.c ****         SPIS_TX_AUX_CONTROL_DP0_REG |= (uint8)SPIS_FIFO_CLR;
 1019              		.loc 1 1093 0
 1020 0014 084B     		ldr	r3, .L88+8
 1021 0016 1A78     		ldrb	r2, [r3]	@ zero_extendqisi2
 1022 0018 42F00302 		orr	r2, r2, #3
 1023 001c 1A70     		strb	r2, [r3]
1094:.\Generated_Source\PSoC5/SPIS.c ****         SPIS_TX_AUX_CONTROL_DP0_REG &= (uint8)~SPIS_FIFO_CLR;
 1024              		.loc 1 1094 0
 1025 001e 1A78     		ldrb	r2, [r3]	@ zero_extendqisi2
 1026 0020 02F0FC02 		and	r2, r2, #252
 1027 0024 1A70     		strb	r2, [r3]
1095:.\Generated_Source\PSoC5/SPIS.c **** 
1096:.\Generated_Source\PSoC5/SPIS.c ****     #else
1097:.\Generated_Source\PSoC5/SPIS.c **** 
1098:.\Generated_Source\PSoC5/SPIS.c ****         /* Clear TX FIFO */
1099:.\Generated_Source\PSoC5/SPIS.c ****         SPIS_TX_AUX_CONTROL_DP0_REG |= (uint8)SPIS_FIFO_CLR;
1100:.\Generated_Source\PSoC5/SPIS.c ****         SPIS_TX_AUX_CONTROL_DP0_REG &= (uint8)~SPIS_FIFO_CLR;
1101:.\Generated_Source\PSoC5/SPIS.c ****         SPIS_TX_AUX_CONTROL_DP1_REG |= (uint8)SPIS_FIFO_CLR;
1102:.\Generated_Source\PSoC5/SPIS.c ****         SPIS_TX_AUX_CONTROL_DP1_REG &= (uint8)~SPIS_FIFO_CLR;
1103:.\Generated_Source\PSoC5/SPIS.c **** 
1104:.\Generated_Source\PSoC5/SPIS.c ****     #endif /* SPIS_DATA_WIDTH <= 8u */
1105:.\Generated_Source\PSoC5/SPIS.c **** 
1106:.\Generated_Source\PSoC5/SPIS.c ****     CyExitCriticalSection(enableInterrupts);
1107:.\Generated_Source\PSoC5/SPIS.c **** }
ARM GAS  C:\Users\jthem\AppData\Local\Temp\ccz7Pj1W.s 			page 39


 1028              		.loc 1 1107 0
 1029 0026 BDE80840 		pop	{r3, lr}
 1030              		.cfi_restore 14
 1031              		.cfi_restore 3
 1032              		.cfi_def_cfa_offset 0
1106:.\Generated_Source\PSoC5/SPIS.c **** }
 1033              		.loc 1 1106 0
 1034 002a FFF7FEBF 		b	CyExitCriticalSection
 1035              	.LVL38:
 1036              	.L89:
 1037 002e 00BF     		.align	2
 1038              	.L88:
 1039 0030 65640040 		.word	1073767525
 1040 0034 54640040 		.word	1073767508
 1041 0038 94640040 		.word	1073767572
 1042              		.cfi_endproc
 1043              	.LFE20:
 1044              		.size	SPIS_ClearFIFO, .-SPIS_ClearFIFO
 1045              		.section	.text.SPIS_Init,"ax",%progbits
 1046              		.align	1
 1047              		.global	SPIS_Init
 1048              		.thumb
 1049              		.thumb_func
 1050              		.type	SPIS_Init, %function
 1051              	SPIS_Init:
 1052              	.LFB0:
  68:.\Generated_Source\PSoC5/SPIS.c ****     /*Initialize the Bit counter */
 1053              		.loc 1 68 0
 1054              		.cfi_startproc
 1055              		@ args = 0, pretend = 0, frame = 0
 1056              		@ frame_needed = 0, uses_anonymous_args = 0
 1057 0000 70B5     		push	{r4, r5, r6, lr}
 1058              		.cfi_def_cfa_offset 16
 1059              		.cfi_offset 4, -16
 1060              		.cfi_offset 5, -12
 1061              		.cfi_offset 6, -8
 1062              		.cfi_offset 14, -4
  70:.\Generated_Source\PSoC5/SPIS.c **** 
 1063              		.loc 1 70 0
 1064 0002 184B     		ldr	r3, .L91
  75:.\Generated_Source\PSoC5/SPIS.c **** 
 1065              		.loc 1 75 0
 1066 0004 184E     		ldr	r6, .L91+4
  70:.\Generated_Source\PSoC5/SPIS.c **** 
 1067              		.loc 1 70 0
 1068 0006 0724     		movs	r4, #7
  75:.\Generated_Source\PSoC5/SPIS.c **** 
 1069              		.loc 1 75 0
 1070 0008 0825     		movs	r5, #8
  70:.\Generated_Source\PSoC5/SPIS.c **** 
 1071              		.loc 1 70 0
 1072 000a 1C70     		strb	r4, [r3]
  78:.\Generated_Source\PSoC5/SPIS.c **** 
 1073              		.loc 1 78 0
 1074 000c 1749     		ldr	r1, .L91+8
  75:.\Generated_Source\PSoC5/SPIS.c **** 
 1075              		.loc 1 75 0
ARM GAS  C:\Users\jthem\AppData\Local\Temp\ccz7Pj1W.s 			page 40


 1076 000e 3560     		str	r5, [r6]
  78:.\Generated_Source\PSoC5/SPIS.c **** 
 1077              		.loc 1 78 0
 1078 0010 0320     		movs	r0, #3
 1079 0012 FFF7FEFF 		bl	CyIntSetVector
 1080              	.LVL39:
  81:.\Generated_Source\PSoC5/SPIS.c **** 
 1081              		.loc 1 81 0
 1082 0016 2146     		mov	r1, r4
 1083 0018 0320     		movs	r0, #3
 1084 001a FFF7FEFF 		bl	CyIntSetPriority
 1085              	.LVL40:
  87:.\Generated_Source\PSoC5/SPIS.c **** 
 1086              		.loc 1 87 0
 1087 001e 0423     		movs	r3, #4
 1088 0020 3360     		str	r3, [r6]
  90:.\Generated_Source\PSoC5/SPIS.c **** 
 1089              		.loc 1 90 0
 1090 0022 1349     		ldr	r1, .L91+12
 1091 0024 0220     		movs	r0, #2
 1092 0026 FFF7FEFF 		bl	CyIntSetVector
 1093              	.LVL41:
  93:.\Generated_Source\PSoC5/SPIS.c **** 
 1094              		.loc 1 93 0
 1095 002a 2146     		mov	r1, r4
 1096 002c 0220     		movs	r0, #2
 1097 002e FFF7FEFF 		bl	CyIntSetPriority
 1098              	.LVL42:
  98:.\Generated_Source\PSoC5/SPIS.c **** 
 1099              		.loc 1 98 0
 1100 0032 FFF7FEFF 		bl	SPIS_ClearFIFO
 1101              	.LVL43:
 101:.\Generated_Source\PSoC5/SPIS.c ****         SPIS_rxBufferRead = 0u;
 1102              		.loc 1 101 0
 1103 0036 0F4B     		ldr	r3, .L91+16
 1104 0038 0024     		movs	r4, #0
 1105 003a 1C70     		strb	r4, [r3]
 102:.\Generated_Source\PSoC5/SPIS.c ****         SPIS_rxBufferWrite = 0u;
 1106              		.loc 1 102 0
 1107 003c 0E4B     		ldr	r3, .L91+20
 1108 003e 1C70     		strb	r4, [r3]
 103:.\Generated_Source\PSoC5/SPIS.c ****     #endif /* SPIS_RX_SOFTWARE_BUF_ENABLED */
 1109              		.loc 1 103 0
 1110 0040 0E4B     		ldr	r3, .L91+24
 1111 0042 1C70     		strb	r4, [r3]
 107:.\Generated_Source\PSoC5/SPIS.c ****         SPIS_txBufferRead = 0u;
 1112              		.loc 1 107 0
 1113 0044 0E4B     		ldr	r3, .L91+28
 1114 0046 1C70     		strb	r4, [r3]
 108:.\Generated_Source\PSoC5/SPIS.c ****         SPIS_txBufferWrite = 0u;
 1115              		.loc 1 108 0
 1116 0048 0E4B     		ldr	r3, .L91+32
 1117 004a 1C70     		strb	r4, [r3]
 109:.\Generated_Source\PSoC5/SPIS.c ****     #endif /* SPIS_TX_SOFTWARE_BUF_ENABLED */
 1118              		.loc 1 109 0
 1119 004c 0E4B     		ldr	r3, .L91+36
 1120 004e 1C70     		strb	r4, [r3]
ARM GAS  C:\Users\jthem\AppData\Local\Temp\ccz7Pj1W.s 			page 41


 112:.\Generated_Source\PSoC5/SPIS.c ****     (void) SPIS_ReadRxStatus(); /* Clear any pending status bits */
 1121              		.loc 1 112 0
 1122 0050 FFF7FEFF 		bl	SPIS_ReadTxStatus
 1123              	.LVL44:
 113:.\Generated_Source\PSoC5/SPIS.c **** 
 1124              		.loc 1 113 0
 1125 0054 FFF7FEFF 		bl	SPIS_ReadRxStatus
 1126              	.LVL45:
 118:.\Generated_Source\PSoC5/SPIS.c ****                                                 (uint8)~SPIS_STS_TX_FIFO_NOT_FULL);
 1127              		.loc 1 118 0
 1128 0058 0C4B     		ldr	r3, .L91+40
 1129 005a 1C70     		strb	r4, [r3]
 124:.\Generated_Source\PSoC5/SPIS.c **** }
 1130              		.loc 1 124 0
 1131 005c 03F8015C 		strb	r5, [r3, #-1]
 1132 0060 70BD     		pop	{r4, r5, r6, pc}
 1133              	.L92:
 1134 0062 00BF     		.align	2
 1135              	.L91:
 1136 0064 87640040 		.word	1073767559
 1137 0068 80E100E0 		.word	-536813184
 1138 006c 00000000 		.word	SPIS_TX_ISR
 1139 0070 00000000 		.word	SPIS_RX_ISR
 1140 0074 00000000 		.word	SPIS_rxBufferFull
 1141 0078 00000000 		.word	SPIS_rxBufferRead
 1142 007c 00000000 		.word	SPIS_rxBufferWrite
 1143 0080 00000000 		.word	SPIS_txBufferFull
 1144 0084 00000000 		.word	SPIS_txBufferRead
 1145 0088 00000000 		.word	SPIS_txBufferWrite
 1146 008c 86640040 		.word	1073767558
 1147              		.cfi_endproc
 1148              	.LFE0:
 1149              		.size	SPIS_Init, .-SPIS_Init
 1150              		.section	.text.SPIS_Start,"ax",%progbits
 1151              		.align	1
 1152              		.global	SPIS_Start
 1153              		.thumb
 1154              		.thumb_func
 1155              		.type	SPIS_Start, %function
 1156              	SPIS_Start:
 1157              	.LFB2:
 188:.\Generated_Source\PSoC5/SPIS.c ****     if(SPIS_initVar == 0u)
 1158              		.loc 1 188 0
 1159              		.cfi_startproc
 1160              		@ args = 0, pretend = 0, frame = 0
 1161              		@ frame_needed = 0, uses_anonymous_args = 0
 1162 0000 10B5     		push	{r4, lr}
 1163              		.cfi_def_cfa_offset 8
 1164              		.cfi_offset 4, -8
 1165              		.cfi_offset 14, -4
 189:.\Generated_Source\PSoC5/SPIS.c ****     {
 1166              		.loc 1 189 0
 1167 0002 054C     		ldr	r4, .L95
 1168 0004 2378     		ldrb	r3, [r4]	@ zero_extendqisi2
 1169 0006 1BB9     		cbnz	r3, .L94
 191:.\Generated_Source\PSoC5/SPIS.c ****         SPIS_initVar = 1u;
 1170              		.loc 1 191 0
ARM GAS  C:\Users\jthem\AppData\Local\Temp\ccz7Pj1W.s 			page 42


 1171 0008 FFF7FEFF 		bl	SPIS_Init
 1172              	.LVL46:
 192:.\Generated_Source\PSoC5/SPIS.c ****     }
 1173              		.loc 1 192 0
 1174 000c 0123     		movs	r3, #1
 1175 000e 2370     		strb	r3, [r4]
 1176              	.L94:
 196:.\Generated_Source\PSoC5/SPIS.c **** 
 1177              		.loc 1 196 0
 1178 0010 BDE81040 		pop	{r4, lr}
 1179              		.cfi_restore 14
 1180              		.cfi_restore 4
 1181              		.cfi_def_cfa_offset 0
 195:.\Generated_Source\PSoC5/SPIS.c **** }
 1182              		.loc 1 195 0
 1183 0014 FFF7FEBF 		b	SPIS_Enable
 1184              	.LVL47:
 1185              	.L96:
 1186              		.align	2
 1187              	.L95:
 1188 0018 00000000 		.word	.LANCHOR0
 1189              		.cfi_endproc
 1190              	.LFE2:
 1191              		.size	SPIS_Start, .-SPIS_Start
 1192              		.section	.text.SPIS_EnableInt,"ax",%progbits
 1193              		.align	1
 1194              		.global	SPIS_EnableInt
 1195              		.thumb
 1196              		.thumb_func
 1197              		.type	SPIS_EnableInt, %function
 1198              	SPIS_EnableInt:
 1199              	.LFB21:
1108:.\Generated_Source\PSoC5/SPIS.c **** 
1109:.\Generated_Source\PSoC5/SPIS.c **** 
1110:.\Generated_Source\PSoC5/SPIS.c **** /* Following functions are for version Compatibility, they are obsolete.
1111:.\Generated_Source\PSoC5/SPIS.c **** *  Please do not use it in new projects.
1112:.\Generated_Source\PSoC5/SPIS.c **** */
1113:.\Generated_Source\PSoC5/SPIS.c **** 
1114:.\Generated_Source\PSoC5/SPIS.c **** 
1115:.\Generated_Source\PSoC5/SPIS.c **** /*******************************************************************************
1116:.\Generated_Source\PSoC5/SPIS.c **** * Function Name: SPIS_EnableInt
1117:.\Generated_Source\PSoC5/SPIS.c **** ********************************************************************************
1118:.\Generated_Source\PSoC5/SPIS.c **** *
1119:.\Generated_Source\PSoC5/SPIS.c **** * Summary:
1120:.\Generated_Source\PSoC5/SPIS.c **** *  Enable internal interrupt generation.
1121:.\Generated_Source\PSoC5/SPIS.c **** *
1122:.\Generated_Source\PSoC5/SPIS.c **** * Parameters:
1123:.\Generated_Source\PSoC5/SPIS.c **** *  None.
1124:.\Generated_Source\PSoC5/SPIS.c **** *
1125:.\Generated_Source\PSoC5/SPIS.c **** * Return:
1126:.\Generated_Source\PSoC5/SPIS.c **** *  None.
1127:.\Generated_Source\PSoC5/SPIS.c **** *
1128:.\Generated_Source\PSoC5/SPIS.c **** * Theory:
1129:.\Generated_Source\PSoC5/SPIS.c **** *  Enable the internal interrupt output -or- the interrupt component itself.
1130:.\Generated_Source\PSoC5/SPIS.c **** *
1131:.\Generated_Source\PSoC5/SPIS.c **** *******************************************************************************/
1132:.\Generated_Source\PSoC5/SPIS.c **** void SPIS_EnableInt(void) 
ARM GAS  C:\Users\jthem\AppData\Local\Temp\ccz7Pj1W.s 			page 43


1133:.\Generated_Source\PSoC5/SPIS.c **** {
 1200              		.loc 1 1133 0
 1201              		.cfi_startproc
 1202              		@ args = 0, pretend = 0, frame = 0
 1203              		@ frame_needed = 0, uses_anonymous_args = 0
 1204              		@ link register save eliminated.
1134:.\Generated_Source\PSoC5/SPIS.c ****     #if(SPIS_INTERNAL_TX_INT_ENABLED)
1135:.\Generated_Source\PSoC5/SPIS.c ****         CyIntEnable(SPIS_TX_ISR_NUMBER);
 1205              		.loc 1 1135 0
 1206 0000 024B     		ldr	r3, .L98
 1207 0002 0822     		movs	r2, #8
 1208 0004 1A60     		str	r2, [r3]
1136:.\Generated_Source\PSoC5/SPIS.c ****     #endif /* SPIS_INTERNAL_TX_INT_ENABLED */
1137:.\Generated_Source\PSoC5/SPIS.c **** 
1138:.\Generated_Source\PSoC5/SPIS.c ****     #if(SPIS_INTERNAL_RX_INT_ENABLED)
1139:.\Generated_Source\PSoC5/SPIS.c ****         CyIntEnable(SPIS_RX_ISR_NUMBER);
 1209              		.loc 1 1139 0
 1210 0006 0422     		movs	r2, #4
 1211 0008 1A60     		str	r2, [r3]
 1212 000a 7047     		bx	lr
 1213              	.L99:
 1214              		.align	2
 1215              	.L98:
 1216 000c 00E100E0 		.word	-536813312
 1217              		.cfi_endproc
 1218              	.LFE21:
 1219              		.size	SPIS_EnableInt, .-SPIS_EnableInt
 1220              		.section	.text.SPIS_DisableInt,"ax",%progbits
 1221              		.align	1
 1222              		.global	SPIS_DisableInt
 1223              		.thumb
 1224              		.thumb_func
 1225              		.type	SPIS_DisableInt, %function
 1226              	SPIS_DisableInt:
 1227              	.LFB22:
1140:.\Generated_Source\PSoC5/SPIS.c ****     #endif /* SPIS_INTERNAL_RX_INT_ENABLED */
1141:.\Generated_Source\PSoC5/SPIS.c **** }
1142:.\Generated_Source\PSoC5/SPIS.c **** 
1143:.\Generated_Source\PSoC5/SPIS.c **** 
1144:.\Generated_Source\PSoC5/SPIS.c **** /*******************************************************************************
1145:.\Generated_Source\PSoC5/SPIS.c **** * Function Name: SPIS_DisableInt
1146:.\Generated_Source\PSoC5/SPIS.c **** ********************************************************************************
1147:.\Generated_Source\PSoC5/SPIS.c **** *
1148:.\Generated_Source\PSoC5/SPIS.c **** * Summary:
1149:.\Generated_Source\PSoC5/SPIS.c **** *  Disable internal interrupt generation.
1150:.\Generated_Source\PSoC5/SPIS.c **** *
1151:.\Generated_Source\PSoC5/SPIS.c **** * Parameters:
1152:.\Generated_Source\PSoC5/SPIS.c **** *  None.
1153:.\Generated_Source\PSoC5/SPIS.c **** *
1154:.\Generated_Source\PSoC5/SPIS.c **** * Return:
1155:.\Generated_Source\PSoC5/SPIS.c **** *  None.
1156:.\Generated_Source\PSoC5/SPIS.c **** *
1157:.\Generated_Source\PSoC5/SPIS.c **** * Theory:
1158:.\Generated_Source\PSoC5/SPIS.c **** *  Disable the internal interrupt output -or- the interrupt component itself.
1159:.\Generated_Source\PSoC5/SPIS.c **** *
1160:.\Generated_Source\PSoC5/SPIS.c **** *******************************************************************************/
1161:.\Generated_Source\PSoC5/SPIS.c **** void SPIS_DisableInt(void) 
ARM GAS  C:\Users\jthem\AppData\Local\Temp\ccz7Pj1W.s 			page 44


1162:.\Generated_Source\PSoC5/SPIS.c **** {
 1228              		.loc 1 1162 0
 1229              		.cfi_startproc
 1230              		@ args = 0, pretend = 0, frame = 0
 1231              		@ frame_needed = 0, uses_anonymous_args = 0
 1232              		@ link register save eliminated.
1163:.\Generated_Source\PSoC5/SPIS.c ****     #if(SPIS_INTERNAL_TX_INT_ENABLED)
1164:.\Generated_Source\PSoC5/SPIS.c ****         CyIntDisable(SPIS_TX_ISR_NUMBER);
 1233              		.loc 1 1164 0
 1234 0000 024B     		ldr	r3, .L101
 1235 0002 0822     		movs	r2, #8
 1236 0004 1A60     		str	r2, [r3]
1165:.\Generated_Source\PSoC5/SPIS.c ****     #endif /* SPIS_INTERNAL_TX_INT_ENABLED */
1166:.\Generated_Source\PSoC5/SPIS.c **** 
1167:.\Generated_Source\PSoC5/SPIS.c ****     #if(SPIS_INTERNAL_RX_INT_ENABLED)
1168:.\Generated_Source\PSoC5/SPIS.c ****         CyIntDisable(SPIS_RX_ISR_NUMBER);
 1237              		.loc 1 1168 0
 1238 0006 0422     		movs	r2, #4
 1239 0008 1A60     		str	r2, [r3]
 1240 000a 7047     		bx	lr
 1241              	.L102:
 1242              		.align	2
 1243              	.L101:
 1244 000c 80E100E0 		.word	-536813184
 1245              		.cfi_endproc
 1246              	.LFE22:
 1247              		.size	SPIS_DisableInt, .-SPIS_DisableInt
 1248              		.section	.text.SPIS_SetInterruptMode,"ax",%progbits
 1249              		.align	1
 1250              		.global	SPIS_SetInterruptMode
 1251              		.thumb
 1252              		.thumb_func
 1253              		.type	SPIS_SetInterruptMode, %function
 1254              	SPIS_SetInterruptMode:
 1255              	.LFB23:
1169:.\Generated_Source\PSoC5/SPIS.c ****     #endif /* SPIS_INTERNAL_RX_INT_ENABLED */
1170:.\Generated_Source\PSoC5/SPIS.c **** }
1171:.\Generated_Source\PSoC5/SPIS.c **** 
1172:.\Generated_Source\PSoC5/SPIS.c **** 
1173:.\Generated_Source\PSoC5/SPIS.c **** /*******************************************************************************
1174:.\Generated_Source\PSoC5/SPIS.c **** * Function Name: SPIS_SetInterruptMode
1175:.\Generated_Source\PSoC5/SPIS.c **** ********************************************************************************
1176:.\Generated_Source\PSoC5/SPIS.c **** *
1177:.\Generated_Source\PSoC5/SPIS.c **** * Summary:
1178:.\Generated_Source\PSoC5/SPIS.c **** *  Configure which status bits trigger an interrupt event.
1179:.\Generated_Source\PSoC5/SPIS.c **** *
1180:.\Generated_Source\PSoC5/SPIS.c **** * Parameters:
1181:.\Generated_Source\PSoC5/SPIS.c **** *  intSrc: An or'd combination of the desired status bit masks (defined in the
1182:.\Generated_Source\PSoC5/SPIS.c **** *  header file).
1183:.\Generated_Source\PSoC5/SPIS.c **** *
1184:.\Generated_Source\PSoC5/SPIS.c **** * Return:
1185:.\Generated_Source\PSoC5/SPIS.c **** *  None.
1186:.\Generated_Source\PSoC5/SPIS.c **** *
1187:.\Generated_Source\PSoC5/SPIS.c **** * Theory:
1188:.\Generated_Source\PSoC5/SPIS.c **** *  Enables the output of specific status bits to the interrupt controller.
1189:.\Generated_Source\PSoC5/SPIS.c **** *
1190:.\Generated_Source\PSoC5/SPIS.c **** *******************************************************************************/
ARM GAS  C:\Users\jthem\AppData\Local\Temp\ccz7Pj1W.s 			page 45


1191:.\Generated_Source\PSoC5/SPIS.c **** void SPIS_SetInterruptMode(uint8 intSrc) 
1192:.\Generated_Source\PSoC5/SPIS.c **** {
 1256              		.loc 1 1192 0
 1257              		.cfi_startproc
 1258              		@ args = 0, pretend = 0, frame = 0
 1259              		@ frame_needed = 0, uses_anonymous_args = 0
 1260              		@ link register save eliminated.
 1261              	.LVL48:
1193:.\Generated_Source\PSoC5/SPIS.c ****     SPIS_TX_STATUS_MASK_REG  = intSrc;
 1262              		.loc 1 1193 0
 1263 0000 024B     		ldr	r3, .L104
 1264 0002 1870     		strb	r0, [r3]
1194:.\Generated_Source\PSoC5/SPIS.c ****     SPIS_RX_STATUS_MASK_REG  = intSrc;
 1265              		.loc 1 1194 0
 1266 0004 03F8010C 		strb	r0, [r3, #-1]
 1267 0008 7047     		bx	lr
 1268              	.L105:
 1269 000a 00BF     		.align	2
 1270              	.L104:
 1271 000c 86640040 		.word	1073767558
 1272              		.cfi_endproc
 1273              	.LFE23:
 1274              		.size	SPIS_SetInterruptMode, .-SPIS_SetInterruptMode
 1275              		.section	.text.SPIS_ReadStatus,"ax",%progbits
 1276              		.align	1
 1277              		.global	SPIS_ReadStatus
 1278              		.thumb
 1279              		.thumb_func
 1280              		.type	SPIS_ReadStatus, %function
 1281              	SPIS_ReadStatus:
 1282              	.LFB24:
1195:.\Generated_Source\PSoC5/SPIS.c **** }
1196:.\Generated_Source\PSoC5/SPIS.c **** 
1197:.\Generated_Source\PSoC5/SPIS.c **** 
1198:.\Generated_Source\PSoC5/SPIS.c **** /*******************************************************************************
1199:.\Generated_Source\PSoC5/SPIS.c **** * Function Name: SPIS_ReadStatus
1200:.\Generated_Source\PSoC5/SPIS.c **** ********************************************************************************
1201:.\Generated_Source\PSoC5/SPIS.c **** *
1202:.\Generated_Source\PSoC5/SPIS.c **** * Summary:
1203:.\Generated_Source\PSoC5/SPIS.c **** *  Read the status register for the component.
1204:.\Generated_Source\PSoC5/SPIS.c **** *
1205:.\Generated_Source\PSoC5/SPIS.c **** * Parameters:
1206:.\Generated_Source\PSoC5/SPIS.c **** *  None.
1207:.\Generated_Source\PSoC5/SPIS.c **** *
1208:.\Generated_Source\PSoC5/SPIS.c **** * Return:
1209:.\Generated_Source\PSoC5/SPIS.c **** *  Contents of the status register.
1210:.\Generated_Source\PSoC5/SPIS.c **** *
1211:.\Generated_Source\PSoC5/SPIS.c **** * Global variables:
1212:.\Generated_Source\PSoC5/SPIS.c **** *  SPIS_swStatus - used to store in software status register,
1213:.\Generated_Source\PSoC5/SPIS.c **** *  modified every function call - resets to zero.
1214:.\Generated_Source\PSoC5/SPIS.c **** *
1215:.\Generated_Source\PSoC5/SPIS.c **** * Theory:
1216:.\Generated_Source\PSoC5/SPIS.c **** *  Allows the user and the API to read the status register for error detection
1217:.\Generated_Source\PSoC5/SPIS.c **** *  and flow control.
1218:.\Generated_Source\PSoC5/SPIS.c **** *
1219:.\Generated_Source\PSoC5/SPIS.c **** * Side Effects:
1220:.\Generated_Source\PSoC5/SPIS.c **** *  Clear status register of the component.
ARM GAS  C:\Users\jthem\AppData\Local\Temp\ccz7Pj1W.s 			page 46


1221:.\Generated_Source\PSoC5/SPIS.c **** *
1222:.\Generated_Source\PSoC5/SPIS.c **** * Reentrant:
1223:.\Generated_Source\PSoC5/SPIS.c **** *  No.
1224:.\Generated_Source\PSoC5/SPIS.c **** *
1225:.\Generated_Source\PSoC5/SPIS.c **** *******************************************************************************/
1226:.\Generated_Source\PSoC5/SPIS.c **** uint8 SPIS_ReadStatus(void) 
1227:.\Generated_Source\PSoC5/SPIS.c **** {
 1283              		.loc 1 1227 0
 1284              		.cfi_startproc
 1285              		@ args = 0, pretend = 0, frame = 0
 1286              		@ frame_needed = 0, uses_anonymous_args = 0
 1287 0000 F8B5     		push	{r3, r4, r5, r6, r7, lr}
 1288              		.cfi_def_cfa_offset 24
 1289              		.cfi_offset 3, -24
 1290              		.cfi_offset 4, -20
 1291              		.cfi_offset 5, -16
 1292              		.cfi_offset 6, -12
 1293              		.cfi_offset 7, -8
 1294              		.cfi_offset 14, -4
1228:.\Generated_Source\PSoC5/SPIS.c ****     uint8 tmpStatus;
1229:.\Generated_Source\PSoC5/SPIS.c **** 
1230:.\Generated_Source\PSoC5/SPIS.c ****     #if ((SPIS_TX_SOFTWARE_BUF_ENABLED) || (SPIS_RX_SOFTWARE_BUF_ENABLED))
1231:.\Generated_Source\PSoC5/SPIS.c **** 
1232:.\Generated_Source\PSoC5/SPIS.c ****         SPIS_DisableInt();
 1295              		.loc 1 1232 0
 1296 0002 FFF7FEFF 		bl	SPIS_DisableInt
 1297              	.LVL49:
1233:.\Generated_Source\PSoC5/SPIS.c **** 
1234:.\Generated_Source\PSoC5/SPIS.c ****         tmpStatus = SPIS_GET_STATUS_TX(SPIS_swStatusTx) |
 1298              		.loc 1 1234 0
 1299 0006 0E49     		ldr	r1, .L107
1235:.\Generated_Source\PSoC5/SPIS.c ****               (SPIS_GET_STATUS_RX(SPIS_swStatusRx) & (uint8)~SPIS_STS_RX_FIFO_FULL);
 1300              		.loc 1 1235 0
 1301 0008 0E4A     		ldr	r2, .L107+4
1234:.\Generated_Source\PSoC5/SPIS.c ****               (SPIS_GET_STATUS_RX(SPIS_swStatusRx) & (uint8)~SPIS_STS_RX_FIFO_FULL);
 1302              		.loc 1 1234 0
 1303 000a 0F4B     		ldr	r3, .L107+8
 1304 000c 1878     		ldrb	r0, [r3]	@ zero_extendqisi2
 1305 000e 0D78     		ldrb	r5, [r1]	@ zero_extendqisi2
 1306              		.loc 1 1235 0
 1307 0010 13F8014C 		ldrb	r4, [r3, #-1]	@ zero_extendqisi2
 1308 0014 1378     		ldrb	r3, [r2]	@ zero_extendqisi2
 1309 0016 E7B2     		uxtb	r7, r4
 1310 0018 DCB2     		uxtb	r4, r3
1234:.\Generated_Source\PSoC5/SPIS.c ****               (SPIS_GET_STATUS_RX(SPIS_swStatusRx) & (uint8)~SPIS_STS_RX_FIFO_FULL);
 1311              		.loc 1 1234 0
 1312 001a EDB2     		uxtb	r5, r5
 1313              		.loc 1 1235 0
 1314 001c 04F06104 		and	r4, r4, #97
1236:.\Generated_Source\PSoC5/SPIS.c **** 
1237:.\Generated_Source\PSoC5/SPIS.c ****         SPIS_swStatusTx = 0u;
 1315              		.loc 1 1237 0
 1316 0020 0023     		movs	r3, #0
1234:.\Generated_Source\PSoC5/SPIS.c ****               (SPIS_GET_STATUS_RX(SPIS_swStatusRx) & (uint8)~SPIS_STS_RX_FIFO_FULL);
 1317              		.loc 1 1234 0
 1318 0022 C6B2     		uxtb	r6, r0
 1319              	.LVL50:
ARM GAS  C:\Users\jthem\AppData\Local\Temp\ccz7Pj1W.s 			page 47


1235:.\Generated_Source\PSoC5/SPIS.c **** 
 1320              		.loc 1 1235 0
 1321 0024 3C43     		orrs	r4, r4, r7
1234:.\Generated_Source\PSoC5/SPIS.c ****               (SPIS_GET_STATUS_RX(SPIS_swStatusRx) & (uint8)~SPIS_STS_RX_FIFO_FULL);
 1322              		.loc 1 1234 0
 1323 0026 05F06105 		and	r5, r5, #97
 1324              		.loc 1 1237 0
 1325 002a 0B70     		strb	r3, [r1]
1234:.\Generated_Source\PSoC5/SPIS.c ****               (SPIS_GET_STATUS_RX(SPIS_swStatusRx) & (uint8)~SPIS_STS_RX_FIFO_FULL);
 1326              		.loc 1 1234 0
 1327 002c 24F04004 		bic	r4, r4, #64
1238:.\Generated_Source\PSoC5/SPIS.c ****         SPIS_swStatusRx = 0u;
 1328              		.loc 1 1238 0
 1329 0030 1370     		strb	r3, [r2]
1239:.\Generated_Source\PSoC5/SPIS.c **** 
1240:.\Generated_Source\PSoC5/SPIS.c ****         /* Enable Interrupts */
1241:.\Generated_Source\PSoC5/SPIS.c ****         SPIS_EnableInt();
 1330              		.loc 1 1241 0
 1331 0032 FFF7FEFF 		bl	SPIS_EnableInt
 1332              	.LVL51:
1234:.\Generated_Source\PSoC5/SPIS.c ****               (SPIS_GET_STATUS_RX(SPIS_swStatusRx) & (uint8)~SPIS_STS_RX_FIFO_FULL);
 1333              		.loc 1 1234 0
 1334 0036 46EA0500 		orr	r0, r6, r5
1242:.\Generated_Source\PSoC5/SPIS.c **** 
1243:.\Generated_Source\PSoC5/SPIS.c ****     #else /* !((SPIS_TX_SOFTWARE_BUF_ENABLED) || (SPIS_RX_SOFTWARE_BUF_ENABLED)) */
1244:.\Generated_Source\PSoC5/SPIS.c **** 
1245:.\Generated_Source\PSoC5/SPIS.c ****         tmpStatus = SPIS_TX_STATUS_REG | (SPIS_RX_STATUS_REG &
1246:.\Generated_Source\PSoC5/SPIS.c ****                                                       (uint8)~SPIS_STS_RX_FIFO_FULL);
1247:.\Generated_Source\PSoC5/SPIS.c **** 
1248:.\Generated_Source\PSoC5/SPIS.c ****     #endif /* (SPIS_TX_SOFTWARE_BUF_ENABLED) || (SPIS_RX_SOFTWARE_BUF_ENABLED) */
1249:.\Generated_Source\PSoC5/SPIS.c **** 
1250:.\Generated_Source\PSoC5/SPIS.c ****     return(tmpStatus);
1251:.\Generated_Source\PSoC5/SPIS.c **** }
 1335              		.loc 1 1251 0
 1336 003a 2043     		orrs	r0, r0, r4
 1337 003c F8BD     		pop	{r3, r4, r5, r6, r7, pc}
 1338              	.L108:
 1339 003e 00BF     		.align	2
 1340              	.L107:
 1341 0040 00000000 		.word	SPIS_swStatusTx
 1342 0044 00000000 		.word	SPIS_swStatusRx
 1343 0048 66640040 		.word	1073767526
 1344              		.cfi_endproc
 1345              	.LFE24:
 1346              		.size	SPIS_ReadStatus, .-SPIS_ReadStatus
 1347              		.comm	SPIS_swStatusRx,1,1
 1348              		.comm	SPIS_swStatusTx,1,1
 1349              		.global	SPIS_initVar
 1350              		.comm	SPIS_rxBufferFull,1,1
 1351              		.comm	SPIS_rxBufferWrite,1,1
 1352              		.comm	SPIS_rxBufferRead,1,1
 1353              		.comm	SPIS_rxBuffer,8,1
 1354              		.comm	SPIS_txBufferFull,1,1
 1355              		.comm	SPIS_txBufferWrite,1,1
 1356              		.comm	SPIS_txBufferRead,1,1
 1357              		.comm	SPIS_txBuffer,8,1
 1358              		.bss
ARM GAS  C:\Users\jthem\AppData\Local\Temp\ccz7Pj1W.s 			page 48


 1359              		.set	.LANCHOR0,. + 0
 1360              		.type	SPIS_initVar, %object
 1361              		.size	SPIS_initVar, 1
 1362              	SPIS_initVar:
 1363 0000 00       		.space	1
 1364              		.text
 1365              	.Letext0:
 1366              		.file 2 ".\\Generated_Source\\PSoC5\\cytypes.h"
 1367              		.file 3 ".\\Generated_Source\\PSoC5\\CyLib.h"