ARM GAS  C:\Users\jthem\AppData\Local\Temp\cc9w2bfH.s 			page 1


   1              		.cpu cortex-m0
   2              		.fpu softvfp
   3              		.eabi_attribute 20, 1
   4              		.eabi_attribute 21, 1
   5              		.eabi_attribute 23, 3
   6              		.eabi_attribute 24, 1
   7              		.eabi_attribute 25, 1
   8              		.eabi_attribute 26, 1
   9              		.eabi_attribute 30, 6
  10              		.eabi_attribute 34, 0
  11              		.eabi_attribute 18, 4
  12              		.code	16
  13              		.file	"main.c"
  14              		.text
  15              	.Ltext0:
  16              		.cfi_sections	.debug_frame
  17              		.comm	curPos,2,2
  18              		.section	.text.InterruptHandler,"ax",%progbits
  19              		.align	2
  20              		.global	InterruptHandler
  21              		.code	16
  22              		.thumb_func
  23              		.type	InterruptHandler, %function
  24              	InterruptHandler:
  25              	.LFB34:
  26              		.file 1 ".\\main.c"
   1:.\main.c      **** /*******************************************************************************
   2:.\main.c      **** * File Name: main.c
   3:.\main.c      **** *
   4:.\main.c      **** * Version: 2.00
   5:.\main.c      **** *
   6:.\main.c      **** * Description:
   7:.\main.c      **** *  This is source code for the datasheet example of the TCPWM (PWM 
   8:.\main.c      **** *  mode) component.
   9:.\main.c      **** *
  10:.\main.c      **** ********************************************************************************
  11:.\main.c      **** * Copyright 2013-2014, Cypress Semiconductor Corporation. All rights reserved.
  12:.\main.c      **** * This software is owned by Cypress Semiconductor Corporation and is protected
  13:.\main.c      **** * by and subject to worldwide patent and copyright laws and treaties.
  14:.\main.c      **** * Therefore, you may use this software only as provided in the license agreement
  15:.\main.c      **** * accompanying the software package from which you obtained this software.
  16:.\main.c      **** * CYPRESS AND ITS SUPPLIERS MAKE NO WARRANTY OF ANY KIND, EXPRESS OR IMPLIED,
  17:.\main.c      **** * WITH REGARD TO THIS SOFTWARE, INCLUDING, BUT NOT LIMITED TO, NONINFRINGEMENT,
  18:.\main.c      **** * IMPLIED WARRANTIES OF MERCHANTABILITY AND FITNESS FOR A PARTICULAR PURPOSE.
  19:.\main.c      **** *******************************************************************************/
  20:.\main.c      **** 
  21:.\main.c      **** #include <project.h>
  22:.\main.c      **** 
  23:.\main.c      **** #define BRIGHTNESS_DECREASE         (100u)
  24:.\main.c      **** 
  25:.\main.c      **** uint16 curPos;
  26:.\main.c      **** 
  27:.\main.c      **** 
  28:.\main.c      **** /*******************************************************************************
  29:.\main.c      **** * Define Interrupt service routine and allocate an vector to the Interrupt
  30:.\main.c      **** ********************************************************************************/
  31:.\main.c      **** CY_ISR(InterruptHandler)
ARM GAS  C:\Users\jthem\AppData\Local\Temp\cc9w2bfH.s 			page 2


  32:.\main.c      **** {
  27              		.loc 1 32 0
  28              		.cfi_startproc
  29 0000 80B5     		push	{r7, lr}
  30              		.cfi_def_cfa_offset 8
  31              		.cfi_offset 7, -8
  32              		.cfi_offset 14, -4
  33 0002 00AF     		add	r7, sp, #0
  34              		.cfi_def_cfa_register 7
  33:.\main.c      **** 	/* Clear TC Inerrupt */
  34:.\main.c      ****    	PWM_ClearInterrupt(PWM_INTR_MASK_TC);
  35              		.loc 1 34 0
  36 0004 0120     		mov	r0, #1
  37 0006 FFF7FEFF 		bl	PWM_ClearInterrupt
  35:.\main.c      ****     
  36:.\main.c      **** 	/* Increment the Compare for LED brighrness decrease */ 
  37:.\main.c      ****     PWM_WriteCompare(PWM_ReadCompare() + BRIGHTNESS_DECREASE);
  38              		.loc 1 37 0
  39 000a FFF7FEFF 		bl	PWM_ReadCompare
  40 000e 031C     		mov	r3, r0
  41 0010 6433     		add	r3, r3, #100
  42 0012 181C     		mov	r0, r3
  43 0014 FFF7FEFF 		bl	PWM_WriteCompare
  38:.\main.c      **** }
  44              		.loc 1 38 0
  45 0018 BD46     		mov	sp, r7
  46              		@ sp needed
  47 001a 80BD     		pop	{r7, pc}
  48              		.cfi_endproc
  49              	.LFE34:
  50              		.size	InterruptHandler, .-InterruptHandler
  51              		.section	.text.main,"ax",%progbits
  52              		.align	2
  53              		.global	main
  54              		.code	16
  55              		.thumb_func
  56              		.type	main, %function
  57              	main:
  58              	.LFB35:
  39:.\main.c      **** 
  40:.\main.c      **** int main()
  41:.\main.c      **** {   
  59              		.loc 1 41 0
  60              		.cfi_startproc
  61 0000 80B5     		push	{r7, lr}
  62              		.cfi_def_cfa_offset 8
  63              		.cfi_offset 7, -8
  64              		.cfi_offset 14, -4
  65 0002 00AF     		add	r7, sp, #0
  66              		.cfi_def_cfa_register 7
  42:.\main.c      ****     #if (CY_PSOC4_4000)
  43:.\main.c      ****         CySysWdtDisable();
  44:.\main.c      ****     #endif /* (CY_PSOC4_4000) */
  45:.\main.c      ****     
  46:.\main.c      ****     CyDelay(50u);
  67              		.loc 1 46 0
  68 0004 3220     		mov	r0, #50
ARM GAS  C:\Users\jthem\AppData\Local\Temp\cc9w2bfH.s 			page 3


  69 0006 FFF7FEFF 		bl	CyDelay
  47:.\main.c      ****     
  48:.\main.c      ****     /* Enable the global interrupt */
  49:.\main.c      ****     CyGlobalIntEnable;
  70              		.loc 1 49 0
  71              	@ 49 ".\main.c" 1
  72 000a 62B6     		CPSIE   i
  73              	@ 0 "" 2
  50:.\main.c      ****  
  51:.\main.c      ****     /* Enable the Interrupt component connected to interrupt */
  52:.\main.c      ****     TC_ISR_StartEx(InterruptHandler);
  74              		.loc 1 52 0
  75              		.code	16
  76 000c 054B     		ldr	r3, .L4
  77 000e 181C     		mov	r0, r3
  78 0010 FFF7FEFF 		bl	TC_ISR_StartEx
  53:.\main.c      ****     
  54:.\main.c      **** 	/* Start the components */
  55:.\main.c      ****     PWM_Start();
  79              		.loc 1 55 0
  80 0014 FFF7FEFF 		bl	PWM_Start
  56:.\main.c      ****     PWM_WritePeriod(65300u);
  81              		.loc 1 56 0
  82 0018 034B     		ldr	r3, .L4+4
  83 001a 181C     		mov	r0, r3
  84 001c FFF7FEFF 		bl	PWM_WritePeriod
  85              	.L3:
  57:.\main.c      ****     
  58:.\main.c      ****     for(;;)
  59:.\main.c      ****     {
  60:.\main.c      ****         
  61:.\main.c      ****     }
  86              		.loc 1 61 0 discriminator 1
  87 0020 FEE7     		b	.L3
  88              	.L5:
  89 0022 C046     		.align	2
  90              	.L4:
  91 0024 00000000 		.word	InterruptHandler
  92 0028 14FF0000 		.word	65300
  93              		.cfi_endproc
  94              	.LFE35:
  95              		.size	main, .-main
  96              		.text
  97              	.Letext0:
  98              		.file 2 "Generated_Source\\PSoC4/cytypes.h"