ARM GAS  C:\Users\jthem\AppData\Local\Temp\ccOnfbcy.s 			page 1


   1              		.syntax unified
   2              		.cpu cortex-m3
   3              		.fpu softvfp
   4              		.eabi_attribute 20, 1
   5              		.eabi_attribute 21, 1
   6              		.eabi_attribute 23, 3
   7              		.eabi_attribute 24, 1
   8              		.eabi_attribute 25, 1
   9              		.eabi_attribute 26, 1
  10              		.eabi_attribute 30, 1
  11              		.eabi_attribute 34, 1
  12              		.eabi_attribute 18, 4
  13              		.thumb
  14              		.file	"main.c"
  15              		.text
  16              	.Ltext0:
  17              		.cfi_sections	.debug_frame
  18              		.section	.text.MCP41010_Write,"ax",%progbits
  19              		.align	2
  20              		.global	MCP41010_Write
  21              		.thumb
  22              		.thumb_func
  23              		.type	MCP41010_Write, %function
  24              	MCP41010_Write:
  25              	.LFB63:
  26              		.file 1 ".\\main.c"
   1:.\main.c      **** /* ========================================
   2:.\main.c      ****  *
   3:.\main.c      ****  * Copyright YOUR COMPANY, THE YEAR
   4:.\main.c      ****  * All Rights Reserved
   5:.\main.c      ****  * UNPUBLISHED, LICENSED SOFTWARE.
   6:.\main.c      ****  *
   7:.\main.c      ****  * CONFIDENTIAL AND PROPRIETARY INFORMATION
   8:.\main.c      ****  * WHICH IS THE PROPERTY OF your company.
   9:.\main.c      ****  *
  10:.\main.c      ****  * ========================================
  11:.\main.c      **** */
  12:.\main.c      **** #include <project.h>
  13:.\main.c      **** 
  14:.\main.c      **** void MCP41010_Write(unsigned char value) 
  15:.\main.c      **** {
  27              		.loc 1 15 0
  28              		.cfi_startproc
  29              		@ args = 0, pretend = 0, frame = 0
  30              		@ frame_needed = 0, uses_anonymous_args = 0
  31              	.LVL0:
  32 0000 10B5     		push	{r4, lr}
  33              		.cfi_def_cfa_offset 8
  34              		.cfi_offset 4, -8
  35              		.cfi_offset 14, -4
  36 0002 0446     		mov	r4, r0
  16:.\main.c      ****   SPI_CS_Write(0);
  37              		.loc 1 16 0
  38 0004 0020     		movs	r0, #0
  39              	.LVL1:
  40 0006 FFF7FEFF 		bl	SPI_CS_Write
  41              	.LVL2:
ARM GAS  C:\Users\jthem\AppData\Local\Temp\ccOnfbcy.s 			page 2


  17:.\main.c      ****   SPI_WriteTxData(0b00010001); // This tells the chip to set the pot
  42              		.loc 1 17 0
  43 000a 1120     		movs	r0, #17
  44 000c FFF7FEFF 		bl	SPI_WriteTxData
  45              	.LVL3:
  18:.\main.c      ****   SPI_WriteTxData(value);     // This tells it the pot position
  46              		.loc 1 18 0
  47 0010 2046     		mov	r0, r4
  48 0012 FFF7FEFF 		bl	SPI_WriteTxData
  49              	.LVL4:
  19:.\main.c      ****   SPI_CS_Write(1);
  50              		.loc 1 19 0
  51 0016 0120     		movs	r0, #1
  52 0018 FFF7FEFF 		bl	SPI_CS_Write
  53              	.LVL5:
  20:.\main.c      ****   LED_Write(LED_Read() ^ 1);
  54              		.loc 1 20 0
  55 001c FFF7FEFF 		bl	LED_Read
  56              	.LVL6:
  57 0020 80F00100 		eor	r0, r0, #1
  58 0024 C0B2     		uxtb	r0, r0
  59 0026 FFF7FEFF 		bl	LED_Write
  60              	.LVL7:
  21:.\main.c      ****   LCD_Position(1, 0);
  61              		.loc 1 21 0
  62 002a 0120     		movs	r0, #1
  63 002c 0021     		movs	r1, #0
  64 002e FFF7FEFF 		bl	LCD_Position
  65              	.LVL8:
  22:.\main.c      ****   LCD_PrintInt8(value);
  66              		.loc 1 22 0
  67 0032 2046     		mov	r0, r4
  68 0034 FFF7FEFF 		bl	LCD_PrintInt8
  69              	.LVL9:
  70 0038 10BD     		pop	{r4, pc}
  71              		.cfi_endproc
  72              	.LFE63:
  73              		.size	MCP41010_Write, .-MCP41010_Write
  74 003a 00BF     		.section	.text.main,"ax",%progbits
  75              		.align	2
  76              		.global	main
  77              		.thumb
  78              		.thumb_func
  79              		.type	main, %function
  80              	main:
  81              	.LFB64:
  23:.\main.c      **** }
  24:.\main.c      **** 
  25:.\main.c      **** int main()
  26:.\main.c      **** {
  82              		.loc 1 26 0
  83              		.cfi_startproc
  84              		@ args = 0, pretend = 0, frame = 0
  85              		@ frame_needed = 0, uses_anonymous_args = 0
  86 0000 10B5     		push	{r4, lr}
  87              		.cfi_def_cfa_offset 8
  88              		.cfi_offset 4, -8
ARM GAS  C:\Users\jthem\AppData\Local\Temp\ccOnfbcy.s 			page 3


  89              		.cfi_offset 14, -4
  27:.\main.c      ****     CyGlobalIntEnable; /* Enable global interrupts. */
  90              		.loc 1 27 0
  91              	@ 27 ".\main.c" 1
  92 0002 62B6     		CPSIE   i
  93              	@ 0 "" 2
  28:.\main.c      ****     SPI_Start();
  94              		.loc 1 28 0
  95              		.thumb
  96 0004 FFF7FEFF 		bl	SPI_Start
  97              	.LVL10:
  29:.\main.c      ****     
  30:.\main.c      ****     LCD_Start();
  98              		.loc 1 30 0
  99 0008 FFF7FEFF 		bl	LCD_Start
 100              	.LVL11:
  31:.\main.c      ****     LCD_Position(0u,0u);
 101              		.loc 1 31 0
 102 000c 0020     		movs	r0, #0
 103 000e 0146     		mov	r1, r0
 104 0010 FFF7FEFF 		bl	LCD_Position
 105              	.LVL12:
  32:.\main.c      ****     LCD_PrintString("value:");
 106              		.loc 1 32 0
 107 0014 1048     		ldr	r0, .L10
 108 0016 FFF7FEFF 		bl	LCD_PrintString
 109              	.LVL13:
 110              	.L8:
 111              	.LBB2:
  33:.\main.c      **** 
  34:.\main.c      ****     /* Place your initialization/startup code here (e.g. MyInst_Start()) */
  35:.\main.c      **** 
  36:.\main.c      ****     for(;;)
  37:.\main.c      ****     {
  38:.\main.c      ****        // move the potentiometer in one direction
  39:.\main.c      ****         int level;
  40:.\main.c      ****           for (level = 0; level < 255; level++) 
 112              		.loc 1 40 0
 113 001a 0024     		movs	r4, #0
 114 001c 06E0     		b	.L4
 115              	.LVL14:
 116              	.L5:
  41:.\main.c      ****           {
  42:.\main.c      ****             MCP41010_Write(0);
 117              		.loc 1 42 0 discriminator 3
 118 001e 0020     		movs	r0, #0
 119 0020 FFF7FEFF 		bl	MCP41010_Write
 120              	.LVL15:
  43:.\main.c      ****             CyDelay(100); //delay(100);
 121              		.loc 1 43 0 discriminator 3
 122 0024 6420     		movs	r0, #100
 123 0026 FFF7FEFF 		bl	CyDelay
 124              	.LVL16:
  40:.\main.c      ****           {
 125              		.loc 1 40 0 discriminator 3
 126 002a 0134     		adds	r4, r4, #1
 127              	.LVL17:
ARM GAS  C:\Users\jthem\AppData\Local\Temp\ccOnfbcy.s 			page 4


 128              	.L4:
  40:.\main.c      ****           {
 129              		.loc 1 40 0 is_stmt 0 discriminator 1
 130 002c FE2C     		cmp	r4, #254
 131 002e F6DD     		ble	.L5
  44:.\main.c      ****           }
  45:.\main.c      ****           CyDelay(2000); //delay(2000);  // wait a couple seconds
 132              		.loc 1 45 0 is_stmt 1
 133 0030 4FF4FA60 		mov	r0, #2000
 134 0034 FFF7FEFF 		bl	CyDelay
 135              	.LVL18:
  46:.\main.c      ****           // Now mover potentiometer in other directions
  47:.\main.c      ****           
  48:.\main.c      ****           for (level = 255; level > 0; level--) 
 136              		.loc 1 48 0
 137 0038 FF24     		movs	r4, #255
 138 003a 06E0     		b	.L6
 139              	.LVL19:
 140              	.L7:
  49:.\main.c      ****           {
  50:.\main.c      ****             MCP41010_Write(0);
 141              		.loc 1 50 0 discriminator 3
 142 003c 0020     		movs	r0, #0
 143 003e FFF7FEFF 		bl	MCP41010_Write
 144              	.LVL20:
  51:.\main.c      ****             CyDelay(100); //delay(100);
 145              		.loc 1 51 0 discriminator 3
 146 0042 6420     		movs	r0, #100
 147 0044 FFF7FEFF 		bl	CyDelay
 148              	.LVL21:
  48:.\main.c      ****           {
 149              		.loc 1 48 0 discriminator 3
 150 0048 013C     		subs	r4, r4, #1
 151              	.LVL22:
 152              	.L6:
  48:.\main.c      ****           {
 153              		.loc 1 48 0 is_stmt 0 discriminator 1
 154 004a 002C     		cmp	r4, #0
 155 004c F6DC     		bgt	.L7
  52:.\main.c      ****           }
  53:.\main.c      ****           CyDelay(2000); //delay(2000);
 156              		.loc 1 53 0 is_stmt 1
 157 004e 4FF4FA60 		mov	r0, #2000
 158 0052 FFF7FEFF 		bl	CyDelay
 159              	.LVL23:
 160              	.LBE2:
  54:.\main.c      ****     }
 161              		.loc 1 54 0
 162 0056 E0E7     		b	.L8
 163              	.L11:
 164              		.align	2
 165              	.L10:
 166 0058 00000000 		.word	.LC0
 167              		.cfi_endproc
 168              	.LFE64:
 169              		.size	main, .-main
 170              		.section	.rodata.str1.4,"aMS",%progbits,1
ARM GAS  C:\Users\jthem\AppData\Local\Temp\ccOnfbcy.s 			page 5


 171              		.align	2
 172              	.LC0:
 173 0000 76616C75 		.ascii	"value:\000"
 173      653A00
 174 0007 00       		.text
 175              	.Letext0:
 176              		.file 2 "c:\\program files (x86)\\cypress\\psoc creator\\3.3\\psoc creator\\import\\gnu\\arm\\4.9.
 177              		.file 3 "c:\\program files (x86)\\cypress\\psoc creator\\3.3\\psoc creator\\import\\gnu\\arm\\4.9.
 178              		.file 4 "Generated_Source\\PSoC5/cytypes.h"
 179              		.file 5 "Generated_Source\\PSoC5/SPI_CS.h"
 180              		.file 6 "Generated_Source\\PSoC5/SPI.h"
 181              		.file 7 "Generated_Source\\PSoC5/LED.h"
 182              		.file 8 "Generated_Source\\PSoC5/LCD.h"
 183              		.file 9 "Generated_Source\\PSoC5/CyLib.h"
 184              		.file 10 "Generated_Source\\PSoC5/core_cm3.h"