ARM GAS  C:\Users\jthem\AppData\Local\Temp\cctygaP7.s 			page 1


   1              		.syntax unified
   2              		.cpu cortex-m3
   3              		.fpu softvfp
   4              		.eabi_attribute 20, 1
   5              		.eabi_attribute 21, 1
   6              		.eabi_attribute 23, 3
   7              		.eabi_attribute 24, 1
   8              		.eabi_attribute 25, 1
   9              		.eabi_attribute 26, 1
  10              		.eabi_attribute 30, 6
  11              		.eabi_attribute 34, 1
  12              		.eabi_attribute 18, 4
  13              		.thumb
  14              		.file	"main.c"
  15              		.text
  16              	.Ltext0:
  17              		.cfi_sections	.debug_frame
  18              		.global _printf_float
  19              		.thumb
  20              		.section	.text.trimString,"ax",%progbits
  21              		.align	2
  22              		.global	trimString
  23              		.thumb
  24              		.thumb_func
  25              		.type	trimString, %function
  26              	trimString:
  27              	.LFB63:
  28              		.file 1 ".\\main.c"
   1:.\main.c      **** /*******************************************************************************
   2:.\main.c      **** * File Name: main.c
   3:.\main.c      **** *
   4:.\main.c      **** * Version: 2.0
   5:.\main.c      **** *
   6:.\main.c      **** * Description:
   7:.\main.c      **** *  The SAR ADC and PrISM datasheet example project.
   8:.\main.c      **** *  This example project demonstrates SAR ADC measurements and transferring
   9:.\main.c      **** *  results using ISR and DMA to the LCD and PrISM.
  10:.\main.c      **** *
  11:.\main.c      **** * Note:
  12:.\main.c      **** *  Pin_Vin pin (P1[4]) should be connected to the VR.
  13:.\main.c      **** *  Pin_LED pin (P1[6]) should be connected to the LED.
  14:.\main.c      **** *  Verify that VR_PWR(J11) is jumpered to ON.
  15:.\main.c      **** *
  16:.\main.c      **** * Hardware Dependency:
  17:.\main.c      **** *  CY8C55 Family Processor
  18:.\main.c      **** *
  19:.\main.c      **** ********************************************************************************
  20:.\main.c      **** * Copyright 2012, Cypress Semiconductor Corporation. All rights reserved.
  21:.\main.c      **** * This software is owned by Cypress Semiconductor Corporation and is protected
  22:.\main.c      **** * by and subject to worldwide patent and copyright laws and treaties.
  23:.\main.c      **** * Therefore, you may use this software only as provided in the license agreement
  24:.\main.c      **** * accompanying the software package from which you obtained this software.
  25:.\main.c      **** * CYPRESS AND ITS SUPPLIERS MAKE NO WARRANTY OF ANY KIND, EXPRESS OR IMPLIED,
  26:.\main.c      **** * WITH REGARD TO THIS SOFTWARE, INCLUDING, BUT NOT LIMITED TO, NONINFRINGEMENT,
  27:.\main.c      **** * IMPLIED WARRANTIES OF MERCHANTABILITY AND FITNESS FOR A PARTICULAR PURPOSE.
  28:.\main.c      **** *******************************************************************************/
  29:.\main.c      **** 
ARM GAS  C:\Users\jthem\AppData\Local\Temp\cctygaP7.s 			page 2


  30:.\main.c      **** #include <device.h>
  31:.\main.c      **** #include <stdio.h>
  32:.\main.c      **** #include <stdlib.h>
  33:.\main.c      **** #include "FunctionGenerator.h"
  34:.\main.c      **** #include "Serial.h"
  35:.\main.c      **** 
  36:.\main.c      **** #if defined (__GNUC__)
  37:.\main.c      ****     /* Add an explicit reference to the floating point printf library */
  38:.\main.c      ****     /* to allow the usage of floating point conversion specifiers. */
  39:.\main.c      ****     /* This is not linked in by default with the newlib-nano library. */
  40:.\main.c      ****     asm (".global _printf_float");
  41:.\main.c      **** #endif
  42:.\main.c      **** 
  43:.\main.c      **** void trimString(char *str)
  44:.\main.c      **** {
  29              		.loc 1 44 0
  30              		.cfi_startproc
  31              		@ args = 0, pretend = 0, frame = 16
  32              		@ frame_needed = 1, uses_anonymous_args = 0
  33 0000 90B5     		push	{r4, r7, lr}
  34              		.cfi_def_cfa_offset 12
  35              		.cfi_offset 4, -12
  36              		.cfi_offset 7, -8
  37              		.cfi_offset 14, -4
  38 0002 85B0     		sub	sp, sp, #20
  39              		.cfi_def_cfa_offset 32
  40 0004 00AF     		add	r7, sp, #0
  41              		.cfi_def_cfa_register 7
  42 0006 7860     		str	r0, [r7, #4]
  45:.\main.c      ****   int i;
  46:.\main.c      ****   
  47:.\main.c      ****   // trim leading whitespace
  48:.\main.c      ****   for (i = 0; str[i] != '\0'; i++) {
  43              		.loc 1 48 0
  44 0008 0023     		movs	r3, #0
  45 000a FB60     		str	r3, [r7, #12]
  46 000c 10E0     		b	.L2
  47              	.L5:
  49:.\main.c      ****     if (!isspace(str[i])) {
  48              		.loc 1 49 0
  49 000e 284B     		ldr	r3, .L10
  50 0010 1A68     		ldr	r2, [r3]
  51 0012 FB68     		ldr	r3, [r7, #12]
  52 0014 7968     		ldr	r1, [r7, #4]
  53 0016 0B44     		add	r3, r3, r1
  54 0018 1B78     		ldrb	r3, [r3]	@ zero_extendqisi2
  55 001a 0133     		adds	r3, r3, #1
  56 001c 1344     		add	r3, r3, r2
  57 001e 1B78     		ldrb	r3, [r3]	@ zero_extendqisi2
  58 0020 03F00803 		and	r3, r3, #8
  59 0024 002B     		cmp	r3, #0
  60 0026 00D1     		bne	.L3
  50:.\main.c      ****       break;
  61              		.loc 1 50 0
  62 0028 08E0     		b	.L4
  63              	.L3:
  48:.\main.c      ****     if (!isspace(str[i])) {
ARM GAS  C:\Users\jthem\AppData\Local\Temp\cctygaP7.s 			page 3


  64              		.loc 1 48 0 discriminator 2
  65 002a FB68     		ldr	r3, [r7, #12]
  66 002c 0133     		adds	r3, r3, #1
  67 002e FB60     		str	r3, [r7, #12]
  68              	.L2:
  48:.\main.c      ****     if (!isspace(str[i])) {
  69              		.loc 1 48 0 is_stmt 0 discriminator 1
  70 0030 FB68     		ldr	r3, [r7, #12]
  71 0032 7A68     		ldr	r2, [r7, #4]
  72 0034 1344     		add	r3, r3, r2
  73 0036 1B78     		ldrb	r3, [r3]	@ zero_extendqisi2
  74 0038 002B     		cmp	r3, #0
  75 003a E8D1     		bne	.L5
  76              	.L4:
  51:.\main.c      ****     }
  52:.\main.c      ****   }
  53:.\main.c      ****   
  54:.\main.c      ****   // copy string w/o leading whitespace
  55:.\main.c      ****   // (don't read beyond the end of the input buffer)
  56:.\main.c      ****   memmove(str, str + i, strlen(str) + 1 - i);
  77              		.loc 1 56 0 is_stmt 1
  78 003c FB68     		ldr	r3, [r7, #12]
  79 003e 7A68     		ldr	r2, [r7, #4]
  80 0040 D418     		adds	r4, r2, r3
  81 0042 7868     		ldr	r0, [r7, #4]
  82 0044 FFF7FEFF 		bl	strlen
  83 0048 0246     		mov	r2, r0
  84 004a FB68     		ldr	r3, [r7, #12]
  85 004c D31A     		subs	r3, r2, r3
  86 004e 0133     		adds	r3, r3, #1
  87 0050 7868     		ldr	r0, [r7, #4]
  88 0052 2146     		mov	r1, r4
  89 0054 1A46     		mov	r2, r3
  90 0056 FFF7FEFF 		bl	memmove
  57:.\main.c      ****   
  58:.\main.c      ****   // trim trailing whitespace
  59:.\main.c      ****   i = strlen(str) - 1; // index of last character
  91              		.loc 1 59 0
  92 005a 7868     		ldr	r0, [r7, #4]
  93 005c FFF7FEFF 		bl	strlen
  94 0060 0346     		mov	r3, r0
  95 0062 013B     		subs	r3, r3, #1
  96 0064 FB60     		str	r3, [r7, #12]
  60:.\main.c      ****   
  61:.\main.c      ****   // Edge case: string is empty
  62:.\main.c      ****   if (i == -1) {
  97              		.loc 1 62 0
  98 0066 FB68     		ldr	r3, [r7, #12]
  99 0068 B3F1FF3F 		cmp	r3, #-1
 100 006c 03D1     		bne	.L6
  63:.\main.c      ****     str[0] = '\0';
 101              		.loc 1 63 0
 102 006e 7B68     		ldr	r3, [r7, #4]
 103 0070 0022     		movs	r2, #0
 104 0072 1A70     		strb	r2, [r3]
  64:.\main.c      ****     return;
 105              		.loc 1 64 0
ARM GAS  C:\Users\jthem\AppData\Local\Temp\cctygaP7.s 			page 4


 106 0074 19E0     		b	.L1
 107              	.L6:
  65:.\main.c      ****   }
  66:.\main.c      ****   
  67:.\main.c      ****   do {
  68:.\main.c      ****     if (!isspace(str[i])) {
 108              		.loc 1 68 0
 109 0076 0E4B     		ldr	r3, .L10
 110 0078 1A68     		ldr	r2, [r3]
 111 007a FB68     		ldr	r3, [r7, #12]
 112 007c 7968     		ldr	r1, [r7, #4]
 113 007e 0B44     		add	r3, r3, r1
 114 0080 1B78     		ldrb	r3, [r3]	@ zero_extendqisi2
 115 0082 0133     		adds	r3, r3, #1
 116 0084 1344     		add	r3, r3, r2
 117 0086 1B78     		ldrb	r3, [r3]	@ zero_extendqisi2
 118 0088 03F00803 		and	r3, r3, #8
 119 008c 002B     		cmp	r3, #0
 120 008e 00D1     		bne	.L8
  69:.\main.c      ****       break;
 121              		.loc 1 69 0
 122 0090 05E0     		b	.L9
 123              	.L8:
  70:.\main.c      ****     }
  71:.\main.c      ****     i--;
 124              		.loc 1 71 0
 125 0092 FB68     		ldr	r3, [r7, #12]
 126 0094 013B     		subs	r3, r3, #1
 127 0096 FB60     		str	r3, [r7, #12]
  72:.\main.c      ****   } while (i >= 0);
 128              		.loc 1 72 0
 129 0098 FB68     		ldr	r3, [r7, #12]
 130 009a 002B     		cmp	r3, #0
 131 009c EBDA     		bge	.L6
 132              	.L9:
  73:.\main.c      ****   
  74:.\main.c      ****   str[i + 1] = '\0';
 133              		.loc 1 74 0
 134 009e FB68     		ldr	r3, [r7, #12]
 135 00a0 0133     		adds	r3, r3, #1
 136 00a2 7A68     		ldr	r2, [r7, #4]
 137 00a4 1344     		add	r3, r3, r2
 138 00a6 0022     		movs	r2, #0
 139 00a8 1A70     		strb	r2, [r3]
 140              	.L1:
  75:.\main.c      **** }
 141              		.loc 1 75 0
 142 00aa 1437     		adds	r7, r7, #20
 143              		.cfi_def_cfa_offset 12
 144 00ac BD46     		mov	sp, r7
 145              		.cfi_def_cfa_register 13
 146              		@ sp needed
 147 00ae 90BD     		pop	{r4, r7, pc}
 148              	.L11:
 149              		.align	2
 150              	.L10:
 151 00b0 00000000 		.word	__ctype_ptr__
ARM GAS  C:\Users\jthem\AppData\Local\Temp\cctygaP7.s 			page 5


 152              		.cfi_endproc
 153              	.LFE63:
 154              		.size	trimString, .-trimString
 155              		.section	.rodata
 156              		.align	2
 157              	.LC0:
 158 0000 46313D00 		.ascii	"F1=\000"
 159              		.align	2
 160              	.LC1:
 161 0004 25642025 		.ascii	"%d %s %d\000"
 161      73202564 
 161      00
 162 000d 000000   		.align	2
 163              	.LC2:
 164 0010 73717561 		.ascii	"square\000"
 164      726500
 165 0017 00       		.align	2
 166              	.LC3:
 167 0018 666E203D 		.ascii	"fn = %d, mode = %s, newFreq = %d\015\012\000"
 167      2025642C 
 167      206D6F64 
 167      65203D20 
 167      25732C20 
 168 003b 00       		.align	2
 169              	.LC4:
 170 003c 73696E65 		.ascii	"sine\000"
 170      00
 171 0041 000000   		.align	2
 172              	.LC5:
 173 0044 74726961 		.ascii	"triangle\000"
 173      6E676C65 
 173      00
 174 004d 000000   		.align	2
 175              	.LC6:
 176 0050 73617774 		.ascii	"sawtooth\000"
 176      6F6F7468 
 176      00
 177 0059 000000   		.align	2
 178              	.LC7:
 179 005c 646300   		.ascii	"dc\000"
 180 005f 00       		.align	2
 181              	.LC8:
 182 0060 496E7661 		.ascii	"Invalid mode: %s\015\012\000"
 182      6C696420 
 182      6D6F6465 
 182      3A202573 
 182      0D0A00
 183 0073 00       		.align	2
 184              	.LC9:
 185 0074 6F666600 		.ascii	"off\000"
 186              		.align	2
 187              	.LC10:
 188 0078 53746F70 		.ascii	"Stopped WaveDAC %d\015\012\000"
 188      70656420 
 188      57617665 
 188      44414320 
 188      25640D0A 
ARM GAS  C:\Users\jthem\AppData\Local\Temp\cctygaP7.s 			page 6


 189 008d 000000   		.align	2
 190              	.LC11:
 191 0090 496E7661 		.ascii	"Invalid command: %s\015\012\000"
 191      6C696420 
 191      636F6D6D 
 191      616E643A 
 191      2025730D 
 192 00a6 0000     		.section	.text.main,"ax",%progbits
 193              		.align	2
 194              		.global	main
 195              		.thumb
 196              		.thumb_func
 197              		.type	main, %function
 198              	main:
 199              	.LFB64:
  76:.\main.c      **** 
  77:.\main.c      **** /*******************************************************************************
  78:.\main.c      **** * Function Name: main
  79:.\main.c      **** ********************************************************************************
  80:.\main.c      **** *
  81:.\main.c      **** * Summary:
  82:.\main.c      **** *  Main function performs following functions:
  83:.\main.c      **** *   1. Initialises the DMA to move data from ADC_SAR_1 work registers to the
  84:.\main.c      **** *      PrISM pulse density registers.
  85:.\main.c      **** *   2. Initialises the ISR connected to the DMA nrq terminal(DMA done).
  86:.\main.c      **** *   3. Initialises the LCD.
  87:.\main.c      **** *   4. Initialises the PrISM with 1Mhz clock.
  88:.\main.c      **** *   5. Initialises the two SAR ADCs.
  89:.\main.c      **** *   6. Displays the results of ADC_SAR_1 when DmaDone ISR rises.
  90:.\main.c      **** *      The results are read from PrISM pulse density register.
  91:.\main.c      **** *   7. Displays the results of ADC_SAR_2 when internal EOC ISR rises.
  92:.\main.c      **** *
  93:.\main.c      **** * Parameters:
  94:.\main.c      **** *  None.
  95:.\main.c      **** *
  96:.\main.c      **** * Return:
  97:.\main.c      **** *  None.
  98:.\main.c      **** *
  99:.\main.c      **** *******************************************************************************/
 100:.\main.c      **** 
 101:.\main.c      **** int main()
 102:.\main.c      **** {
 200              		.loc 1 102 0
 201              		.cfi_startproc
 202              		@ args = 0, pretend = 0, frame = 240
 203              		@ frame_needed = 1, uses_anonymous_args = 0
 204 0000 90B5     		push	{r4, r7, lr}
 205              		.cfi_def_cfa_offset 12
 206              		.cfi_offset 4, -12
 207              		.cfi_offset 7, -8
 208              		.cfi_offset 14, -4
 209 0002 BFB0     		sub	sp, sp, #252
 210              		.cfi_def_cfa_offset 264
 211 0004 02AF     		add	r7, sp, #8
 212              		.cfi_def_cfa 7, 256
 103:.\main.c      ****     char freq0Disp[16], freq1Disp[16];
 104:.\main.c      ****     char usbRx[USBUART_BUFFER_SIZE], usbTx[USBUART_BUFFER_SIZE];
ARM GAS  C:\Users\jthem\AppData\Local\Temp\cctygaP7.s 			page 7


 105:.\main.c      ****     
 106:.\main.c      ****     
 107:.\main.c      ****     /* Initializes the LCD. */
 108:.\main.c      ****     LCD_Start();
 213              		.loc 1 108 0
 214 0006 FFF7FEFF 		bl	LCD_Start
 109:.\main.c      ****     LCD_Position(1u,0u);
 215              		.loc 1 109 0
 216 000a 0120     		movs	r0, #1
 217 000c 0021     		movs	r1, #0
 218 000e FFF7FEFF 		bl	LCD_Position
 110:.\main.c      ****     LCD_Position(0u,0u);
 219              		.loc 1 110 0
 220 0012 0020     		movs	r0, #0
 221 0014 0021     		movs	r1, #0
 222 0016 FFF7FEFF 		bl	LCD_Position
 111:.\main.c      ****     LCD_PrintString("F1=");
 223              		.loc 1 111 0
 224 001a 9548     		ldr	r0, .L29
 225 001c FFF7FEFF 		bl	LCD_PrintString
 112:.\main.c      ****     
 113:.\main.c      ****     WaveDAC_0_Clock_Start();
 226              		.loc 1 113 0
 227 0020 FFF7FEFF 		bl	WaveDAC_0_Clock_Start
 114:.\main.c      ****     WaveDAC_1_Clock_Start();
 228              		.loc 1 114 0
 229 0024 FFF7FEFF 		bl	WaveDAC_1_Clock_Start
 115:.\main.c      ****     
 116:.\main.c      ****     // Needed for WaveDACs to operate concurrently
 117:.\main.c      ****     // I think this might be a bug with PSoC
 118:.\main.c      ****     WaveDAC_0_Start();
 230              		.loc 1 118 0
 231 0028 FFF7FEFF 		bl	WaveDAC_0_Start
 119:.\main.c      ****     WaveDAC_1_Start(); 
 232              		.loc 1 119 0
 233 002c FFF7FEFF 		bl	WaveDAC_1_Start
 120:.\main.c      ****     WaveDAC_0_Stop();
 234              		.loc 1 120 0
 235 0030 FFF7FEFF 		bl	WaveDAC_0_Stop
 121:.\main.c      ****     WaveDAC_1_Stop();
 236              		.loc 1 121 0
 237 0034 FFF7FEFF 		bl	WaveDAC_1_Stop
 122:.\main.c      **** 
 123:.\main.c      ****     USBUART_Start(USBFS_DEVICE, USBUART_5V_OPERATION);
 238              		.loc 1 123 0
 239 0038 0020     		movs	r0, #0
 240 003a 0121     		movs	r1, #1
 241 003c FFF7FEFF 		bl	USBUART_Start
 124:.\main.c      ****     USBUART_CDC_Init();
 242              		.loc 1 124 0
 243 0040 FFF7FEFF 		bl	USBUART_CDC_Init
 125:.\main.c      ****     
 126:.\main.c      ****     CyGlobalIntEnable;
 244              		.loc 1 126 0
 245              	@ 126 ".\main.c" 1
 246 0044 62B6     		CPSIE   i
 247              	@ 0 "" 2
ARM GAS  C:\Users\jthem\AppData\Local\Temp\cctygaP7.s 			page 8


 248              		.thumb
 249              	.L28:
 127:.\main.c      **** 
 128:.\main.c      ****     while (1) {
 129:.\main.c      ****         if (USBUART_IsConfigurationChanged()) {
 250              		.loc 1 129 0
 251 0046 FFF7FEFF 		bl	USBUART_IsConfigurationChanged
 252 004a 0346     		mov	r3, r0
 253 004c 002B     		cmp	r3, #0
 254 004e 06D0     		beq	.L13
 130:.\main.c      ****             if (USBUART_GetConfiguration()) {
 255              		.loc 1 130 0
 256 0050 FFF7FEFF 		bl	USBUART_GetConfiguration
 257 0054 0346     		mov	r3, r0
 258 0056 002B     		cmp	r3, #0
 259 0058 01D0     		beq	.L13
 131:.\main.c      ****                 USBUART_CDC_Init();
 260              		.loc 1 131 0
 261 005a FFF7FEFF 		bl	USBUART_CDC_Init
 262              	.L13:
 132:.\main.c      ****             }
 133:.\main.c      ****         }
 134:.\main.c      ****         
 135:.\main.c      ****         if (USBUART_GetConfiguration()) {
 263              		.loc 1 135 0
 264 005e FFF7FEFF 		bl	USBUART_GetConfiguration
 265 0062 0346     		mov	r3, r0
 266 0064 002B     		cmp	r3, #0
 267 0066 00F00281 		beq	.L14
 136:.\main.c      ****             if (USBUART_DataIsReady()) {
 268              		.loc 1 136 0
 269 006a FFF7FEFF 		bl	USBUART_DataIsReady
 270 006e 0346     		mov	r3, r0
 271 0070 002B     		cmp	r3, #0
 272 0072 00F0FC80 		beq	.L14
 273              	.LBB2:
 137:.\main.c      ****                 int numArgs;
 138:.\main.c      ****                 int desiredFreq, newFreq, fnGenerator;
 139:.\main.c      ****                 char mode[USBUART_BUFFER_SIZE] = {0};
 274              		.loc 1 139 0
 275 0076 3B46     		mov	r3, r7
 276 0078 4022     		movs	r2, #64
 277 007a 1846     		mov	r0, r3
 278 007c 0021     		movs	r1, #0
 279 007e FFF7FEFF 		bl	memset
 140:.\main.c      ****                 
 141:.\main.c      ****                 Serial_GetString(usbRx);
 280              		.loc 1 141 0
 281 0082 07F18803 		add	r3, r7, #136
 282 0086 1846     		mov	r0, r3
 283 0088 FFF7FEFF 		bl	Serial_GetString
 142:.\main.c      ****                 trimString(usbRx);
 284              		.loc 1 142 0
 285 008c 07F18803 		add	r3, r7, #136
 286 0090 1846     		mov	r0, r3
 287 0092 FFF7FEFF 		bl	trimString
 143:.\main.c      ****                 numArgs = sscanf(usbRx, "%d %s %d", &fnGenerator, mode, &desiredFreq);
ARM GAS  C:\Users\jthem\AppData\Local\Temp\cctygaP7.s 			page 9


 288              		.loc 1 143 0
 289 0096 07F18801 		add	r1, r7, #136
 290 009a 07F14002 		add	r2, r7, #64
 291 009e 3C46     		mov	r4, r7
 292 00a0 07F14403 		add	r3, r7, #68
 293 00a4 0093     		str	r3, [sp]
 294 00a6 0846     		mov	r0, r1
 295 00a8 7249     		ldr	r1, .L29+4
 296 00aa 2346     		mov	r3, r4
 297 00ac FFF7FEFF 		bl	sscanf
 298 00b0 C7F8EC00 		str	r0, [r7, #236]
 144:.\main.c      ****                 if (numArgs == 3) {
 299              		.loc 1 144 0
 300 00b4 D7F8EC30 		ldr	r3, [r7, #236]
 301 00b8 032B     		cmp	r3, #3
 302 00ba 40F09F80 		bne	.L15
 145:.\main.c      ****                     if (!strcmp(mode, "square")) { 
 303              		.loc 1 145 0
 304 00be 3B46     		mov	r3, r7
 305 00c0 1846     		mov	r0, r3
 306 00c2 6D49     		ldr	r1, .L29+8
 307 00c4 FFF7FEFF 		bl	strcmp
 308 00c8 0346     		mov	r3, r0
 309 00ca 002B     		cmp	r3, #0
 310 00cc 15D1     		bne	.L16
 146:.\main.c      ****                         newFreq = changeFrequency(desiredFreq, SQUARE, fnGenerator);
 311              		.loc 1 146 0
 312 00ce 7A6C     		ldr	r2, [r7, #68]
 313 00d0 3B6C     		ldr	r3, [r7, #64]
 314 00d2 1046     		mov	r0, r2
 315 00d4 0021     		movs	r1, #0
 316 00d6 1A46     		mov	r2, r3
 317 00d8 FFF7FEFF 		bl	changeFrequency
 318 00dc C7F8E800 		str	r0, [r7, #232]
 147:.\main.c      ****                         sprintf(usbTx, "fn = %d, mode = %s, newFreq = %d\r\n", fnGenerator, mode, n
 319              		.loc 1 147 0
 320 00e0 3A6C     		ldr	r2, [r7, #64]
 321 00e2 07F14801 		add	r1, r7, #72
 322 00e6 3C46     		mov	r4, r7
 323 00e8 D7F8E830 		ldr	r3, [r7, #232]
 324 00ec 0093     		str	r3, [sp]
 325 00ee 0846     		mov	r0, r1
 326 00f0 6249     		ldr	r1, .L29+12
 327 00f2 2346     		mov	r3, r4
 328 00f4 FFF7FEFF 		bl	sprintf
 329 00f8 B4E0     		b	.L22
 330              	.L16:
 148:.\main.c      ****                     } else if (!strcmp(mode, "sine")) { 
 331              		.loc 1 148 0
 332 00fa 3B46     		mov	r3, r7
 333 00fc 1846     		mov	r0, r3
 334 00fe 6049     		ldr	r1, .L29+16
 335 0100 FFF7FEFF 		bl	strcmp
 336 0104 0346     		mov	r3, r0
 337 0106 002B     		cmp	r3, #0
 338 0108 15D1     		bne	.L18
 149:.\main.c      ****                         newFreq = changeFrequency(desiredFreq, SINE, fnGenerator);
ARM GAS  C:\Users\jthem\AppData\Local\Temp\cctygaP7.s 			page 10


 339              		.loc 1 149 0
 340 010a 7A6C     		ldr	r2, [r7, #68]
 341 010c 3B6C     		ldr	r3, [r7, #64]
 342 010e 1046     		mov	r0, r2
 343 0110 0121     		movs	r1, #1
 344 0112 1A46     		mov	r2, r3
 345 0114 FFF7FEFF 		bl	changeFrequency
 346 0118 C7F8E800 		str	r0, [r7, #232]
 150:.\main.c      ****                         sprintf(usbTx, "fn = %d, mode = %s, newFreq = %d\r\n", fnGenerator, mode, n
 347              		.loc 1 150 0
 348 011c 3A6C     		ldr	r2, [r7, #64]
 349 011e 07F14801 		add	r1, r7, #72
 350 0122 3C46     		mov	r4, r7
 351 0124 D7F8E830 		ldr	r3, [r7, #232]
 352 0128 0093     		str	r3, [sp]
 353 012a 0846     		mov	r0, r1
 354 012c 5349     		ldr	r1, .L29+12
 355 012e 2346     		mov	r3, r4
 356 0130 FFF7FEFF 		bl	sprintf
 357 0134 96E0     		b	.L22
 358              	.L18:
 151:.\main.c      ****                     } else if (!strcmp(mode, "triangle")) { 
 359              		.loc 1 151 0
 360 0136 3B46     		mov	r3, r7
 361 0138 1846     		mov	r0, r3
 362 013a 5249     		ldr	r1, .L29+20
 363 013c FFF7FEFF 		bl	strcmp
 364 0140 0346     		mov	r3, r0
 365 0142 002B     		cmp	r3, #0
 366 0144 15D1     		bne	.L19
 152:.\main.c      ****                         newFreq = changeFrequency(desiredFreq, TRIANGLE, fnGenerator);
 367              		.loc 1 152 0
 368 0146 7A6C     		ldr	r2, [r7, #68]
 369 0148 3B6C     		ldr	r3, [r7, #64]
 370 014a 1046     		mov	r0, r2
 371 014c 0221     		movs	r1, #2
 372 014e 1A46     		mov	r2, r3
 373 0150 FFF7FEFF 		bl	changeFrequency
 374 0154 C7F8E800 		str	r0, [r7, #232]
 153:.\main.c      ****                         sprintf(usbTx, "fn = %d, mode = %s, newFreq = %d\r\n", fnGenerator, mode, n
 375              		.loc 1 153 0
 376 0158 3A6C     		ldr	r2, [r7, #64]
 377 015a 07F14801 		add	r1, r7, #72
 378 015e 3C46     		mov	r4, r7
 379 0160 D7F8E830 		ldr	r3, [r7, #232]
 380 0164 0093     		str	r3, [sp]
 381 0166 0846     		mov	r0, r1
 382 0168 4449     		ldr	r1, .L29+12
 383 016a 2346     		mov	r3, r4
 384 016c FFF7FEFF 		bl	sprintf
 385 0170 78E0     		b	.L22
 386              	.L19:
 154:.\main.c      ****                     } else if (!strcmp(mode, "sawtooth")) { 
 387              		.loc 1 154 0
 388 0172 3B46     		mov	r3, r7
 389 0174 1846     		mov	r0, r3
 390 0176 4449     		ldr	r1, .L29+24
ARM GAS  C:\Users\jthem\AppData\Local\Temp\cctygaP7.s 			page 11


 391 0178 FFF7FEFF 		bl	strcmp
 392 017c 0346     		mov	r3, r0
 393 017e 002B     		cmp	r3, #0
 394 0180 15D1     		bne	.L20
 155:.\main.c      ****                         newFreq = changeFrequency(desiredFreq, SAWTOOTH, fnGenerator);
 395              		.loc 1 155 0
 396 0182 7A6C     		ldr	r2, [r7, #68]
 397 0184 3B6C     		ldr	r3, [r7, #64]
 398 0186 1046     		mov	r0, r2
 399 0188 0321     		movs	r1, #3
 400 018a 1A46     		mov	r2, r3
 401 018c FFF7FEFF 		bl	changeFrequency
 402 0190 C7F8E800 		str	r0, [r7, #232]
 156:.\main.c      ****                         sprintf(usbTx, "fn = %d, mode = %s, newFreq = %d\r\n", fnGenerator, mode, n
 403              		.loc 1 156 0
 404 0194 3A6C     		ldr	r2, [r7, #64]
 405 0196 07F14801 		add	r1, r7, #72
 406 019a 3C46     		mov	r4, r7
 407 019c D7F8E830 		ldr	r3, [r7, #232]
 408 01a0 0093     		str	r3, [sp]
 409 01a2 0846     		mov	r0, r1
 410 01a4 3549     		ldr	r1, .L29+12
 411 01a6 2346     		mov	r3, r4
 412 01a8 FFF7FEFF 		bl	sprintf
 413 01ac 5AE0     		b	.L22
 414              	.L20:
 157:.\main.c      ****                     } else if (!strcmp(mode, "dc")) { 
 415              		.loc 1 157 0
 416 01ae 3B46     		mov	r3, r7
 417 01b0 1846     		mov	r0, r3
 418 01b2 3649     		ldr	r1, .L29+28
 419 01b4 FFF7FEFF 		bl	strcmp
 420 01b8 0346     		mov	r3, r0
 421 01ba 002B     		cmp	r3, #0
 422 01bc 15D1     		bne	.L21
 158:.\main.c      ****                         newFreq = changeFrequency(desiredFreq, DC, fnGenerator);
 423              		.loc 1 158 0
 424 01be 7A6C     		ldr	r2, [r7, #68]
 425 01c0 3B6C     		ldr	r3, [r7, #64]
 426 01c2 1046     		mov	r0, r2
 427 01c4 0421     		movs	r1, #4
 428 01c6 1A46     		mov	r2, r3
 429 01c8 FFF7FEFF 		bl	changeFrequency
 430 01cc C7F8E800 		str	r0, [r7, #232]
 159:.\main.c      ****                         sprintf(usbTx, "fn = %d, mode = %s, newFreq = %d\r\n", fnGenerator, mode, n
 431              		.loc 1 159 0
 432 01d0 3A6C     		ldr	r2, [r7, #64]
 433 01d2 07F14801 		add	r1, r7, #72
 434 01d6 3C46     		mov	r4, r7
 435 01d8 D7F8E830 		ldr	r3, [r7, #232]
 436 01dc 0093     		str	r3, [sp]
 437 01de 0846     		mov	r0, r1
 438 01e0 2649     		ldr	r1, .L29+12
 439 01e2 2346     		mov	r3, r4
 440 01e4 FFF7FEFF 		bl	sprintf
 441 01e8 3CE0     		b	.L22
 442              	.L21:
ARM GAS  C:\Users\jthem\AppData\Local\Temp\cctygaP7.s 			page 12


 160:.\main.c      ****                     } else {
 161:.\main.c      ****                         sprintf(usbTx, "Invalid mode: %s\r\n", mode);
 443              		.loc 1 161 0
 444 01ea 07F14802 		add	r2, r7, #72
 445 01ee 3B46     		mov	r3, r7
 446 01f0 1046     		mov	r0, r2
 447 01f2 2749     		ldr	r1, .L29+32
 448 01f4 1A46     		mov	r2, r3
 449 01f6 FFF7FEFF 		bl	sprintf
 450 01fa 33E0     		b	.L22
 451              	.L15:
 162:.\main.c      ****                     }
 163:.\main.c      ****                     
 164:.\main.c      ****                     
 165:.\main.c      ****                 } else if (numArgs == 2) {
 452              		.loc 1 165 0
 453 01fc D7F8EC30 		ldr	r3, [r7, #236]
 454 0200 022B     		cmp	r3, #2
 455 0202 26D1     		bne	.L23
 166:.\main.c      ****                     if (!strcmp(mode, "off")) {
 456              		.loc 1 166 0
 457 0204 3B46     		mov	r3, r7
 458 0206 1846     		mov	r0, r3
 459 0208 2249     		ldr	r1, .L29+36
 460 020a FFF7FEFF 		bl	strcmp
 461 020e 0346     		mov	r3, r0
 462 0210 002B     		cmp	r3, #0
 463 0212 15D1     		bne	.L24
 167:.\main.c      ****                         if (fnGenerator == 0) {
 464              		.loc 1 167 0
 465 0214 3B6C     		ldr	r3, [r7, #64]
 466 0216 002B     		cmp	r3, #0
 467 0218 03D1     		bne	.L25
 168:.\main.c      ****                             stopWaveDac(WAVEDAC_LOW_0);
 468              		.loc 1 168 0
 469 021a 0020     		movs	r0, #0
 470 021c FFF7FEFF 		bl	stopWaveDac
 471 0220 05E0     		b	.L26
 472              	.L25:
 169:.\main.c      ****                         } else if (fnGenerator == 1) {
 473              		.loc 1 169 0
 474 0222 3B6C     		ldr	r3, [r7, #64]
 475 0224 012B     		cmp	r3, #1
 476 0226 02D1     		bne	.L26
 170:.\main.c      ****                             stopWaveDac(WAVEDAC_LOW_1);   
 477              		.loc 1 170 0
 478 0228 0220     		movs	r0, #2
 479 022a FFF7FEFF 		bl	stopWaveDac
 480              	.L26:
 171:.\main.c      ****                         }
 172:.\main.c      ****                         sprintf(usbTx, "Stopped WaveDAC %d\r\n", fnGenerator);
 481              		.loc 1 172 0
 482 022e 3B6C     		ldr	r3, [r7, #64]
 483 0230 07F14802 		add	r2, r7, #72
 484 0234 1046     		mov	r0, r2
 485 0236 1849     		ldr	r1, .L29+40
 486 0238 1A46     		mov	r2, r3
ARM GAS  C:\Users\jthem\AppData\Local\Temp\cctygaP7.s 			page 13


 487 023a FFF7FEFF 		bl	sprintf
 488 023e 11E0     		b	.L22
 489              	.L24:
 173:.\main.c      ****                     } else {
 174:.\main.c      ****                         sprintf(usbTx, "Invalid mode: %s\r\n", mode);
 490              		.loc 1 174 0
 491 0240 07F14802 		add	r2, r7, #72
 492 0244 3B46     		mov	r3, r7
 493 0246 1046     		mov	r0, r2
 494 0248 1149     		ldr	r1, .L29+32
 495 024a 1A46     		mov	r2, r3
 496 024c FFF7FEFF 		bl	sprintf
 497 0250 08E0     		b	.L22
 498              	.L23:
 175:.\main.c      ****                     }
 176:.\main.c      ****                 } else {
 177:.\main.c      ****                     sprintf(usbTx, "Invalid command: %s\r\n", usbRx);
 499              		.loc 1 177 0
 500 0252 07F14802 		add	r2, r7, #72
 501 0256 07F18803 		add	r3, r7, #136
 502 025a 1046     		mov	r0, r2
 503 025c 0F49     		ldr	r1, .L29+44
 504 025e 1A46     		mov	r2, r3
 505 0260 FFF7FEFF 		bl	sprintf
 506              	.L22:
 178:.\main.c      ****                 }
 179:.\main.c      ****                 
 180:.\main.c      ****                 Serial_PutString(usbTx);
 507              		.loc 1 180 0 discriminator 1
 508 0264 07F14803 		add	r3, r7, #72
 509 0268 1846     		mov	r0, r3
 510 026a FFF7FEFF 		bl	Serial_PutString
 511              	.L14:
 512              	.LBE2:
 181:.\main.c      ****             }
 182:.\main.c      ****         }
 183:.\main.c      ****     }
 513              		.loc 1 183 0 discriminator 3
 514 026e EAE6     		b	.L28
 515              	.L30:
 516              		.align	2
 517              	.L29:
 518 0270 00000000 		.word	.LC0
 519 0274 04000000 		.word	.LC1
 520 0278 10000000 		.word	.LC2
 521 027c 18000000 		.word	.LC3
 522 0280 3C000000 		.word	.LC4
 523 0284 44000000 		.word	.LC5
 524 0288 50000000 		.word	.LC6
 525 028c 5C000000 		.word	.LC7
 526 0290 60000000 		.word	.LC8
 527 0294 74000000 		.word	.LC9
 528 0298 78000000 		.word	.LC10
 529 029c 90000000 		.word	.LC11
 530              		.cfi_endproc
 531              	.LFE64:
 532              		.size	main, .-main
ARM GAS  C:\Users\jthem\AppData\Local\Temp\cctygaP7.s 			page 14


 533              		.text
 534              	.Letext0:
 535              		.file 2 "c:\\program files (x86)\\cypress\\psoc creator\\3.3\\psoc creator\\import\\gnu\\arm\\4.9.
 536              		.file 3 "c:\\program files (x86)\\cypress\\psoc creator\\3.3\\psoc creator\\import\\gnu\\arm\\4.9.
 537              		.file 4 "c:\\program files (x86)\\cypress\\psoc creator\\3.3\\psoc creator\\import\\gnu\\arm\\4.9.
 538              		.file 5 "Generated_Source\\PSoC5/core_cm3.h"